(dp1
S'output'
p2
S'missing "pass" in view'
p3
sS'layer'
p4
S'ParserContainer'
p5
sS'code'
p6
S'response.write(\'<!--[if HTML5]><![endif]-->\\n<!DOCTYPE html>\\n<!-- paulirish.com/2008/conditional-stylesheets-vs-css-hacks-answer-neither/ -->\\n<!--[if lt IE 7]><html class="ie ie6 ie-lte9 ie-lte8 ie-lte7 no-js" lang="\', escape=False)\nresponse.write(T.accepted_language or \'en\')\nresponse.write(\'"> <![endif]-->\\n<!--[if IE 7]><html class="ie ie7 ie-lte9 ie-lte8 ie-lte7 no-js" lang="\', escape=False)\nresponse.write(T.accepted_language or \'en\')\nresponse.write(\'"> <![endif]-->\\n<!--[if IE 8]><html class="ie ie8 ie-lte9 ie-lte8 no-js" lang="\', escape=False)\nresponse.write(T.accepted_language or \'en\')\nresponse.write(\'"> <![endif]-->\\n<!--[if IE 9]><html class="ie9 ie-lte9 no-js" lang="\', escape=False)\nresponse.write(T.accepted_language or \'en\')\nresponse.write(\'"> <![endif]-->\\n<!--[if (gt IE 9)|!(IE)]><!--> <html class="no-js" lang="\', escape=False)\nresponse.write(T.accepted_language or \'en\')\nresponse.write(\'"> <!--<![endif]-->\\n<head>\\n<title>\', escape=False)\nresponse.write(response.title or request.application)\nresponse.write(\'</title>\\n  <!--[if !HTML5]>\\n      <meta http-equiv="X-UA-Compatible" content="IE=edge\', escape=False)\nresponse.write(not request.is_local and \',chrome=1\' or \'\')\nresponse.write(\'">\\n  <![endif]-->\\n  <!-- www.phpied.com/conditional-comments-block-downloads/ -->\\n  <!-- Always force latest IE rendering engine\\n       (even in intranet) & Chrome Frame\\n       Remove this if you use the .htaccess -->\\n\\n  <meta charset="utf-8" />\\n  <!--url(\', escape=False)\nresponse.write(URL(\'static\',\'img/brushed.png\'))\nresponse.write(\') repeat;-->\\n  \\n  <!-- http://dev.w3.org/html5/markup/meta.name.html -->\\n  <meta name="application-name" content="\', escape=False)\nresponse.write(request.application)\nresponse.write(\'" />\\n\\n  <!--  Mobile Viewport Fix\\n        j.mp/mobileviewport & davidbcalhoun.com/2010/viewport-metatag\\n        device-width: Occupy full width of the screen in its current orientation\\n        initial-scale = 1.0 retains dimensions instead of zooming out if page height > device height\\n        user-scalable = yes allows the user to zoom in -->\\n  <meta name="viewport" content="width=device-width, initial-scale=1.0" />\\n\\n  <link rel="shortcut icon" href="\', escape=False)\nresponse.write(URL(\'static\',\'images/favicon.ico\'))\nresponse.write(\'" type="image/x-icon">\\n  <link rel="apple-touch-icon" href="\', escape=False)\nresponse.write(URL(\'static\',\'images/favicon.png\'))\nresponse.write(\'">\\n\\n  <!-- All JavaScript at the bottom, except for Modernizr which enables\\n       HTML5 elements & feature detects -->\\n  <script src="\', escape=False)\nresponse.write(URL(\'static\',\'js/modernizr.custom.js\'))\nresponse.write(\'"></script>\\n\\n  <!-- include stylesheets -->\\n  \', escape=False)\n#response.files.append(URL(\'static\',\'css/web2py.css\'))\nresponse.files.append(URL(\'static\',\'css/bootstrap.min.css\'))\nresponse.files.append(URL(\'static\',\'css/bootstrap-responsive.min.css\'))\n#response.files.append(URL(\'static\',\'css/web2py_bootstrap.css\'))\nresponse.files.append(URL(\'static\',\'css/flat-ui.css\'))\nresponse.files.append(URL(\'static\',\'css/sb-admin.css\'))\nresponse.write(\'\\n \\n\', escape=False)\nresponse.write(\'<script type="text/javascript"><!--\\n    // These variables are used by the web2py_ajax_init function in web2py_ajax.js (which is loaded below).\\n    var w2p_ajax_confirm_message = "\', escape=False)\nresponse.write(T(\'Are you sure you want to delete this object?\'))\nresponse.write(\'";\\n    var w2p_ajax_date_format = "\', escape=False)\nresponse.write(T(\'%Y-%m-%d\'))\nresponse.write(\'";\\n    var w2p_ajax_datetime_format = "\', escape=False)\nresponse.write(T(\'%Y-%m-%d %H:%M:%S\'))\nresponse.write(\'";\\n    var ajax_error_500 = \\\'\', escape=False)\nresponse.write(XML(T(\'An error occured, please %s the page\') % A(T(\'reload\'), _href=URL(args=request.args, vars=request.get_vars))))\nresponse.write("\'\\n    //--></script>\\n", escape=False)\nresponse.files.insert(0,URL(\'static\',\'js/jquery.js\'))\nresponse.files.insert(1,URL(\'static\',\'css/calendar.css\'))\nresponse.files.insert(2,URL(\'static\',\'js/calendar.js\'))\nresponse.files.insert(3,URL(\'static\',\'js/web2py.js\'))\nresponse.include_meta()\nresponse.include_files()\nresponse.write(\'\\n\', escape=False)\nresponse.write(\'\\n  <noscript><link href="\', escape=False)\nresponse.write(URL(\'static\', \'css/web2py_bootstrap_nojs.css\'))\nresponse.write(\'" rel="stylesheet" type="text/css" /></noscript>\\n</head>\\n<body>\\n<!--background-color : #f1f0ee;-->\\n<style>\\nbody{\\n         padding:100px;\\n         \\n         \\n     }\\n</style>\\n<div class="navbar navbar-fixed-top" >\\n\\t<div class="navbar-inner">\\n        <ul class="nav"><li><a href=\', escape=False)\nresponse.write(URL(\'index\'))\nresponse.write(\' style="font-size:25px;">\', escape=False)\nresponse.write(str(response.title))\nresponse.write(\'</a></li></ul>\\n        <ul id="navbar" class="nav pull-right" style="color:white;">\', escape=False)\nresponse.write(\'auth\' in globals() and auth.navbar(mode="dropdown",referrer_actions=None) or \'\')\nresponse.write(\'</ul>\\n    </div>\\n</div>\\n    \', escape=False)\nresponse.write(\'\\n\', escape=False)\nprint "in view"+name\nresponse.write(\'\\n<script>\\n      jQuery(document).ready(function ($) {\\n        $(\\\'#tabs\\\').tab();\\n    });\\n</script>\\n<style>\\n\\t/*Style common for all pages navbar design*/\\n\\n    .navbar-inner{\\n        background:rgba(255, 255, 255, 1);    \\n    }\\n\\t.navbar .nav > li > a {\\n        <!color: #FFFFFF;-->\\n    }    \\n    .navbar{\\n        border-bottom: 4px solid rgba(46, 204, 113, 1);\\n    }\\n\\t/*End of Style common for all pages */\\n\\t\\n\\t.circle {\\n\\t\\t  display: inline-block;\\n\\t\\t  width: 150px;\\n\\t\\t  height: 150px;\\n\\t\\t  margin: 1em auto;\\n\\t\\t  background-size: cover;\\n\\t\\t  background-repeat: no-repeat;\\n\\t\\t  background-position: center center;\\n\\t\\t  -webkit-border-radius: 99em;\\n\\t\\t  -moz-border-radius: 99em;\\n\\t\\t  border-radius: 99em;\\n\\t\\t  border: 5px solid #eee;\\n\\t\\t  box-shadow: 0 3px 2px rgba(0, 0, 0, 0.3);\\n\\t      position:relative;\\n\\t      z-index:10;\\n       \\n\\t}\\n    \\n    .circle::after{\\n        position:absolute;\\n        left:200px;\\n        top:70px;\\n        font-size:large;\\n        font-weight:bold;\\n        content:"\', escape=False)\nresponse.write((name))\nresponse.write(\'";\\n    }\\n   \\n    #content{\\n    \\t\\n        position:relative;\\n        left:110px;\\n        top:-40px;\\n        /*h-shadow v-shadow blur spread color*/\\n\\t    box-shadow: 1px 0px 2px 2px #888888;\\n        height:500px;\\n\\t    overflow:scroll;\\n        border-radius:5px;\\n        z-index:9;\\n        padding: 10px;\\n\\n    }\\n\\n</style>\\n    \\n    <div class="circle" style="background-image:url(\', escape=False)\nresponse.write(Gravatar(auth.user.email).thumb)\nresponse.write(\')"></div>\\n<div class="span12">\\n<div id="content"> \\n    \\t<ul id="tabs" class="nav nav-tabs" data-tabs="tabs">\\n            <li class="active"><a href="#posts" data-toggle="tab"></a></li>\\n    \\t</ul>\\n\\t\\t    <div id="my-tab-content" class="tab-content">\\n\\t        <div class="tab-pane active" id="posts">\\n                \', escape=False)\nfor post in posts:\n    response.write(\'\\n                <div class="post">\\n                    <h1>\', escape=False)\n    response.write(post.description)\n    response.write(\'<h1>\\n                    <a href="\', escape=False)\n    response.write(post.url)\n    response.write(\'">"\', escape=False)\n    response.write(post.url)\n    response.write(\'" </a>\\n                        \', escape=False)\n    if post.liked_by_user :\n        response.write(\'\\n                        \', escape=False)\n        response.write(len(post.liked_by_user))\n        response.write(\'\\n                        \', escape=False)\n        else  :\n            response.write(\'\\n                        \', escape=False)\n            response.write(\'0\')\n            response.write(\'\\n                        \', escape=False)\n            pass\n        response.write(\'\\n                </div>\\n                \', escape=False)\n        pass\n    response.write(\'\\n\\t        </div>\\n \\t\\t \\t</div>\\n</div>\\n</div>\\n\', escape=False)\n    response.write(\'\\n\\n  <!-- The javascript =============================================\\n       (Placed at the end of the document so the pages load faster) -->\\n  <script src="\', escape=False)\n    response.write(URL(\'static\',\'js/bootstrap.min.js\'))\n    response.write(\'"></script>\\n  <script src="\', escape=False)\n    response.write(URL(\'static\',\'js/web2py_bootstrap.js\'))\n    response.write(\'"></script>\\n  <script src="\', escape=False)\n    response.write(URL(\'static\',\'js/less.js\'))\n    response.write(\'"></script>\\n  <!--[if lt IE 7 ]>\\n      <script src="\', escape=False)\n    response.write(URL(\'static\',\'js/dd_belatedpng.js\'))\n    response.write(\'"></script>\\n      <script> DD_belatedPNG.fix(\\\'img, .png_bg\\\'); //fix any <img> or .png_bg background-images </script>\\n      <![endif]-->\\n\\n  \', escape=False)\n    if response.google_analytics_id:\n        response.write(\'\\n  <script src="\', escape=False)\n        response.write(URL(\'static\',\'js/analytics.min.js\'))\n        response.write(\'"></script>\\n  <script type="text/javascript">\\n  analytics.initialize({\\n    \\\'Google Analytics\\\':{trackingId:\\\'\', escape=False)\n        response.write(response.google_analytics_id)\n        response.write("\'}\\n  });</script>\\n  ", escape=False)\n        pass\n    response.write(\'\\n  \\n    <script src="\', escape=False)\n    response.write(URL(\'static\',\'js/share.js\',vars=dict(static=URL(\'static\',\'img\'))))\n    response.write(\'"></script>\\n</body>\\n</html>\\n\', escape=False)'
p7
sS'snapshot'
p8
(dp9
S'exception'
p10
(dp11
S'__module__'
p12
S"'gluon.rocket'"
p13
sS'__getslice__'
p14
S"<method-wrapper '__getslice__' of SocketTimeout object>"
p15
sS'__str__'
p16
S"<method-wrapper '__str__' of SocketTimeout object>"
p17
sS'__reduce__'
p18
S'<built-in method __reduce__ of SocketTimeout object>'
p19
sS'__dict__'
p20
S'{}'
p21
sS'__sizeof__'
p22
S'<built-in method __sizeof__ of SocketTimeout object>'
p23
sS'__weakref__'
p24
S'None'
p25
sS'__init__'
p26
S"<method-wrapper '__init__' of SocketTimeout object>"
p27
sS'__setattr__'
p28
S"<method-wrapper '__setattr__' of SocketTimeout object>"
p29
sS'__reduce_ex__'
p30
S'<built-in method __reduce_ex__ of SocketTimeout object>'
p31
sS'__new__'
p32
S'<built-in method __new__ of type object>'
p33
sS'__format__'
p34
S'<built-in method __format__ of SocketTimeout object>'
p35
sS'__class__'
p36
S"<class 'gluon.rocket.SocketTimeout'>"
p37
sS'__doc__'
p38
S"'Exception for when a socket times out between requests.'"
p39
sS'__getitem__'
p40
S"<method-wrapper '__getitem__' of SocketTimeout object>"
p41
sS'__setstate__'
p42
S'<built-in method __setstate__ of SocketTimeout object>'
p43
sS'__getattribute__'
p44
S"<method-wrapper '__getattribute__' of SocketTimeout object>"
p45
sS'args'
p46
S"('Socket timed out before request.',)"
p47
sS'__subclasshook__'
p48
S'<built-in method __subclasshook__ of type object>'
p49
sS'__unicode__'
p50
S'<built-in method __unicode__ of SocketTimeout object>'
p51
sS'__delattr__'
p52
S"<method-wrapper '__delattr__' of SocketTimeout object>"
p53
sS'__repr__'
p54
S"<method-wrapper '__repr__' of SocketTimeout object>"
p55
sS'__hash__'
p56
S"<method-wrapper '__hash__' of SocketTimeout object>"
p57
ssS'evalue'
p58
S'Socket timed out before request.'
p59
sS'frames'
p60
(lp61
(dp62
S'file'
p63
S'/Users/josyulakrishna/Documents/web2py_src/web2py/gluon/rocket.py'
p64
sS'dump'
p65
(dp66
S'self'
p67
S'<WSGIWorker(Thread-11, started daemon 4416729088)>'
p68
sS'conn'
p69
S'<gluon.rocket.Connection object>'
p70
sS'self.run_app'
p71
S'<bound method WSGIWorker.run_app of <WSGIWorker(Thread-11, started daemon 4416729088)>>'
p72
ssS'lnum'
p73
I1337
sS'lines'
p74
(dp75
I1332
S'            # Enter connection serve loop'
p76
sI1333
S'            while True:'
p77
sI1334
S'                if __debug__:'
p78
sI1335
S"                    self.err_log.debug('Serving a request')"
p79
sI1336
S'                try:'
p80
sI1337
S'                    self.run_app(conn)'
p81
sI1338
S'                except:'
p82
sI1339
S'                    exc = sys.exc_info()'
p83
sI1340
S'                    handled = self._handleError(*exc)'
p84
sI1341
S'                    if handled:'
p85
ssS'call'
p86
S'(self=<WSGIWorker(Thread-11, started daemon 4416729088)>)'
p87
sS'func'
p88
S'run'
p89
sa(dp90
g63
S'/Users/josyulakrishna/Documents/web2py_src/web2py/gluon/rocket.py'
p91
sg65
(dp92
S'self'
p93
S'<WSGIWorker(Thread-11, started daemon 4416729088)>'
p94
sS'self.environ'
p95
S"{'HTTP_ACCEPT': 'text/html,application/xhtml+xml,application/xml;q=0.9,image/webp,*/*;q=0.8', 'HTTP_ACCEPT_ENCODING': 'gzip,deflate,sdch', 'HTTP_ACCEPT_LANGUAGE': 'en-US,en;q=0.8', 'HTTP_CACHE_CONTROL': 'max-age=0', 'HTTP_CONNECTION': 'keep-alive', 'HTTP_COOKIE': 'session_id_tryfacebookapi=127.0.0.1-83db9b5d-75e...in=127.0.0.1-7db7eefc-9f83-40e3-8599-b6f9393cf31d', 'HTTP_HOST': '127.0.0.1:8000', 'HTTP_USER_AGENT': 'Mozilla/5.0 (Macintosh; Intel Mac OS X 10_9_2) A...L, like Gecko) Chrome/34.0.1847.131 Safari/537.36', 'PATH_INFO': '/Amplify/default/userprofile/micheal', 'QUERY_STRING': '', ...}"
p96
sS'sock_file'
p97
S'<socket._fileobject object>'
p98
sS'environ'
p99
S'undefined'
p100
sS'self.build_environ'
p101
S'<bound method WSGIWorker.build_environ of <WSGIWorker(Thread-11, started daemon 4416729088)>>'
p102
sS'conn'
p103
S'<gluon.rocket.Connection object>'
p104
ssg73
I1830
sg74
(dp105
I1825
S'        else:'
p106
sI1826
S'            sock_file = conn.makefile(BUF_SIZE)'
p107
sI1827
S''
sI1828
S'        try:'
p108
sI1829
S'            # Read the headers and build our WSGI environment'
p109
sI1830
S'            self.environ = environ = self.build_environ(sock_file, conn)'
p110
sI1831
S''
sI1832
S'            # Handle 100 Continue'
p111
sI1833
S"            if environ.get('HTTP_EXPECT', '') == '100-continue':"
p112
sI1834
S"                res = environ['SERVER_PROTOCOL'] + ' 100 Continue\\r\\n\\r\\n'"
p113
ssg86
S'(self=<WSGIWorker(Thread-11, started daemon 4416729088)>, conn=<gluon.rocket.Connection object>)'
p114
sg88
S'run_app'
p115
sa(dp116
g63
S'/Users/josyulakrishna/Documents/web2py_src/web2py/gluon/rocket.py'
p117
sg65
(dp118
S'sock_file'
p119
S'<socket._fileobject object>'
p120
sS'self.read_request_line'
p121
S'<bound method WSGIWorker.read_request_line of <WSGIWorker(Thread-11, started daemon 4416729088)>>'
p122
sS'self'
p123
S'<WSGIWorker(Thread-11, started daemon 4416729088)>'
p124
sS'request'
p125
g100
ssg73
I1650
sg74
(dp126
I1645
S'                                      "wsgiorg.futures": executor.futures})'
p127
sI1646
S''
sI1647
S'    def build_environ(self, sock_file, conn):'
p128
sI1648
S'        """ Build the execution environment. """'
p129
sI1649
S'        # Grab the request line'
p130
sI1650
S'        request = self.read_request_line(sock_file)'
p131
sI1651
S''
sI1652
S'        # Copy the Base Environment'
p132
sI1653
S'        environ = self.base_environ.copy()'
p133
sI1654
S''
ssg86
S'(self=<WSGIWorker(Thread-11, started daemon 4416729088)>, sock_file=<socket._fileobject object>, conn=<gluon.rocket.Connection object>)'
p134
sg88
S'build_environ'
p135
sa(dp136
g63
S'/Users/josyulakrishna/Documents/web2py_src/web2py/gluon/rocket.py'
p137
sg65
(dp138
S'global SocketTimeout'
p139
S"<class 'gluon.rocket.SocketTimeout'>"
p140
ssg73
I1401
sg74
(dp141
I1396
S''
sI1397
S'                d = sock_file.readline()'
p142
sI1398
S'                if PY3K:'
p143
sI1399
S"                    d = d.decode('ISO-8859-1')"
p144
sI1400
S'        except socket.timeout:'
p145
sI1401
S"            raise SocketTimeout('Socket timed out before request.')"
p146
sI1402
S'        except TypeError:'
p147
sI1403
S'            raise SocketClosed('
p148
sI1404
S"                'SSL bug caused closure of socket.  See '"
p149
sI1405
S'                \'"https://groups.google.com/d/topic/web2py/P_Gw0JxWzCs".\')'
p150
ssg86
S'(self=<WSGIWorker(Thread-11, started daemon 4416729088)>, sock_file=<socket._fileobject object>)'
p151
sg88
S'read_request_line'
p152
sasS'pyver'
p153
S'Python 2.7.5: /Users/josyulakrishna/Documents/PythonPackages/anaconda/bin/python (prefix: /Users/josyulakrishna/Documents/PythonPackages/anaconda)'
p154
sS'etype'
p155
S"<class 'gluon.rocket.SocketTimeout'>"
p156
sS'date'
p157
S'Sat Apr 26 14:48:21 2014'
p158
sS'locals'
p159
(dp160
S'sock_file'
p161
S'<socket._fileobject object>'
p162
sS'self'
p163
S'<WSGIWorker(Thread-11, started daemon 4416729088)>'
p164
sssS'traceback'
p165
S'Traceback (most recent call last):\n  File "/Users/josyulakrishna/Documents/web2py_src/web2py/gluon/rocket.py", line 1337, in run\n    self.run_app(conn)\n  File "/Users/josyulakrishna/Documents/web2py_src/web2py/gluon/rocket.py", line 1830, in run_app\n    self.environ = environ = self.build_environ(sock_file, conn)\n  File "/Users/josyulakrishna/Documents/web2py_src/web2py/gluon/rocket.py", line 1650, in build_environ\n    request = self.read_request_line(sock_file)\n  File "/Users/josyulakrishna/Documents/web2py_src/web2py/gluon/rocket.py", line 1401, in read_request_line\n    raise SocketTimeout(\'Socket timed out before request.\')\nSocketTimeout: Socket timed out before request.\n'
p166
s.