(dp1
S'output'
p2
S''
sS'layer'
p3
S'Framework'
p4
sS'code'
p5
S''
sS'snapshot'
p6
(dp7
sS'traceback'
p8
S'Traceback (most recent call last):\n  File "E:\\web2py_src\\web2py\\gluon\\main.py", line 573, in wsgibase\n    serve_controller(request, response, session)\n  File "E:\\web2py_src\\web2py\\gluon\\main.py", line 234, in serve_controller\n    run_view_in(response._view_environment)\n  File "E:\\web2py_src\\web2py\\gluon\\compileapp.py", line 672, in run_view_in\n    context=environment)\n  File "E:\\web2py_src\\web2py\\gluon\\template.py", line 785, in parse_template\n    return str(TemplateParser(text, context=context, path=path, lexers=lexers, delimiters=delimiters))\n  File "E:\\web2py_src\\web2py\\gluon\\template.py", line 328, in __str__\n    return self.to_string()\n  File "E:\\web2py_src\\web2py\\gluon\\template.py", line 324, in to_string\n    return self.reindent(str(self.content))\n  File "E:\\web2py_src\\web2py\\gluon\\template.py", line 170, in __str__\n    return \'\'.join(output_aux(node, self.blocks) for node in self.nodes)\n  File "E:\\web2py_src\\web2py\\gluon\\template.py", line 170, in <genexpr>\n    return \'\'.join(output_aux(node, self.blocks) for node in self.nodes)\n  File "E:\\web2py_src\\web2py\\gluon\\template.py", line 77, in output_aux\n    if isinstance(node, BlockNode) \\\n  File "E:\\web2py_src\\web2py\\gluon\\template.py", line 149, in output\n    return \'\'.join(output_aux(node, blocks) for node in self.nodes)\n  File "E:\\web2py_src\\web2py\\gluon\\template.py", line 149, in <genexpr>\n    return \'\'.join(output_aux(node, blocks) for node in self.nodes)\n  File "E:\\web2py_src\\web2py\\gluon\\template.py", line 77, in output_aux\n    if isinstance(node, BlockNode) \\\n  File "E:\\web2py_src\\web2py\\gluon\\template.py", line 149, in output\n    return \'\'.join(output_aux(node, blocks) for node in self.nodes)\n  File "E:\\web2py_src\\web2py\\gluon\\template.py", line 149, in <genexpr>\n    return \'\'.join(output_aux(node, blocks) for node in self.nodes)\n  File "E:\\web2py_src\\web2py\\gluon\\template.py", line 77, in output_aux\n    if isinstance(node, BlockNode) \\\n  File "E:\\web2py_src\\web2py\\gluon\\template.py", line 149, in output\n    return \'\'.join(output_aux(node, blocks) for node in self.nodes)\n  File "E:\\web2py_src\\web2py\\gluon\\template.py", line 149, in <genexpr>\n    return \'\'.join(output_aux(node, blocks) for node in self.nodes)\n  File "E:\\web2py_src\\web2py\\gluon\\template.py", line 77, in output_aux\n    if isinstance(node, BlockNode) \\\n  File "E:\\web2py_src\\web2py\\gluon\\template.py", line 149, in output\n    return \'\'.join(output_aux(node, blocks) for node in self.nodes)\n  File "E:\\web2py_src\\web2py\\gluon\\template.py", line 149, in <genexpr>\n    return \'\'.join(output_aux(node, blocks) for node in self.nodes)\n  File "E:\\web2py_src\\web2py\\gluon\\template.py", line 77, in output_aux\n    if isinstance(node, BlockNode) \\\n  File "E:\\web2py_src\\web2py\\gluon\\template.py", line 149, in output\n    return \'\'.join(output_aux(node, blocks) for node in self.nodes)\n  File "E:\\web2py_src\\web2py\\gluon\\template.py", line 149, in <genexpr>\n    return \'\'.join(output_aux(node, blocks) for node in self.nodes)\n  File "E:\\web2py_src\\web2py\\gluon\\template.py", line 77, in output_aux\n    if isinstance(node, BlockNode) \\\n  File "E:\\web2py_src\\web2py\\gluon\\template.py", line 149, in output\n    return \'\'.join(output_aux(node, blocks) for node in self.nodes)\n  File "E:\\web2py_src\\web2py\\gluon\\template.py", line 149, in <genexpr>\n    return \'\'.join(output_aux(node, blocks) for node in self.nodes)\n  File "E:\\web2py_src\\web2py\\gluon\\template.py", line 77, in output_aux\n    if isinstance(node, BlockNode) \\\n  File "E:\\web2py_src\\web2py\\gluon\\template.py", line 149, in output\n    return \'\'.join(output_aux(node, blocks) for node in self.nodes)\n  File "E:\\web2py_src\\web2py\\gluon\\template.py", line 149, in <genexpr>\n    return \'\'.join(output_aux(node, blocks) for node in self.nodes)\n  File "E:\\web2py_src\\web2py\\gluon\\template.py", line 77, in output_aux\n    if isinstance(node, BlockNode) \\\n  File "E:\\web2py_src\\web2py\\gluon\\template.py", line 149, in output\n    return \'\'.join(output_aux(node, blocks) for node in self.nodes)\n  File "E:\\web2py_src\\web2py\\gluon\\template.py", line 149, in <genexpr>\n    return \'\'.join(output_aux(node, blocks) for node in self.nodes)\n  File "E:\\web2py_src\\web2py\\gluon\\template.py", line 77, in output_aux\n    if isinstance(node, BlockNode) \\\n  File "E:\\web2py_src\\web2py\\gluon\\template.py", line 149, in output\n    return \'\'.join(output_aux(node, blocks) for node in self.nodes)\n  File "E:\\web2py_src\\web2py\\gluon\\template.py", line 149, in <genexpr>\n    return \'\'.join(output_aux(node, blocks) for node in self.nodes)\n  File "E:\\web2py_src\\web2py\\gluon\\template.py", line 77, in output_aux\n    if isinstance(node, BlockNode) \\\n  File "E:\\web2py_src\\web2py\\gluon\\template.py", line 149, in output\n    return \'\'.join(output_aux(node, blocks) for node in self.nodes)\n  File "E:\\web2py_src\\web2py\\gluon\\template.py", line 149, in <genexpr>\n    return \'\'.join(output_aux(node, blocks) for node in self.nodes)\n  File "E:\\web2py_src\\web2py\\gluon\\template.py", line 77, in output_aux\n    if isinstance(node, BlockNode) \\\n  File "E:\\web2py_src\\web2py\\gluon\\template.py", line 149, in output\n    return \'\'.join(output_aux(node, blocks) for node in self.nodes)\n  File "E:\\web2py_src\\web2py\\gluon\\template.py", line 149, in <genexpr>\n    return \'\'.join(output_aux(node, blocks) for node in self.nodes)\n  File "E:\\web2py_src\\web2py\\gluon\\template.py", line 77, in output_aux\n    if isinstance(node, BlockNode) \\\n  File "E:\\web2py_src\\web2py\\gluon\\template.py", line 149, in output\n    return \'\'.join(output_aux(node, blocks) for node in self.nodes)\n  File "E:\\web2py_src\\web2py\\gluon\\template.py", line 149, in <genexpr>\n    return \'\'.join(output_aux(node, blocks) for node in self.nodes)\n  File "E:\\web2py_src\\web2py\\gluon\\template.py", line 77, in output_aux\n    if isinstance(node, BlockNode) \\\n  File "E:\\web2py_src\\web2py\\gluon\\template.py", line 149, in output\n    return \'\'.join(output_aux(node, blocks) for node in self.nodes)\n  File "E:\\web2py_src\\web2py\\gluon\\template.py", line 149, in <genexpr>\n    return \'\'.join(output_aux(node, blocks) for node in self.nodes)\n  File "E:\\web2py_src\\web2py\\gluon\\template.py", line 77, in output_aux\n    if isinstance(node, BlockNode) \\\n  File "E:\\web2py_src\\web2py\\gluon\\template.py", line 149, in output\n    return \'\'.join(output_aux(node, blocks) for node in self.nodes)\n  File "E:\\web2py_src\\web2py\\gluon\\template.py", line 149, in <genexpr>\n    return \'\'.join(output_aux(node, blocks) for node in self.nodes)\n  File "E:\\web2py_src\\web2py\\gluon\\template.py", line 77, in output_aux\n    if isinstance(node, BlockNode) \\\n  File "E:\\web2py_src\\web2py\\gluon\\template.py", line 149, in output\n    return \'\'.join(output_aux(node, blocks) for node in self.nodes)\n  File "E:\\web2py_src\\web2py\\gluon\\template.py", line 149, in <genexpr>\n    return \'\'.join(output_aux(node, blocks) for node in self.nodes)\n  File "E:\\web2py_src\\web2py\\gluon\\template.py", line 77, in output_aux\n    if isinstance(node, BlockNode) \\\n  File "E:\\web2py_src\\web2py\\gluon\\template.py", line 149, in output\n    return \'\'.join(output_aux(node, blocks) for node in self.nodes)\n  File "E:\\web2py_src\\web2py\\gluon\\template.py", line 149, in <genexpr>\n    return \'\'.join(output_aux(node, blocks) for node in self.nodes)\n  File "E:\\web2py_src\\web2py\\gluon\\template.py", line 77, in output_aux\n    if isinstance(node, BlockNode) \\\n  File "E:\\web2py_src\\web2py\\gluon\\template.py", line 149, in output\n    return \'\'.join(output_aux(node, blocks) for node in self.nodes)\n  File "E:\\web2py_src\\web2py\\gluon\\template.py", line 149, in <genexpr>\n    return \'\'.join(output_aux(node, blocks) for node in self.nodes)\n  File "E:\\web2py_src\\web2py\\gluon\\template.py", line 77, in output_aux\n    if isinstance(node, BlockNode) \\\n  File "E:\\web2py_src\\web2py\\gluon\\template.py", line 149, in output\n    return \'\'.join(output_aux(node, blocks) for node in self.nodes)\n  File "E:\\web2py_src\\web2py\\gluon\\template.py", line 149, in <genexpr>\n    return \'\'.join(output_aux(node, blocks) for node in self.nodes)\n  File "E:\\web2py_src\\web2py\\gluon\\template.py", line 77, in output_aux\n    if isinstance(node, BlockNode) \\\n  File "E:\\web2py_src\\web2py\\gluon\\template.py", line 149, in output\n    return \'\'.join(output_aux(node, blocks) for node in self.nodes)\n  File "E:\\web2py_src\\web2py\\gluon\\template.py", line 149, in <genexpr>\n    return \'\'.join(output_aux(node, blocks) for node in self.nodes)\n  File "E:\\web2py_src\\web2py\\gluon\\template.py", line 77, in output_aux\n    if isinstance(node, BlockNode) \\\n  File "E:\\web2py_src\\web2py\\gluon\\template.py", line 149, in output\n    return \'\'.join(output_aux(node, blocks) for node in self.nodes)\n  File "E:\\web2py_src\\web2py\\gluon\\template.py", line 149, in <genexpr>\n    return \'\'.join(output_aux(node, blocks) for node in self.nodes)\n  File "E:\\web2py_src\\web2py\\gluon\\template.py", line 77, in output_aux\n    if isinstance(node, BlockNode) \\\n  File "E:\\web2py_src\\web2py\\gluon\\template.py", line 149, in output\n    return \'\'.join(output_aux(node, blocks) for node in self.nodes)\n  File "E:\\web2py_src\\web2py\\gluon\\template.py", line 149, in <genexpr>\n    return \'\'.join(output_aux(node, blocks) for node in self.nodes)\n  File "E:\\web2py_src\\web2py\\gluon\\template.py", line 77, in output_aux\n    if isinstance(node, BlockNode) \\\n  File "E:\\web2py_src\\web2py\\gluon\\template.py", line 149, in output\n    return \'\'.join(output_aux(node, blocks) for node in self.nodes)\n  File "E:\\web2py_src\\web2py\\gluon\\template.py", line 149, in <genexpr>\n    return \'\'.join(output_aux(node, blocks) for node in self.nodes)\n  File "E:\\web2py_src\\web2py\\gluon\\template.py", line 77, in output_aux\n    if isinstance(node, BlockNode) \\\n  File "E:\\web2py_src\\web2py\\gluon\\template.py", line 149, in output\n    return \'\'.join(output_aux(node, blocks) for node in self.nodes)\n  File "E:\\web2py_src\\web2py\\gluon\\template.py", line 149, in <genexpr>\n    return \'\'.join(output_aux(node, blocks) for node in self.nodes)\n  File "E:\\web2py_src\\web2py\\gluon\\template.py", line 77, in output_aux\n    if isinstance(node, BlockNode) \\\n  File "E:\\web2py_src\\web2py\\gluon\\template.py", line 149, in output\n    return \'\'.join(output_aux(node, blocks) for node in self.nodes)\n  File "E:\\web2py_src\\web2py\\gluon\\template.py", line 149, in <genexpr>\n    return \'\'.join(output_aux(node, blocks) for node in self.nodes)\n  File "E:\\web2py_src\\web2py\\gluon\\template.py", line 77, in output_aux\n    if isinstance(node, BlockNode) \\\n  File "E:\\web2py_src\\web2py\\gluon\\template.py", line 149, in output\n    return \'\'.join(output_aux(node, blocks) for node in self.nodes)\n  File "E:\\web2py_src\\web2py\\gluon\\template.py", line 149, in <genexpr>\n    return \'\'.join(output_aux(node, blocks) for node in self.nodes)\n  File "E:\\web2py_src\\web2py\\gluon\\template.py", line 77, in output_aux\n    if isinstance(node, BlockNode) \\\n  File "E:\\web2py_src\\web2py\\gluon\\template.py", line 149, in output\n    return \'\'.join(output_aux(node, blocks) for node in self.nodes)\n  File "E:\\web2py_src\\web2py\\gluon\\template.py", line 149, in <genexpr>\n    return \'\'.join(output_aux(node, blocks) for node in self.nodes)\n  File "E:\\web2py_src\\web2py\\gluon\\template.py", line 77, in output_aux\n    if isinstance(node, BlockNode) \\\n  File "E:\\web2py_src\\web2py\\gluon\\template.py", line 149, in output\n    return \'\'.join(output_aux(node, blocks) for node in self.nodes)\n  File "E:\\web2py_src\\web2py\\gluon\\template.py", line 149, in <genexpr>\n    return \'\'.join(output_aux(node, blocks) for node in self.nodes)\n  File "E:\\web2py_src\\web2py\\gluon\\template.py", line 77, in output_aux\n    if isinstance(node, BlockNode) \\\n  File "E:\\web2py_src\\web2py\\gluon\\template.py", line 149, in output\n    return \'\'.join(output_aux(node, blocks) for node in self.nodes)\n  File "E:\\web2py_src\\web2py\\gluon\\template.py", line 149, in <genexpr>\n    return \'\'.join(output_aux(node, blocks) for node in self.nodes)\n  File "E:\\web2py_src\\web2py\\gluon\\template.py", line 77, in output_aux\n    if isinstance(node, BlockNode) \\\n  File "E:\\web2py_src\\web2py\\gluon\\template.py", line 149, in output\n    return \'\'.join(output_aux(node, blocks) for node in self.nodes)\n  File "E:\\web2py_src\\web2py\\gluon\\template.py", line 149, in <genexpr>\n    return \'\'.join(output_aux(node, blocks) for node in self.nodes)\n  File "E:\\web2py_src\\web2py\\gluon\\template.py", line 77, in output_aux\n    if isinstance(node, BlockNode) \\\n  File "E:\\web2py_src\\web2py\\gluon\\template.py", line 149, in output\n    return \'\'.join(output_aux(node, blocks) for node in self.nodes)\n  File "E:\\web2py_src\\web2py\\gluon\\template.py", line 149, in <genexpr>\n    return \'\'.join(output_aux(node, blocks) for node in self.nodes)\n  File "E:\\web2py_src\\web2py\\gluon\\template.py", line 77, in output_aux\n    if isinstance(node, BlockNode) \\\n  File "E:\\web2py_src\\web2py\\gluon\\template.py", line 149, in output\n    return \'\'.join(output_aux(node, blocks) for node in self.nodes)\n  File "E:\\web2py_src\\web2py\\gluon\\template.py", line 149, in <genexpr>\n    return \'\'.join(output_aux(node, blocks) for node in self.nodes)\n  File "E:\\web2py_src\\web2py\\gluon\\template.py", line 77, in output_aux\n    if isinstance(node, BlockNode) \\\n  File "E:\\web2py_src\\web2py\\gluon\\template.py", line 149, in output\n    return \'\'.join(output_aux(node, blocks) for node in self.nodes)\n  File "E:\\web2py_src\\web2py\\gluon\\template.py", line 149, in <genexpr>\n    return \'\'.join(output_aux(node, blocks) for node in self.nodes)\n  File "E:\\web2py_src\\web2py\\gluon\\template.py", line 77, in output_aux\n    if isinstance(node, BlockNode) \\\n  File "E:\\web2py_src\\web2py\\gluon\\template.py", line 149, in output\n    return \'\'.join(output_aux(node, blocks) for node in self.nodes)\n  File "E:\\web2py_src\\web2py\\gluon\\template.py", line 149, in <genexpr>\n    return \'\'.join(output_aux(node, blocks) for node in self.nodes)\n  File "E:\\web2py_src\\web2py\\gluon\\template.py", line 77, in output_aux\n    if isinstance(node, BlockNode) \\\n  File "E:\\web2py_src\\web2py\\gluon\\template.py", line 149, in output\n    return \'\'.join(output_aux(node, blocks) for node in self.nodes)\n  File "E:\\web2py_src\\web2py\\gluon\\template.py", line 149, in <genexpr>\n    return \'\'.join(output_aux(node, blocks) for node in self.nodes)\n  File "E:\\web2py_src\\web2py\\gluon\\template.py", line 77, in output_aux\n    if isinstance(node, BlockNode) \\\n  File "E:\\web2py_src\\web2py\\gluon\\template.py", line 149, in output\n    return \'\'.join(output_aux(node, blocks) for node in self.nodes)\n  File "E:\\web2py_src\\web2py\\gluon\\template.py", line 149, in <genexpr>\n    return \'\'.join(output_aux(node, blocks) for node in self.nodes)\n  File "E:\\web2py_src\\web2py\\gluon\\template.py", line 77, in output_aux\n    if isinstance(node, BlockNode) \\\n  File "E:\\web2py_src\\web2py\\gluon\\template.py", line 149, in output\n    return \'\'.join(output_aux(node, blocks) for node in self.nodes)\n  File "E:\\web2py_src\\web2py\\gluon\\template.py", line 149, in <genexpr>\n    return \'\'.join(output_aux(node, blocks) for node in self.nodes)\n  File "E:\\web2py_src\\web2py\\gluon\\template.py", line 77, in output_aux\n    if isinstance(node, BlockNode) \\\n  File "E:\\web2py_src\\web2py\\gluon\\template.py", line 149, in output\n    return \'\'.join(output_aux(node, blocks) for node in self.nodes)\n  File "E:\\web2py_src\\web2py\\gluon\\template.py", line 149, in <genexpr>\n    return \'\'.join(output_aux(node, blocks) for node in self.nodes)\n  File "E:\\web2py_src\\web2py\\gluon\\template.py", line 77, in output_aux\n    if isinstance(node, BlockNode) \\\n  File "E:\\web2py_src\\web2py\\gluon\\template.py", line 149, in output\n    return \'\'.join(output_aux(node, blocks) for node in self.nodes)\n  File "E:\\web2py_src\\web2py\\gluon\\template.py", line 149, in <genexpr>\n    return \'\'.join(output_aux(node, blocks) for node in self.nodes)\n  File "E:\\web2py_src\\web2py\\gluon\\template.py", line 77, in output_aux\n    if isinstance(node, BlockNode) \\\n  File "E:\\web2py_src\\web2py\\gluon\\template.py", line 149, in output\n    return \'\'.join(output_aux(node, blocks) for node in self.nodes)\n  File "E:\\web2py_src\\web2py\\gluon\\template.py", line 149, in <genexpr>\n    return \'\'.join(output_aux(node, blocks) for node in self.nodes)\n  File "E:\\web2py_src\\web2py\\gluon\\template.py", line 77, in output_aux\n    if isinstance(node, BlockNode) \\\n  File "E:\\web2py_src\\web2py\\gluon\\template.py", line 149, in output\n    return \'\'.join(output_aux(node, blocks) for node in self.nodes)\n  File "E:\\web2py_src\\web2py\\gluon\\template.py", line 149, in <genexpr>\n    return \'\'.join(output_aux(node, blocks) for node in self.nodes)\n  File "E:\\web2py_src\\web2py\\gluon\\template.py", line 77, in output_aux\n    if isinstance(node, BlockNode) \\\n  File "E:\\web2py_src\\web2py\\gluon\\template.py", line 149, in output\n    return \'\'.join(output_aux(node, blocks) for node in self.nodes)\n  File "E:\\web2py_src\\web2py\\gluon\\template.py", line 149, in <genexpr>\n    return \'\'.join(output_aux(node, blocks) for node in self.nodes)\n  File "E:\\web2py_src\\web2py\\gluon\\template.py", line 77, in output_aux\n    if isinstance(node, BlockNode) \\\n  File "E:\\web2py_src\\web2py\\gluon\\template.py", line 149, in output\n    return \'\'.join(output_aux(node, blocks) for node in self.nodes)\n  File "E:\\web2py_src\\web2py\\gluon\\template.py", line 149, in <genexpr>\n    return \'\'.join(output_aux(node, blocks) for node in self.nodes)\n  File "E:\\web2py_src\\web2py\\gluon\\template.py", line 77, in output_aux\n    if isinstance(node, BlockNode) \\\n  File "E:\\web2py_src\\web2py\\gluon\\template.py", line 149, in output\n    return \'\'.join(output_aux(node, blocks) for node in self.nodes)\n  File "E:\\web2py_src\\web2py\\gluon\\template.py", line 149, in <genexpr>\n    return \'\'.join(output_aux(node, blocks) for node in self.nodes)\n  File "E:\\web2py_src\\web2py\\gluon\\template.py", line 77, in output_aux\n    if isinstance(node, BlockNode) \\\n  File "E:\\web2py_src\\web2py\\gluon\\template.py", line 149, in output\n    return \'\'.join(output_aux(node, blocks) for node in self.nodes)\n  File "E:\\web2py_src\\web2py\\gluon\\template.py", line 149, in <genexpr>\n    return \'\'.join(output_aux(node, blocks) for node in self.nodes)\n  File "E:\\web2py_src\\web2py\\gluon\\template.py", line 77, in output_aux\n    if isinstance(node, BlockNode) \\\n  File "E:\\web2py_src\\web2py\\gluon\\template.py", line 149, in output\n    return \'\'.join(output_aux(node, blocks) for node in self.nodes)\n  File "E:\\web2py_src\\web2py\\gluon\\template.py", line 149, in <genexpr>\n    return \'\'.join(output_aux(node, blocks) for node in self.nodes)\n  File "E:\\web2py_src\\web2py\\gluon\\template.py", line 77, in output_aux\n    if isinstance(node, BlockNode) \\\n  File "E:\\web2py_src\\web2py\\gluon\\template.py", line 149, in output\n    return \'\'.join(output_aux(node, blocks) for node in self.nodes)\n  File "E:\\web2py_src\\web2py\\gluon\\template.py", line 149, in <genexpr>\n    return \'\'.join(output_aux(node, blocks) for node in self.nodes)\n  File "E:\\web2py_src\\web2py\\gluon\\template.py", line 77, in output_aux\n    if isinstance(node, BlockNode) \\\n  File "E:\\web2py_src\\web2py\\gluon\\template.py", line 149, in output\n    return \'\'.join(output_aux(node, blocks) for node in self.nodes)\n  File "E:\\web2py_src\\web2py\\gluon\\template.py", line 149, in <genexpr>\n    return \'\'.join(output_aux(node, blocks) for node in self.nodes)\n  File "E:\\web2py_src\\web2py\\gluon\\template.py", line 77, in output_aux\n    if isinstance(node, BlockNode) \\\n  File "E:\\web2py_src\\web2py\\gluon\\template.py", line 149, in output\n    return \'\'.join(output_aux(node, blocks) for node in self.nodes)\n  File "E:\\web2py_src\\web2py\\gluon\\template.py", line 149, in <genexpr>\n    return \'\'.join(output_aux(node, blocks) for node in self.nodes)\n  File "E:\\web2py_src\\web2py\\gluon\\template.py", line 77, in output_aux\n    if isinstance(node, BlockNode) \\\n  File "E:\\web2py_src\\web2py\\gluon\\template.py", line 149, in output\n    return \'\'.join(output_aux(node, blocks) for node in self.nodes)\n  File "E:\\web2py_src\\web2py\\gluon\\template.py", line 149, in <genexpr>\n    return \'\'.join(output_aux(node, blocks) for node in self.nodes)\n  File "E:\\web2py_src\\web2py\\gluon\\template.py", line 77, in output_aux\n    if isinstance(node, BlockNode) \\\n  File "E:\\web2py_src\\web2py\\gluon\\template.py", line 149, in output\n    return \'\'.join(output_aux(node, blocks) for node in self.nodes)\n  File "E:\\web2py_src\\web2py\\gluon\\template.py", line 149, in <genexpr>\n    return \'\'.join(output_aux(node, blocks) for node in self.nodes)\n  File "E:\\web2py_src\\web2py\\gluon\\template.py", line 77, in output_aux\n    if isinstance(node, BlockNode) \\\n  File "E:\\web2py_src\\web2py\\gluon\\template.py", line 149, in output\n    return \'\'.join(output_aux(node, blocks) for node in self.nodes)\n  File "E:\\web2py_src\\web2py\\gluon\\template.py", line 149, in <genexpr>\n    return \'\'.join(output_aux(node, blocks) for node in self.nodes)\n  File "E:\\web2py_src\\web2py\\gluon\\template.py", line 77, in output_aux\n    if isinstance(node, BlockNode) \\\n  File "E:\\web2py_src\\web2py\\gluon\\template.py", line 149, in output\n    return \'\'.join(output_aux(node, blocks) for node in self.nodes)\n  File "E:\\web2py_src\\web2py\\gluon\\template.py", line 149, in <genexpr>\n    return \'\'.join(output_aux(node, blocks) for node in self.nodes)\n  File "E:\\web2py_src\\web2py\\gluon\\template.py", line 77, in output_aux\n    if isinstance(node, BlockNode) \\\n  File "E:\\web2py_src\\web2py\\gluon\\template.py", line 149, in output\n    return \'\'.join(output_aux(node, blocks) for node in self.nodes)\n  File "E:\\web2py_src\\web2py\\gluon\\template.py", line 149, in <genexpr>\n    return \'\'.join(output_aux(node, blocks) for node in self.nodes)\n  File "E:\\web2py_src\\web2py\\gluon\\template.py", line 77, in output_aux\n    if isinstance(node, BlockNode) \\\n  File "E:\\web2py_src\\web2py\\gluon\\template.py", line 149, in output\n    return \'\'.join(output_aux(node, blocks) for node in self.nodes)\n  File "E:\\web2py_src\\web2py\\gluon\\template.py", line 149, in <genexpr>\n    return \'\'.join(output_aux(node, blocks) for node in self.nodes)\n  File "E:\\web2py_src\\web2py\\gluon\\template.py", line 77, in output_aux\n    if isinstance(node, BlockNode) \\\n  File "E:\\web2py_src\\web2py\\gluon\\template.py", line 149, in output\n    return \'\'.join(output_aux(node, blocks) for node in self.nodes)\n  File "E:\\web2py_src\\web2py\\gluon\\template.py", line 149, in <genexpr>\n    return \'\'.join(output_aux(node, blocks) for node in self.nodes)\n  File "E:\\web2py_src\\web2py\\gluon\\template.py", line 77, in output_aux\n    if isinstance(node, BlockNode) \\\n  File "E:\\web2py_src\\web2py\\gluon\\template.py", line 149, in output\n    return \'\'.join(output_aux(node, blocks) for node in self.nodes)\n  File "E:\\web2py_src\\web2py\\gluon\\template.py", line 149, in <genexpr>\n    return \'\'.join(output_aux(node, blocks) for node in self.nodes)\n  File "E:\\web2py_src\\web2py\\gluon\\template.py", line 77, in output_aux\n    if isinstance(node, BlockNode) \\\n  File "E:\\web2py_src\\web2py\\gluon\\template.py", line 149, in output\n    return \'\'.join(output_aux(node, blocks) for node in self.nodes)\n  File "E:\\web2py_src\\web2py\\gluon\\template.py", line 149, in <genexpr>\n    return \'\'.join(output_aux(node, blocks) for node in self.nodes)\n  File "E:\\web2py_src\\web2py\\gluon\\template.py", line 77, in output_aux\n    if isinstance(node, BlockNode) \\\n  File "E:\\web2py_src\\web2py\\gluon\\template.py", line 149, in output\n    return \'\'.join(output_aux(node, blocks) for node in self.nodes)\n  File "E:\\web2py_src\\web2py\\gluon\\template.py", line 149, in <genexpr>\n    return \'\'.join(output_aux(node, blocks) for node in self.nodes)\n  File "E:\\web2py_src\\web2py\\gluon\\template.py", line 77, in output_aux\n    if isinstance(node, BlockNode) \\\n  File "E:\\web2py_src\\web2py\\gluon\\template.py", line 149, in output\n    return \'\'.join(output_aux(node, blocks) for node in self.nodes)\n  File "E:\\web2py_src\\web2py\\gluon\\template.py", line 149, in <genexpr>\n    return \'\'.join(output_aux(node, blocks) for node in self.nodes)\n  File "E:\\web2py_src\\web2py\\gluon\\template.py", line 77, in output_aux\n    if isinstance(node, BlockNode) \\\n  File "E:\\web2py_src\\web2py\\gluon\\template.py", line 149, in output\n    return \'\'.join(output_aux(node, blocks) for node in self.nodes)\n  File "E:\\web2py_src\\web2py\\gluon\\template.py", line 149, in <genexpr>\n    return \'\'.join(output_aux(node, blocks) for node in self.nodes)\n  File "E:\\web2py_src\\web2py\\gluon\\template.py", line 77, in output_aux\n    if isinstance(node, BlockNode) \\\n  File "E:\\web2py_src\\web2py\\gluon\\template.py", line 149, in output\n    return \'\'.join(output_aux(node, blocks) for node in self.nodes)\n  File "E:\\web2py_src\\web2py\\gluon\\template.py", line 149, in <genexpr>\n    return \'\'.join(output_aux(node, blocks) for node in self.nodes)\n  File "E:\\web2py_src\\web2py\\gluon\\template.py", line 77, in output_aux\n    if isinstance(node, BlockNode) \\\n  File "E:\\web2py_src\\web2py\\gluon\\template.py", line 149, in output\n    return \'\'.join(output_aux(node, blocks) for node in self.nodes)\n  File "E:\\web2py_src\\web2py\\gluon\\template.py", line 149, in <genexpr>\n    return \'\'.join(output_aux(node, blocks) for node in self.nodes)\n  File "E:\\web2py_src\\web2py\\gluon\\template.py", line 77, in output_aux\n    if isinstance(node, BlockNode) \\\n  File "E:\\web2py_src\\web2py\\gluon\\template.py", line 149, in output\n    return \'\'.join(output_aux(node, blocks) for node in self.nodes)\n  File "E:\\web2py_src\\web2py\\gluon\\template.py", line 149, in <genexpr>\n    return \'\'.join(output_aux(node, blocks) for node in self.nodes)\n  File "E:\\web2py_src\\web2py\\gluon\\template.py", line 77, in output_aux\n    if isinstance(node, BlockNode) \\\n  File "E:\\web2py_src\\web2py\\gluon\\template.py", line 149, in output\n    return \'\'.join(output_aux(node, blocks) for node in self.nodes)\n  File "E:\\web2py_src\\web2py\\gluon\\template.py", line 149, in <genexpr>\n    return \'\'.join(output_aux(node, blocks) for node in self.nodes)\n  File "E:\\web2py_src\\web2py\\gluon\\template.py", line 77, in output_aux\n    if isinstance(node, BlockNode) \\\n  File "E:\\web2py_src\\web2py\\gluon\\template.py", line 149, in output\n    return \'\'.join(output_aux(node, blocks) for node in self.nodes)\n  File "E:\\web2py_src\\web2py\\gluon\\template.py", line 149, in <genexpr>\n    return \'\'.join(output_aux(node, blocks) for node in self.nodes)\n  File "E:\\web2py_src\\web2py\\gluon\\template.py", line 77, in output_aux\n    if isinstance(node, BlockNode) \\\n  File "E:\\web2py_src\\web2py\\gluon\\template.py", line 149, in output\n    return \'\'.join(output_aux(node, blocks) for node in self.nodes)\n  File "E:\\web2py_src\\web2py\\gluon\\template.py", line 149, in <genexpr>\n    return \'\'.join(output_aux(node, blocks) for node in self.nodes)\n  File "E:\\web2py_src\\web2py\\gluon\\template.py", line 77, in output_aux\n    if isinstance(node, BlockNode) \\\n  File "E:\\web2py_src\\web2py\\gluon\\template.py", line 149, in output\n    return \'\'.join(output_aux(node, blocks) for node in self.nodes)\n  File "E:\\web2py_src\\web2py\\gluon\\template.py", line 149, in <genexpr>\n    return \'\'.join(output_aux(node, blocks) for node in self.nodes)\n  File "E:\\web2py_src\\web2py\\gluon\\template.py", line 77, in output_aux\n    if isinstance(node, BlockNode) \\\n  File "E:\\web2py_src\\web2py\\gluon\\template.py", line 149, in output\n    return \'\'.join(output_aux(node, blocks) for node in self.nodes)\n  File "E:\\web2py_src\\web2py\\gluon\\template.py", line 149, in <genexpr>\n    return \'\'.join(output_aux(node, blocks) for node in self.nodes)\n  File "E:\\web2py_src\\web2py\\gluon\\template.py", line 77, in output_aux\n    if isinstance(node, BlockNode) \\\n  File "E:\\web2py_src\\web2py\\gluon\\template.py", line 149, in output\n    return \'\'.join(output_aux(node, blocks) for node in self.nodes)\n  File "E:\\web2py_src\\web2py\\gluon\\template.py", line 149, in <genexpr>\n    return \'\'.join(output_aux(node, blocks) for node in self.nodes)\n  File "E:\\web2py_src\\web2py\\gluon\\template.py", line 77, in output_aux\n    if isinstance(node, BlockNode) \\\n  File "E:\\web2py_src\\web2py\\gluon\\template.py", line 149, in output\n    return \'\'.join(output_aux(node, blocks) for node in self.nodes)\n  File "E:\\web2py_src\\web2py\\gluon\\template.py", line 149, in <genexpr>\n    return \'\'.join(output_aux(node, blocks) for node in self.nodes)\n  File "E:\\web2py_src\\web2py\\gluon\\template.py", line 77, in output_aux\n    if isinstance(node, BlockNode) \\\n  File "E:\\web2py_src\\web2py\\gluon\\template.py", line 149, in output\n    return \'\'.join(output_aux(node, blocks) for node in self.nodes)\n  File "E:\\web2py_src\\web2py\\gluon\\template.py", line 149, in <genexpr>\n    return \'\'.join(output_aux(node, blocks) for node in self.nodes)\n  File "E:\\web2py_src\\web2py\\gluon\\template.py", line 77, in output_aux\n    if isinstance(node, BlockNode) \\\n  File "E:\\web2py_src\\web2py\\gluon\\template.py", line 149, in output\n    return \'\'.join(output_aux(node, blocks) for node in self.nodes)\n  File "E:\\web2py_src\\web2py\\gluon\\template.py", line 149, in <genexpr>\n    return \'\'.join(output_aux(node, blocks) for node in self.nodes)\n  File "E:\\web2py_src\\web2py\\gluon\\template.py", line 77, in output_aux\n    if isinstance(node, BlockNode) \\\n  File "E:\\web2py_src\\web2py\\gluon\\template.py", line 149, in output\n    return \'\'.join(output_aux(node, blocks) for node in self.nodes)\n  File "E:\\web2py_src\\web2py\\gluon\\template.py", line 149, in <genexpr>\n    return \'\'.join(output_aux(node, blocks) for node in self.nodes)\n  File "E:\\web2py_src\\web2py\\gluon\\template.py", line 77, in output_aux\n    if isinstance(node, BlockNode) \\\n  File "E:\\web2py_src\\web2py\\gluon\\template.py", line 149, in output\n    return \'\'.join(output_aux(node, blocks) for node in self.nodes)\n  File "E:\\web2py_src\\web2py\\gluon\\template.py", line 149, in <genexpr>\n    return \'\'.join(output_aux(node, blocks) for node in self.nodes)\n  File "E:\\web2py_src\\web2py\\gluon\\template.py", line 77, in output_aux\n    if isinstance(node, BlockNode) \\\n  File "E:\\web2py_src\\web2py\\gluon\\template.py", line 149, in output\n    return \'\'.join(output_aux(node, blocks) for node in self.nodes)\n  File "E:\\web2py_src\\web2py\\gluon\\template.py", line 149, in <genexpr>\n    return \'\'.join(output_aux(node, blocks) for node in self.nodes)\n  File "E:\\web2py_src\\web2py\\gluon\\template.py", line 77, in output_aux\n    if isinstance(node, BlockNode) \\\n  File "E:\\web2py_src\\web2py\\gluon\\template.py", line 149, in output\n    return \'\'.join(output_aux(node, blocks) for node in self.nodes)\n  File "E:\\web2py_src\\web2py\\gluon\\template.py", line 149, in <genexpr>\n    return \'\'.join(output_aux(node, blocks) for node in self.nodes)\n  File "E:\\web2py_src\\web2py\\gluon\\template.py", line 77, in output_aux\n    if isinstance(node, BlockNode) \\\n  File "E:\\web2py_src\\web2py\\gluon\\template.py", line 149, in output\n    return \'\'.join(output_aux(node, blocks) for node in self.nodes)\n  File "E:\\web2py_src\\web2py\\gluon\\template.py", line 149, in <genexpr>\n    return \'\'.join(output_aux(node, blocks) for node in self.nodes)\n  File "E:\\web2py_src\\web2py\\gluon\\template.py", line 77, in output_aux\n    if isinstance(node, BlockNode) \\\n  File "E:\\web2py_src\\web2py\\gluon\\template.py", line 149, in output\n    return \'\'.join(output_aux(node, blocks) for node in self.nodes)\n  File "E:\\web2py_src\\web2py\\gluon\\template.py", line 149, in <genexpr>\n    return \'\'.join(output_aux(node, blocks) for node in self.nodes)\n  File "E:\\web2py_src\\web2py\\gluon\\template.py", line 77, in output_aux\n    if isinstance(node, BlockNode) \\\n  File "E:\\web2py_src\\web2py\\gluon\\template.py", line 149, in output\n    return \'\'.join(output_aux(node, blocks) for node in self.nodes)\n  File "E:\\web2py_src\\web2py\\gluon\\template.py", line 149, in <genexpr>\n    return \'\'.join(output_aux(node, blocks) for node in self.nodes)\n  File "E:\\web2py_src\\web2py\\gluon\\template.py", line 77, in output_aux\n    if isinstance(node, BlockNode) \\\n  File "E:\\web2py_src\\web2py\\gluon\\template.py", line 149, in output\n    return \'\'.join(output_aux(node, blocks) for node in self.nodes)\n  File "E:\\web2py_src\\web2py\\gluon\\template.py", line 149, in <genexpr>\n    return \'\'.join(output_aux(node, blocks) for node in self.nodes)\n  File "E:\\web2py_src\\web2py\\gluon\\template.py", line 77, in output_aux\n    if isinstance(node, BlockNode) \\\n  File "E:\\web2py_src\\web2py\\gluon\\template.py", line 149, in output\n    return \'\'.join(output_aux(node, blocks) for node in self.nodes)\n  File "E:\\web2py_src\\web2py\\gluon\\template.py", line 149, in <genexpr>\n    return \'\'.join(output_aux(node, blocks) for node in self.nodes)\n  File "E:\\web2py_src\\web2py\\gluon\\template.py", line 77, in output_aux\n    if isinstance(node, BlockNode) \\\n  File "E:\\web2py_src\\web2py\\gluon\\template.py", line 149, in output\n    return \'\'.join(output_aux(node, blocks) for node in self.nodes)\n  File "E:\\web2py_src\\web2py\\gluon\\template.py", line 149, in <genexpr>\n    return \'\'.join(output_aux(node, blocks) for node in self.nodes)\n  File "E:\\web2py_src\\web2py\\gluon\\template.py", line 77, in output_aux\n    if isinstance(node, BlockNode) \\\n  File "E:\\web2py_src\\web2py\\gluon\\template.py", line 149, in output\n    return \'\'.join(output_aux(node, blocks) for node in self.nodes)\n  File "E:\\web2py_src\\web2py\\gluon\\template.py", line 149, in <genexpr>\n    return \'\'.join(output_aux(node, blocks) for node in self.nodes)\n  File "E:\\web2py_src\\web2py\\gluon\\template.py", line 77, in output_aux\n    if isinstance(node, BlockNode) \\\n  File "E:\\web2py_src\\web2py\\gluon\\template.py", line 149, in output\n    return \'\'.join(output_aux(node, blocks) for node in self.nodes)\n  File "E:\\web2py_src\\web2py\\gluon\\template.py", line 149, in <genexpr>\n    return \'\'.join(output_aux(node, blocks) for node in self.nodes)\n  File "E:\\web2py_src\\web2py\\gluon\\template.py", line 77, in output_aux\n    if isinstance(node, BlockNode) \\\n  File "E:\\web2py_src\\web2py\\gluon\\template.py", line 149, in output\n    return \'\'.join(output_aux(node, blocks) for node in self.nodes)\n  File "E:\\web2py_src\\web2py\\gluon\\template.py", line 149, in <genexpr>\n    return \'\'.join(output_aux(node, blocks) for node in self.nodes)\n  File "E:\\web2py_src\\web2py\\gluon\\template.py", line 77, in output_aux\n    if isinstance(node, BlockNode) \\\n  File "E:\\web2py_src\\web2py\\gluon\\template.py", line 149, in output\n    return \'\'.join(output_aux(node, blocks) for node in self.nodes)\n  File "E:\\web2py_src\\web2py\\gluon\\template.py", line 149, in <genexpr>\n    return \'\'.join(output_aux(node, blocks) for node in self.nodes)\n  File "E:\\web2py_src\\web2py\\gluon\\template.py", line 77, in output_aux\n    if isinstance(node, BlockNode) \\\n  File "E:\\web2py_src\\web2py\\gluon\\template.py", line 149, in output\n    return \'\'.join(output_aux(node, blocks) for node in self.nodes)\n  File "E:\\web2py_src\\web2py\\gluon\\template.py", line 149, in <genexpr>\n    return \'\'.join(output_aux(node, blocks) for node in self.nodes)\n  File "E:\\web2py_src\\web2py\\gluon\\template.py", line 77, in output_aux\n    if isinstance(node, BlockNode) \\\n  File "E:\\web2py_src\\web2py\\gluon\\template.py", line 149, in output\n    return \'\'.join(output_aux(node, blocks) for node in self.nodes)\n  File "E:\\web2py_src\\web2py\\gluon\\template.py", line 149, in <genexpr>\n    return \'\'.join(output_aux(node, blocks) for node in self.nodes)\n  File "E:\\web2py_src\\web2py\\gluon\\template.py", line 77, in output_aux\n    if isinstance(node, BlockNode) \\\n  File "E:\\web2py_src\\web2py\\gluon\\template.py", line 149, in output\n    return \'\'.join(output_aux(node, blocks) for node in self.nodes)\n  File "E:\\web2py_src\\web2py\\gluon\\template.py", line 149, in <genexpr>\n    return \'\'.join(output_aux(node, blocks) for node in self.nodes)\n  File "E:\\web2py_src\\web2py\\gluon\\template.py", line 77, in output_aux\n    if isinstance(node, BlockNode) \\\n  File "E:\\web2py_src\\web2py\\gluon\\template.py", line 149, in output\n    return \'\'.join(output_aux(node, blocks) for node in self.nodes)\n  File "E:\\web2py_src\\web2py\\gluon\\template.py", line 149, in <genexpr>\n    return \'\'.join(output_aux(node, blocks) for node in self.nodes)\n  File "E:\\web2py_src\\web2py\\gluon\\template.py", line 77, in output_aux\n    if isinstance(node, BlockNode) \\\n  File "E:\\web2py_src\\web2py\\gluon\\template.py", line 149, in output\n    return \'\'.join(output_aux(node, blocks) for node in self.nodes)\n  File "E:\\web2py_src\\web2py\\gluon\\template.py", line 149, in <genexpr>\n    return \'\'.join(output_aux(node, blocks) for node in self.nodes)\n  File "E:\\web2py_src\\web2py\\gluon\\template.py", line 77, in output_aux\n    if isinstance(node, BlockNode) \\\n  File "E:\\web2py_src\\web2py\\gluon\\template.py", line 149, in output\n    return \'\'.join(output_aux(node, blocks) for node in self.nodes)\n  File "E:\\web2py_src\\web2py\\gluon\\template.py", line 149, in <genexpr>\n    return \'\'.join(output_aux(node, blocks) for node in self.nodes)\n  File "E:\\web2py_src\\web2py\\gluon\\template.py", line 77, in output_aux\n    if isinstance(node, BlockNode) \\\n  File "E:\\web2py_src\\web2py\\gluon\\template.py", line 149, in output\n    return \'\'.join(output_aux(node, blocks) for node in self.nodes)\n  File "E:\\web2py_src\\web2py\\gluon\\template.py", line 149, in <genexpr>\n    return \'\'.join(output_aux(node, blocks) for node in self.nodes)\n  File "E:\\web2py_src\\web2py\\gluon\\template.py", line 77, in output_aux\n    if isinstance(node, BlockNode) \\\n  File "E:\\web2py_src\\web2py\\gluon\\template.py", line 149, in output\n    return \'\'.join(output_aux(node, blocks) for node in self.nodes)\n  File "E:\\web2py_src\\web2py\\gluon\\template.py", line 149, in <genexpr>\n    return \'\'.join(output_aux(node, blocks) for node in self.nodes)\n  File "E:\\web2py_src\\web2py\\gluon\\template.py", line 77, in output_aux\n    if isinstance(node, BlockNode) \\\n  File "E:\\web2py_src\\web2py\\gluon\\template.py", line 149, in output\n    return \'\'.join(output_aux(node, blocks) for node in self.nodes)\n  File "E:\\web2py_src\\web2py\\gluon\\template.py", line 149, in <genexpr>\n    return \'\'.join(output_aux(node, blocks) for node in self.nodes)\n  File "E:\\web2py_src\\web2py\\gluon\\template.py", line 77, in output_aux\n    if isinstance(node, BlockNode) \\\n  File "E:\\web2py_src\\web2py\\gluon\\template.py", line 149, in output\n    return \'\'.join(output_aux(node, blocks) for node in self.nodes)\n  File "E:\\web2py_src\\web2py\\gluon\\template.py", line 149, in <genexpr>\n    return \'\'.join(output_aux(node, blocks) for node in self.nodes)\n  File "E:\\web2py_src\\web2py\\gluon\\template.py", line 77, in output_aux\n    if isinstance(node, BlockNode) \\\n  File "E:\\web2py_src\\web2py\\gluon\\template.py", line 149, in output\n    return \'\'.join(output_aux(node, blocks) for node in self.nodes)\n  File "E:\\web2py_src\\web2py\\gluon\\template.py", line 149, in <genexpr>\n    return \'\'.join(output_aux(node, blocks) for node in self.nodes)\n  File "E:\\web2py_src\\web2py\\gluon\\template.py", line 77, in output_aux\n    if isinstance(node, BlockNode) \\\n  File "E:\\web2py_src\\web2py\\gluon\\template.py", line 149, in output\n    return \'\'.join(output_aux(node, blocks) for node in self.nodes)\n  File "E:\\web2py_src\\web2py\\gluon\\template.py", line 149, in <genexpr>\n    return \'\'.join(output_aux(node, blocks) for node in self.nodes)\n  File "E:\\web2py_src\\web2py\\gluon\\template.py", line 77, in output_aux\n    if isinstance(node, BlockNode) \\\n  File "E:\\web2py_src\\web2py\\gluon\\template.py", line 149, in output\n    return \'\'.join(output_aux(node, blocks) for node in self.nodes)\n  File "E:\\web2py_src\\web2py\\gluon\\template.py", line 149, in <genexpr>\n    return \'\'.join(output_aux(node, blocks) for node in self.nodes)\n  File "E:\\web2py_src\\web2py\\gluon\\template.py", line 77, in output_aux\n    if isinstance(node, BlockNode) \\\n  File "E:\\web2py_src\\web2py\\gluon\\template.py", line 149, in output\n    return \'\'.join(output_aux(node, blocks) for node in self.nodes)\n  File "E:\\web2py_src\\web2py\\gluon\\template.py", line 149, in <genexpr>\n    return \'\'.join(output_aux(node, blocks) for node in self.nodes)\n  File "E:\\web2py_src\\web2py\\gluon\\template.py", line 77, in output_aux\n    if isinstance(node, BlockNode) \\\n  File "E:\\web2py_src\\web2py\\gluon\\template.py", line 149, in output\n    return \'\'.join(output_aux(node, blocks) for node in self.nodes)\n  File "E:\\web2py_src\\web2py\\gluon\\template.py", line 149, in <genexpr>\n    return \'\'.join(output_aux(node, blocks) for node in self.nodes)\n  File "E:\\web2py_src\\web2py\\gluon\\template.py", line 77, in output_aux\n    if isinstance(node, BlockNode) \\\n  File "E:\\web2py_src\\web2py\\gluon\\template.py", line 149, in output\n    return \'\'.join(output_aux(node, blocks) for node in self.nodes)\n  File "E:\\web2py_src\\web2py\\gluon\\template.py", line 149, in <genexpr>\n    return \'\'.join(output_aux(node, blocks) for node in self.nodes)\n  File "E:\\web2py_src\\web2py\\gluon\\template.py", line 77, in output_aux\n    if isinstance(node, BlockNode) \\\n  File "E:\\web2py_src\\web2py\\gluon\\template.py", line 149, in output\n    return \'\'.join(output_aux(node, blocks) for node in self.nodes)\n  File "E:\\web2py_src\\web2py\\gluon\\template.py", line 149, in <genexpr>\n    return \'\'.join(output_aux(node, blocks) for node in self.nodes)\n  File "E:\\web2py_src\\web2py\\gluon\\template.py", line 77, in output_aux\n    if isinstance(node, BlockNode) \\\n  File "E:\\web2py_src\\web2py\\gluon\\template.py", line 149, in output\n    return \'\'.join(output_aux(node, blocks) for node in self.nodes)\n  File "E:\\web2py_src\\web2py\\gluon\\template.py", line 149, in <genexpr>\n    return \'\'.join(output_aux(node, blocks) for node in self.nodes)\n  File "E:\\web2py_src\\web2py\\gluon\\template.py", line 77, in output_aux\n    if isinstance(node, BlockNode) \\\n  File "E:\\web2py_src\\web2py\\gluon\\template.py", line 149, in output\n    return \'\'.join(output_aux(node, blocks) for node in self.nodes)\n  File "E:\\web2py_src\\web2py\\gluon\\template.py", line 149, in <genexpr>\n    return \'\'.join(output_aux(node, blocks) for node in self.nodes)\n  File "E:\\web2py_src\\web2py\\gluon\\template.py", line 77, in output_aux\n    if isinstance(node, BlockNode) \\\n  File "E:\\web2py_src\\web2py\\gluon\\template.py", line 149, in output\n    return \'\'.join(output_aux(node, blocks) for node in self.nodes)\n  File "E:\\web2py_src\\web2py\\gluon\\template.py", line 149, in <genexpr>\n    return \'\'.join(output_aux(node, blocks) for node in self.nodes)\n  File "E:\\web2py_src\\web2py\\gluon\\template.py", line 77, in output_aux\n    if isinstance(node, BlockNode) \\\n  File "E:\\web2py_src\\web2py\\gluon\\template.py", line 149, in output\n    return \'\'.join(output_aux(node, blocks) for node in self.nodes)\n  File "E:\\web2py_src\\web2py\\gluon\\template.py", line 149, in <genexpr>\n    return \'\'.join(output_aux(node, blocks) for node in self.nodes)\n  File "E:\\web2py_src\\web2py\\gluon\\template.py", line 77, in output_aux\n    if isinstance(node, BlockNode) \\\n  File "E:\\web2py_src\\web2py\\gluon\\template.py", line 149, in output\n    return \'\'.join(output_aux(node, blocks) for node in self.nodes)\n  File "E:\\web2py_src\\web2py\\gluon\\template.py", line 149, in <genexpr>\n    return \'\'.join(output_aux(node, blocks) for node in self.nodes)\n  File "E:\\web2py_src\\web2py\\gluon\\template.py", line 77, in output_aux\n    if isinstance(node, BlockNode) \\\n  File "E:\\web2py_src\\web2py\\gluon\\template.py", line 149, in output\n    return \'\'.join(output_aux(node, blocks) for node in self.nodes)\n  File "E:\\web2py_src\\web2py\\gluon\\template.py", line 149, in <genexpr>\n    return \'\'.join(output_aux(node, blocks) for node in self.nodes)\n  File "E:\\web2py_src\\web2py\\gluon\\template.py", line 77, in output_aux\n    if isinstance(node, BlockNode) \\\n  File "E:\\web2py_src\\web2py\\gluon\\template.py", line 149, in output\n    return \'\'.join(output_aux(node, blocks) for node in self.nodes)\n  File "E:\\web2py_src\\web2py\\gluon\\template.py", line 149, in <genexpr>\n    return \'\'.join(output_aux(node, blocks) for node in self.nodes)\n  File "E:\\web2py_src\\web2py\\gluon\\template.py", line 77, in output_aux\n    if isinstance(node, BlockNode) \\\n  File "E:\\web2py_src\\web2py\\gluon\\template.py", line 149, in output\n    return \'\'.join(output_aux(node, blocks) for node in self.nodes)\n  File "E:\\web2py_src\\web2py\\gluon\\template.py", line 149, in <genexpr>\n    return \'\'.join(output_aux(node, blocks) for node in self.nodes)\n  File "E:\\web2py_src\\web2py\\gluon\\template.py", line 77, in output_aux\n    if isinstance(node, BlockNode) \\\n  File "E:\\web2py_src\\web2py\\gluon\\template.py", line 149, in output\n    return \'\'.join(output_aux(node, blocks) for node in self.nodes)\n  File "E:\\web2py_src\\web2py\\gluon\\template.py", line 149, in <genexpr>\n    return \'\'.join(output_aux(node, blocks) for node in self.nodes)\n  File "E:\\web2py_src\\web2py\\gluon\\template.py", line 77, in output_aux\n    if isinstance(node, BlockNode) \\\n  File "E:\\web2py_src\\web2py\\gluon\\template.py", line 149, in output\n    return \'\'.join(output_aux(node, blocks) for node in self.nodes)\n  File "E:\\web2py_src\\web2py\\gluon\\template.py", line 149, in <genexpr>\n    return \'\'.join(output_aux(node, blocks) for node in self.nodes)\n  File "E:\\web2py_src\\web2py\\gluon\\template.py", line 77, in output_aux\n    if isinstance(node, BlockNode) \\\n  File "E:\\web2py_src\\web2py\\gluon\\template.py", line 149, in output\n    return \'\'.join(output_aux(node, blocks) for node in self.nodes)\n  File "E:\\web2py_src\\web2py\\gluon\\template.py", line 149, in <genexpr>\n    return \'\'.join(output_aux(node, blocks) for node in self.nodes)\n  File "E:\\web2py_src\\web2py\\gluon\\template.py", line 77, in output_aux\n    if isinstance(node, BlockNode) \\\n  File "E:\\web2py_src\\web2py\\gluon\\template.py", line 149, in output\n    return \'\'.join(output_aux(node, blocks) for node in self.nodes)\n  File "E:\\web2py_src\\web2py\\gluon\\template.py", line 149, in <genexpr>\n    return \'\'.join(output_aux(node, blocks) for node in self.nodes)\n  File "E:\\web2py_src\\web2py\\gluon\\template.py", line 77, in output_aux\n    if isinstance(node, BlockNode) \\\n  File "E:\\web2py_src\\web2py\\gluon\\template.py", line 149, in output\n    return \'\'.join(output_aux(node, blocks) for node in self.nodes)\n  File "E:\\web2py_src\\web2py\\gluon\\template.py", line 149, in <genexpr>\n    return \'\'.join(output_aux(node, blocks) for node in self.nodes)\n  File "E:\\web2py_src\\web2py\\gluon\\template.py", line 77, in output_aux\n    if isinstance(node, BlockNode) \\\n  File "E:\\web2py_src\\web2py\\gluon\\template.py", line 149, in output\n    return \'\'.join(output_aux(node, blocks) for node in self.nodes)\n  File "E:\\web2py_src\\web2py\\gluon\\template.py", line 149, in <genexpr>\n    return \'\'.join(output_aux(node, blocks) for node in self.nodes)\n  File "E:\\web2py_src\\web2py\\gluon\\template.py", line 77, in output_aux\n    if isinstance(node, BlockNode) \\\n  File "E:\\web2py_src\\web2py\\gluon\\template.py", line 149, in output\n    return \'\'.join(output_aux(node, blocks) for node in self.nodes)\n  File "E:\\web2py_src\\web2py\\gluon\\template.py", line 149, in <genexpr>\n    return \'\'.join(output_aux(node, blocks) for node in self.nodes)\n  File "E:\\web2py_src\\web2py\\gluon\\template.py", line 77, in output_aux\n    if isinstance(node, BlockNode) \\\n  File "E:\\web2py_src\\web2py\\gluon\\template.py", line 149, in output\n    return \'\'.join(output_aux(node, blocks) for node in self.nodes)\n  File "E:\\web2py_src\\web2py\\gluon\\template.py", line 149, in <genexpr>\n    return \'\'.join(output_aux(node, blocks) for node in self.nodes)\n  File "E:\\web2py_src\\web2py\\gluon\\template.py", line 77, in output_aux\n    if isinstance(node, BlockNode) \\\n  File "E:\\web2py_src\\web2py\\gluon\\template.py", line 149, in output\n    return \'\'.join(output_aux(node, blocks) for node in self.nodes)\n  File "E:\\web2py_src\\web2py\\gluon\\template.py", line 149, in <genexpr>\n    return \'\'.join(output_aux(node, blocks) for node in self.nodes)\n  File "E:\\web2py_src\\web2py\\gluon\\template.py", line 77, in output_aux\n    if isinstance(node, BlockNode) \\\n  File "E:\\web2py_src\\web2py\\gluon\\template.py", line 149, in output\n    return \'\'.join(output_aux(node, blocks) for node in self.nodes)\n  File "E:\\web2py_src\\web2py\\gluon\\template.py", line 149, in <genexpr>\n    return \'\'.join(output_aux(node, blocks) for node in self.nodes)\n  File "E:\\web2py_src\\web2py\\gluon\\template.py", line 77, in output_aux\n    if isinstance(node, BlockNode) \\\n  File "E:\\web2py_src\\web2py\\gluon\\template.py", line 149, in output\n    return \'\'.join(output_aux(node, blocks) for node in self.nodes)\n  File "E:\\web2py_src\\web2py\\gluon\\template.py", line 149, in <genexpr>\n    return \'\'.join(output_aux(node, blocks) for node in self.nodes)\n  File "E:\\web2py_src\\web2py\\gluon\\template.py", line 77, in output_aux\n    if isinstance(node, BlockNode) \\\n  File "E:\\web2py_src\\web2py\\gluon\\template.py", line 149, in output\n    return \'\'.join(output_aux(node, blocks) for node in self.nodes)\n  File "E:\\web2py_src\\web2py\\gluon\\template.py", line 149, in <genexpr>\n    return \'\'.join(output_aux(node, blocks) for node in self.nodes)\n  File "E:\\web2py_src\\web2py\\gluon\\template.py", line 77, in output_aux\n    if isinstance(node, BlockNode) \\\n  File "E:\\web2py_src\\web2py\\gluon\\template.py", line 149, in output\n    return \'\'.join(output_aux(node, blocks) for node in self.nodes)\n  File "E:\\web2py_src\\web2py\\gluon\\template.py", line 149, in <genexpr>\n    return \'\'.join(output_aux(node, blocks) for node in self.nodes)\n  File "E:\\web2py_src\\web2py\\gluon\\template.py", line 77, in output_aux\n    if isinstance(node, BlockNode) \\\n  File "E:\\web2py_src\\web2py\\gluon\\template.py", line 149, in output\n    return \'\'.join(output_aux(node, blocks) for node in self.nodes)\n  File "E:\\web2py_src\\web2py\\gluon\\template.py", line 149, in <genexpr>\n    return \'\'.join(output_aux(node, blocks) for node in self.nodes)\n  File "E:\\web2py_src\\web2py\\gluon\\template.py", line 77, in output_aux\n    if isinstance(node, BlockNode) \\\n  File "E:\\web2py_src\\web2py\\gluon\\template.py", line 149, in output\n    return \'\'.join(output_aux(node, blocks) for node in self.nodes)\n  File "E:\\web2py_src\\web2py\\gluon\\template.py", line 149, in <genexpr>\n    return \'\'.join(output_aux(node, blocks) for node in self.nodes)\n  File "E:\\web2py_src\\web2py\\gluon\\template.py", line 77, in output_aux\n    if isinstance(node, BlockNode) \\\n  File "E:\\web2py_src\\web2py\\gluon\\template.py", line 149, in output\n    return \'\'.join(output_aux(node, blocks) for node in self.nodes)\n  File "E:\\web2py_src\\web2py\\gluon\\template.py", line 149, in <genexpr>\n    return \'\'.join(output_aux(node, blocks) for node in self.nodes)\n  File "E:\\web2py_src\\web2py\\gluon\\template.py", line 77, in output_aux\n    if isinstance(node, BlockNode) \\\n  File "E:\\web2py_src\\web2py\\gluon\\template.py", line 149, in output\n    return \'\'.join(output_aux(node, blocks) for node in self.nodes)\n  File "E:\\web2py_src\\web2py\\gluon\\template.py", line 149, in <genexpr>\n    return \'\'.join(output_aux(node, blocks) for node in self.nodes)\n  File "E:\\web2py_src\\web2py\\gluon\\template.py", line 77, in output_aux\n    if isinstance(node, BlockNode) \\\n  File "E:\\web2py_src\\web2py\\gluon\\template.py", line 149, in output\n    return \'\'.join(output_aux(node, blocks) for node in self.nodes)\n  File "E:\\web2py_src\\web2py\\gluon\\template.py", line 149, in <genexpr>\n    return \'\'.join(output_aux(node, blocks) for node in self.nodes)\n  File "E:\\web2py_src\\web2py\\gluon\\template.py", line 77, in output_aux\n    if isinstance(node, BlockNode) \\\n  File "E:\\web2py_src\\web2py\\gluon\\template.py", line 149, in output\n    return \'\'.join(output_aux(node, blocks) for node in self.nodes)\n  File "E:\\web2py_src\\web2py\\gluon\\template.py", line 149, in <genexpr>\n    return \'\'.join(output_aux(node, blocks) for node in self.nodes)\n  File "E:\\web2py_src\\web2py\\gluon\\template.py", line 77, in output_aux\n    if isinstance(node, BlockNode) \\\n  File "E:\\web2py_src\\web2py\\gluon\\template.py", line 149, in output\n    return \'\'.join(output_aux(node, blocks) for node in self.nodes)\n  File "E:\\web2py_src\\web2py\\gluon\\template.py", line 149, in <genexpr>\n    return \'\'.join(output_aux(node, blocks) for node in self.nodes)\n  File "E:\\web2py_src\\web2py\\gluon\\template.py", line 77, in output_aux\n    if isinstance(node, BlockNode) \\\n  File "E:\\web2py_src\\web2py\\gluon\\template.py", line 149, in output\n    return \'\'.join(output_aux(node, blocks) for node in self.nodes)\n  File "E:\\web2py_src\\web2py\\gluon\\template.py", line 149, in <genexpr>\n    return \'\'.join(output_aux(node, blocks) for node in self.nodes)\n  File "E:\\web2py_src\\web2py\\gluon\\template.py", line 77, in output_aux\n    if isinstance(node, BlockNode) \\\n  File "E:\\web2py_src\\web2py\\gluon\\template.py", line 149, in output\n    return \'\'.join(output_aux(node, blocks) for node in self.nodes)\n  File "E:\\web2py_src\\web2py\\gluon\\template.py", line 149, in <genexpr>\n    return \'\'.join(output_aux(node, blocks) for node in self.nodes)\n  File "E:\\web2py_src\\web2py\\gluon\\template.py", line 77, in output_aux\n    if isinstance(node, BlockNode) \\\n  File "E:\\web2py_src\\web2py\\gluon\\template.py", line 149, in output\n    return \'\'.join(output_aux(node, blocks) for node in self.nodes)\n  File "E:\\web2py_src\\web2py\\gluon\\template.py", line 149, in <genexpr>\n    return \'\'.join(output_aux(node, blocks) for node in self.nodes)\n  File "E:\\web2py_src\\web2py\\gluon\\template.py", line 77, in output_aux\n    if isinstance(node, BlockNode) \\\n  File "E:\\web2py_src\\web2py\\gluon\\template.py", line 149, in output\n    return \'\'.join(output_aux(node, blocks) for node in self.nodes)\n  File "E:\\web2py_src\\web2py\\gluon\\template.py", line 149, in <genexpr>\n    return \'\'.join(output_aux(node, blocks) for node in self.nodes)\n  File "E:\\web2py_src\\web2py\\gluon\\template.py", line 77, in output_aux\n    if isinstance(node, BlockNode) \\\n  File "E:\\web2py_src\\web2py\\gluon\\template.py", line 149, in output\n    return \'\'.join(output_aux(node, blocks) for node in self.nodes)\n  File "E:\\web2py_src\\web2py\\gluon\\template.py", line 149, in <genexpr>\n    return \'\'.join(output_aux(node, blocks) for node in self.nodes)\n  File "E:\\web2py_src\\web2py\\gluon\\template.py", line 77, in output_aux\n    if isinstance(node, BlockNode) \\\n  File "E:\\web2py_src\\web2py\\gluon\\template.py", line 149, in output\n    return \'\'.join(output_aux(node, blocks) for node in self.nodes)\n  File "E:\\web2py_src\\web2py\\gluon\\template.py", line 149, in <genexpr>\n    return \'\'.join(output_aux(node, blocks) for node in self.nodes)\n  File "E:\\web2py_src\\web2py\\gluon\\template.py", line 77, in output_aux\n    if isinstance(node, BlockNode) \\\n  File "E:\\web2py_src\\web2py\\gluon\\template.py", line 149, in output\n    return \'\'.join(output_aux(node, blocks) for node in self.nodes)\n  File "E:\\web2py_src\\web2py\\gluon\\template.py", line 149, in <genexpr>\n    return \'\'.join(output_aux(node, blocks) for node in self.nodes)\n  File "E:\\web2py_src\\web2py\\gluon\\template.py", line 77, in output_aux\n    if isinstance(node, BlockNode) \\\n  File "E:\\web2py_src\\web2py\\gluon\\template.py", line 149, in output\n    return \'\'.join(output_aux(node, blocks) for node in self.nodes)\n  File "E:\\web2py_src\\web2py\\gluon\\template.py", line 149, in <genexpr>\n    return \'\'.join(output_aux(node, blocks) for node in self.nodes)\n  File "E:\\web2py_src\\web2py\\gluon\\template.py", line 77, in output_aux\n    if isinstance(node, BlockNode) \\\n  File "E:\\web2py_src\\web2py\\gluon\\template.py", line 149, in output\n    return \'\'.join(output_aux(node, blocks) for node in self.nodes)\n  File "E:\\web2py_src\\web2py\\gluon\\template.py", line 149, in <genexpr>\n    return \'\'.join(output_aux(node, blocks) for node in self.nodes)\n  File "E:\\web2py_src\\web2py\\gluon\\template.py", line 77, in output_aux\n    if isinstance(node, BlockNode) \\\n  File "E:\\web2py_src\\web2py\\gluon\\template.py", line 149, in output\n    return \'\'.join(output_aux(node, blocks) for node in self.nodes)\n  File "E:\\web2py_src\\web2py\\gluon\\template.py", line 149, in <genexpr>\n    return \'\'.join(output_aux(node, blocks) for node in self.nodes)\n  File "E:\\web2py_src\\web2py\\gluon\\template.py", line 77, in output_aux\n    if isinstance(node, BlockNode) \\\n  File "E:\\web2py_src\\web2py\\gluon\\template.py", line 149, in output\n    return \'\'.join(output_aux(node, blocks) for node in self.nodes)\n  File "E:\\web2py_src\\web2py\\gluon\\template.py", line 149, in <genexpr>\n    return \'\'.join(output_aux(node, blocks) for node in self.nodes)\n  File "E:\\web2py_src\\web2py\\gluon\\template.py", line 77, in output_aux\n    if isinstance(node, BlockNode) \\\n  File "E:\\web2py_src\\web2py\\gluon\\template.py", line 149, in output\n    return \'\'.join(output_aux(node, blocks) for node in self.nodes)\n  File "E:\\web2py_src\\web2py\\gluon\\template.py", line 149, in <genexpr>\n    return \'\'.join(output_aux(node, blocks) for node in self.nodes)\n  File "E:\\web2py_src\\web2py\\gluon\\template.py", line 77, in output_aux\n    if isinstance(node, BlockNode) \\\n  File "E:\\web2py_src\\web2py\\gluon\\template.py", line 149, in output\n    return \'\'.join(output_aux(node, blocks) for node in self.nodes)\n  File "E:\\web2py_src\\web2py\\gluon\\template.py", line 149, in <genexpr>\n    return \'\'.join(output_aux(node, blocks) for node in self.nodes)\n  File "E:\\web2py_src\\web2py\\gluon\\template.py", line 77, in output_aux\n    if isinstance(node, BlockNode) \\\n  File "E:\\web2py_src\\web2py\\gluon\\template.py", line 149, in output\n    return \'\'.join(output_aux(node, blocks) for node in self.nodes)\n  File "E:\\web2py_src\\web2py\\gluon\\template.py", line 149, in <genexpr>\n    return \'\'.join(output_aux(node, blocks) for node in self.nodes)\n  File "E:\\web2py_src\\web2py\\gluon\\template.py", line 77, in output_aux\n    if isinstance(node, BlockNode) \\\n  File "E:\\web2py_src\\web2py\\gluon\\template.py", line 149, in output\n    return \'\'.join(output_aux(node, blocks) for node in self.nodes)\n  File "E:\\web2py_src\\web2py\\gluon\\template.py", line 149, in <genexpr>\n    return \'\'.join(output_aux(node, blocks) for node in self.nodes)\n  File "E:\\web2py_src\\web2py\\gluon\\template.py", line 77, in output_aux\n    if isinstance(node, BlockNode) \\\n  File "E:\\web2py_src\\web2py\\gluon\\template.py", line 149, in output\n    return \'\'.join(output_aux(node, blocks) for node in self.nodes)\n  File "E:\\web2py_src\\web2py\\gluon\\template.py", line 149, in <genexpr>\n    return \'\'.join(output_aux(node, blocks) for node in self.nodes)\n  File "E:\\web2py_src\\web2py\\gluon\\template.py", line 77, in output_aux\n    if isinstance(node, BlockNode) \\\n  File "E:\\web2py_src\\web2py\\gluon\\template.py", line 149, in output\n    return \'\'.join(output_aux(node, blocks) for node in self.nodes)\n  File "E:\\web2py_src\\web2py\\gluon\\template.py", line 149, in <genexpr>\n    return \'\'.join(output_aux(node, blocks) for node in self.nodes)\n  File "E:\\web2py_src\\web2py\\gluon\\template.py", line 77, in output_aux\n    if isinstance(node, BlockNode) \\\n  File "E:\\web2py_src\\web2py\\gluon\\template.py", line 149, in output\n    return \'\'.join(output_aux(node, blocks) for node in self.nodes)\n  File "E:\\web2py_src\\web2py\\gluon\\template.py", line 149, in <genexpr>\n    return \'\'.join(output_aux(node, blocks) for node in self.nodes)\n  File "E:\\web2py_src\\web2py\\gluon\\template.py", line 77, in output_aux\n    if isinstance(node, BlockNode) \\\n  File "E:\\web2py_src\\web2py\\gluon\\template.py", line 149, in output\n    return \'\'.join(output_aux(node, blocks) for node in self.nodes)\n  File "E:\\web2py_src\\web2py\\gluon\\template.py", line 149, in <genexpr>\n    return \'\'.join(output_aux(node, blocks) for node in self.nodes)\n  File "E:\\web2py_src\\web2py\\gluon\\template.py", line 77, in output_aux\n    if isinstance(node, BlockNode) \\\n  File "E:\\web2py_src\\web2py\\gluon\\template.py", line 149, in output\n    return \'\'.join(output_aux(node, blocks) for node in self.nodes)\n  File "E:\\web2py_src\\web2py\\gluon\\template.py", line 149, in <genexpr>\n    return \'\'.join(output_aux(node, blocks) for node in self.nodes)\n  File "E:\\web2py_src\\web2py\\gluon\\template.py", line 77, in output_aux\n    if isinstance(node, BlockNode) \\\n  File "E:\\web2py_src\\web2py\\gluon\\template.py", line 149, in output\n    return \'\'.join(output_aux(node, blocks) for node in self.nodes)\n  File "E:\\web2py_src\\web2py\\gluon\\template.py", line 149, in <genexpr>\n    return \'\'.join(output_aux(node, blocks) for node in self.nodes)\n  File "E:\\web2py_src\\web2py\\gluon\\template.py", line 77, in output_aux\n    if isinstance(node, BlockNode) \\\n  File "E:\\web2py_src\\web2py\\gluon\\template.py", line 149, in output\n    return \'\'.join(output_aux(node, blocks) for node in self.nodes)\n  File "E:\\web2py_src\\web2py\\gluon\\template.py", line 149, in <genexpr>\n    return \'\'.join(output_aux(node, blocks) for node in self.nodes)\n  File "E:\\web2py_src\\web2py\\gluon\\template.py", line 77, in output_aux\n    if isinstance(node, BlockNode) \\\n  File "E:\\web2py_src\\web2py\\gluon\\template.py", line 149, in output\n    return \'\'.join(output_aux(node, blocks) for node in self.nodes)\n  File "E:\\web2py_src\\web2py\\gluon\\template.py", line 149, in <genexpr>\n    return \'\'.join(output_aux(node, blocks) for node in self.nodes)\n  File "E:\\web2py_src\\web2py\\gluon\\template.py", line 77, in output_aux\n    if isinstance(node, BlockNode) \\\n  File "E:\\web2py_src\\web2py\\gluon\\template.py", line 149, in output\n    return \'\'.join(output_aux(node, blocks) for node in self.nodes)\n  File "E:\\web2py_src\\web2py\\gluon\\template.py", line 149, in <genexpr>\n    return \'\'.join(output_aux(node, blocks) for node in self.nodes)\n  File "E:\\web2py_src\\web2py\\gluon\\template.py", line 77, in output_aux\n    if isinstance(node, BlockNode) \\\n  File "E:\\web2py_src\\web2py\\gluon\\template.py", line 149, in output\n    return \'\'.join(output_aux(node, blocks) for node in self.nodes)\n  File "E:\\web2py_src\\web2py\\gluon\\template.py", line 149, in <genexpr>\n    return \'\'.join(output_aux(node, blocks) for node in self.nodes)\n  File "E:\\web2py_src\\web2py\\gluon\\template.py", line 77, in output_aux\n    if isinstance(node, BlockNode) \\\n  File "E:\\web2py_src\\web2py\\gluon\\template.py", line 149, in output\n    return \'\'.join(output_aux(node, blocks) for node in self.nodes)\n  File "E:\\web2py_src\\web2py\\gluon\\template.py", line 149, in <genexpr>\n    return \'\'.join(output_aux(node, blocks) for node in self.nodes)\n  File "E:\\web2py_src\\web2py\\gluon\\template.py", line 77, in output_aux\n    if isinstance(node, BlockNode) \\\n  File "E:\\web2py_src\\web2py\\gluon\\template.py", line 149, in output\n    return \'\'.join(output_aux(node, blocks) for node in self.nodes)\n  File "E:\\web2py_src\\web2py\\gluon\\template.py", line 149, in <genexpr>\n    return \'\'.join(output_aux(node, blocks) for node in self.nodes)\n  File "E:\\web2py_src\\web2py\\gluon\\template.py", line 77, in output_aux\n    if isinstance(node, BlockNode) \\\n  File "E:\\web2py_src\\web2py\\gluon\\template.py", line 149, in output\n    return \'\'.join(output_aux(node, blocks) for node in self.nodes)\n  File "E:\\web2py_src\\web2py\\gluon\\template.py", line 149, in <genexpr>\n    return \'\'.join(output_aux(node, blocks) for node in self.nodes)\n  File "E:\\web2py_src\\web2py\\gluon\\template.py", line 77, in output_aux\n    if isinstance(node, BlockNode) \\\n  File "E:\\web2py_src\\web2py\\gluon\\template.py", line 149, in output\n    return \'\'.join(output_aux(node, blocks) for node in self.nodes)\n  File "E:\\web2py_src\\web2py\\gluon\\template.py", line 149, in <genexpr>\n    return \'\'.join(output_aux(node, blocks) for node in self.nodes)\n  File "E:\\web2py_src\\web2py\\gluon\\template.py", line 77, in output_aux\n    if isinstance(node, BlockNode) \\\n  File "E:\\web2py_src\\web2py\\gluon\\template.py", line 149, in output\n    return \'\'.join(output_aux(node, blocks) for node in self.nodes)\n  File "E:\\web2py_src\\web2py\\gluon\\template.py", line 149, in <genexpr>\n    return \'\'.join(output_aux(node, blocks) for node in self.nodes)\n  File "E:\\web2py_src\\web2py\\gluon\\template.py", line 77, in output_aux\n    if isinstance(node, BlockNode) \\\n  File "E:\\web2py_src\\web2py\\gluon\\template.py", line 149, in output\n    return \'\'.join(output_aux(node, blocks) for node in self.nodes)\n  File "E:\\web2py_src\\web2py\\gluon\\template.py", line 149, in <genexpr>\n    return \'\'.join(output_aux(node, blocks) for node in self.nodes)\n  File "E:\\web2py_src\\web2py\\gluon\\template.py", line 77, in output_aux\n    if isinstance(node, BlockNode) \\\n  File "E:\\web2py_src\\web2py\\gluon\\template.py", line 149, in output\n    return \'\'.join(output_aux(node, blocks) for node in self.nodes)\n  File "E:\\web2py_src\\web2py\\gluon\\template.py", line 149, in <genexpr>\n    return \'\'.join(output_aux(node, blocks) for node in self.nodes)\n  File "E:\\web2py_src\\web2py\\gluon\\template.py", line 77, in output_aux\n    if isinstance(node, BlockNode) \\\n  File "E:\\web2py_src\\web2py\\gluon\\template.py", line 149, in output\n    return \'\'.join(output_aux(node, blocks) for node in self.nodes)\n  File "E:\\web2py_src\\web2py\\gluon\\template.py", line 149, in <genexpr>\n    return \'\'.join(output_aux(node, blocks) for node in self.nodes)\n  File "E:\\web2py_src\\web2py\\gluon\\template.py", line 77, in output_aux\n    if isinstance(node, BlockNode) \\\n  File "E:\\web2py_src\\web2py\\gluon\\template.py", line 149, in output\n    return \'\'.join(output_aux(node, blocks) for node in self.nodes)\n  File "E:\\web2py_src\\web2py\\gluon\\template.py", line 149, in <genexpr>\n    return \'\'.join(output_aux(node, blocks) for node in self.nodes)\n  File "E:\\web2py_src\\web2py\\gluon\\template.py", line 77, in output_aux\n    if isinstance(node, BlockNode) \\\n  File "E:\\web2py_src\\web2py\\gluon\\template.py", line 149, in output\n    return \'\'.join(output_aux(node, blocks) for node in self.nodes)\n  File "E:\\web2py_src\\web2py\\gluon\\template.py", line 149, in <genexpr>\n    return \'\'.join(output_aux(node, blocks) for node in self.nodes)\n  File "E:\\web2py_src\\web2py\\gluon\\template.py", line 77, in output_aux\n    if isinstance(node, BlockNode) \\\n  File "E:\\web2py_src\\web2py\\gluon\\template.py", line 149, in output\n    return \'\'.join(output_aux(node, blocks) for node in self.nodes)\n  File "E:\\web2py_src\\web2py\\gluon\\template.py", line 149, in <genexpr>\n    return \'\'.join(output_aux(node, blocks) for node in self.nodes)\n  File "E:\\web2py_src\\web2py\\gluon\\template.py", line 77, in output_aux\n    if isinstance(node, BlockNode) \\\n  File "E:\\web2py_src\\web2py\\gluon\\template.py", line 149, in output\n    return \'\'.join(output_aux(node, blocks) for node in self.nodes)\n  File "E:\\web2py_src\\web2py\\gluon\\template.py", line 149, in <genexpr>\n    return \'\'.join(output_aux(node, blocks) for node in self.nodes)\n  File "E:\\web2py_src\\web2py\\gluon\\template.py", line 77, in output_aux\n    if isinstance(node, BlockNode) \\\n  File "E:\\web2py_src\\web2py\\gluon\\template.py", line 149, in output\n    return \'\'.join(output_aux(node, blocks) for node in self.nodes)\n  File "E:\\web2py_src\\web2py\\gluon\\template.py", line 149, in <genexpr>\n    return \'\'.join(output_aux(node, blocks) for node in self.nodes)\n  File "E:\\web2py_src\\web2py\\gluon\\template.py", line 77, in output_aux\n    if isinstance(node, BlockNode) \\\n  File "E:\\web2py_src\\web2py\\gluon\\template.py", line 149, in output\n    return \'\'.join(output_aux(node, blocks) for node in self.nodes)\n  File "E:\\web2py_src\\web2py\\gluon\\template.py", line 149, in <genexpr>\n    return \'\'.join(output_aux(node, blocks) for node in self.nodes)\n  File "E:\\web2py_src\\web2py\\gluon\\template.py", line 77, in output_aux\n    if isinstance(node, BlockNode) \\\n  File "E:\\web2py_src\\web2py\\gluon\\template.py", line 149, in output\n    return \'\'.join(output_aux(node, blocks) for node in self.nodes)\n  File "E:\\web2py_src\\web2py\\gluon\\template.py", line 149, in <genexpr>\n    return \'\'.join(output_aux(node, blocks) for node in self.nodes)\n  File "E:\\web2py_src\\web2py\\gluon\\template.py", line 77, in output_aux\n    if isinstance(node, BlockNode) \\\n  File "E:\\web2py_src\\web2py\\gluon\\template.py", line 149, in output\n    return \'\'.join(output_aux(node, blocks) for node in self.nodes)\n  File "E:\\web2py_src\\web2py\\gluon\\template.py", line 149, in <genexpr>\n    return \'\'.join(output_aux(node, blocks) for node in self.nodes)\n  File "E:\\web2py_src\\web2py\\gluon\\template.py", line 77, in output_aux\n    if isinstance(node, BlockNode) \\\n  File "E:\\web2py_src\\web2py\\gluon\\template.py", line 149, in output\n    return \'\'.join(output_aux(node, blocks) for node in self.nodes)\n  File "E:\\web2py_src\\web2py\\gluon\\template.py", line 149, in <genexpr>\n    return \'\'.join(output_aux(node, blocks) for node in self.nodes)\n  File "E:\\web2py_src\\web2py\\gluon\\template.py", line 77, in output_aux\n    if isinstance(node, BlockNode) \\\n  File "E:\\web2py_src\\web2py\\gluon\\template.py", line 149, in output\n    return \'\'.join(output_aux(node, blocks) for node in self.nodes)\n  File "E:\\web2py_src\\web2py\\gluon\\template.py", line 149, in <genexpr>\n    return \'\'.join(output_aux(node, blocks) for node in self.nodes)\n  File "E:\\web2py_src\\web2py\\gluon\\template.py", line 77, in output_aux\n    if isinstance(node, BlockNode) \\\n  File "E:\\web2py_src\\web2py\\gluon\\template.py", line 149, in output\n    return \'\'.join(output_aux(node, blocks) for node in self.nodes)\n  File "E:\\web2py_src\\web2py\\gluon\\template.py", line 149, in <genexpr>\n    return \'\'.join(output_aux(node, blocks) for node in self.nodes)\n  File "E:\\web2py_src\\web2py\\gluon\\template.py", line 77, in output_aux\n    if isinstance(node, BlockNode) \\\n  File "E:\\web2py_src\\web2py\\gluon\\template.py", line 149, in output\n    return \'\'.join(output_aux(node, blocks) for node in self.nodes)\n  File "E:\\web2py_src\\web2py\\gluon\\template.py", line 149, in <genexpr>\n    return \'\'.join(output_aux(node, blocks) for node in self.nodes)\n  File "E:\\web2py_src\\web2py\\gluon\\template.py", line 77, in output_aux\n    if isinstance(node, BlockNode) \\\n  File "E:\\web2py_src\\web2py\\gluon\\template.py", line 149, in output\n    return \'\'.join(output_aux(node, blocks) for node in self.nodes)\n  File "E:\\web2py_src\\web2py\\gluon\\template.py", line 149, in <genexpr>\n    return \'\'.join(output_aux(node, blocks) for node in self.nodes)\n  File "E:\\web2py_src\\web2py\\gluon\\template.py", line 77, in output_aux\n    if isinstance(node, BlockNode) \\\n  File "E:\\web2py_src\\web2py\\gluon\\template.py", line 149, in output\n    return \'\'.join(output_aux(node, blocks) for node in self.nodes)\n  File "E:\\web2py_src\\web2py\\gluon\\template.py", line 149, in <genexpr>\n    return \'\'.join(output_aux(node, blocks) for node in self.nodes)\n  File "E:\\web2py_src\\web2py\\gluon\\template.py", line 77, in output_aux\n    if isinstance(node, BlockNode) \\\n  File "E:\\web2py_src\\web2py\\gluon\\template.py", line 149, in output\n    return \'\'.join(output_aux(node, blocks) for node in self.nodes)\n  File "E:\\web2py_src\\web2py\\gluon\\template.py", line 149, in <genexpr>\n    return \'\'.join(output_aux(node, blocks) for node in self.nodes)\n  File "E:\\web2py_src\\web2py\\gluon\\template.py", line 77, in output_aux\n    if isinstance(node, BlockNode) \\\n  File "E:\\web2py_src\\web2py\\gluon\\template.py", line 149, in output\n    return \'\'.join(output_aux(node, blocks) for node in self.nodes)\n  File "E:\\web2py_src\\web2py\\gluon\\template.py", line 149, in <genexpr>\n    return \'\'.join(output_aux(node, blocks) for node in self.nodes)\n  File "E:\\web2py_src\\web2py\\gluon\\template.py", line 77, in output_aux\n    if isinstance(node, BlockNode) \\\n  File "E:\\web2py_src\\web2py\\gluon\\template.py", line 149, in output\n    return \'\'.join(output_aux(node, blocks) for node in self.nodes)\n  File "E:\\web2py_src\\web2py\\gluon\\template.py", line 149, in <genexpr>\n    return \'\'.join(output_aux(node, blocks) for node in self.nodes)\n  File "E:\\web2py_src\\web2py\\gluon\\template.py", line 77, in output_aux\n    if isinstance(node, BlockNode) \\\n  File "E:\\web2py_src\\web2py\\gluon\\template.py", line 149, in output\n    return \'\'.join(output_aux(node, blocks) for node in self.nodes)\n  File "E:\\web2py_src\\web2py\\gluon\\template.py", line 149, in <genexpr>\n    return \'\'.join(output_aux(node, blocks) for node in self.nodes)\n  File "E:\\web2py_src\\web2py\\gluon\\template.py", line 77, in output_aux\n    if isinstance(node, BlockNode) \\\n  File "E:\\web2py_src\\web2py\\gluon\\template.py", line 149, in output\n    return \'\'.join(output_aux(node, blocks) for node in self.nodes)\n  File "E:\\web2py_src\\web2py\\gluon\\template.py", line 149, in <genexpr>\n    return \'\'.join(output_aux(node, blocks) for node in self.nodes)\n  File "E:\\web2py_src\\web2py\\gluon\\template.py", line 77, in output_aux\n    if isinstance(node, BlockNode) \\\n  File "E:\\web2py_src\\web2py\\gluon\\template.py", line 149, in output\n    return \'\'.join(output_aux(node, blocks) for node in self.nodes)\n  File "E:\\web2py_src\\web2py\\gluon\\template.py", line 149, in <genexpr>\n    return \'\'.join(output_aux(node, blocks) for node in self.nodes)\n  File "E:\\web2py_src\\web2py\\gluon\\template.py", line 77, in output_aux\n    if isinstance(node, BlockNode) \\\n  File "E:\\web2py_src\\web2py\\gluon\\template.py", line 149, in output\n    return \'\'.join(output_aux(node, blocks) for node in self.nodes)\n  File "E:\\web2py_src\\web2py\\gluon\\template.py", line 149, in <genexpr>\n    return \'\'.join(output_aux(node, blocks) for node in self.nodes)\n  File "E:\\web2py_src\\web2py\\gluon\\template.py", line 77, in output_aux\n    if isinstance(node, BlockNode) \\\n  File "E:\\web2py_src\\web2py\\gluon\\template.py", line 149, in output\n    return \'\'.join(output_aux(node, blocks) for node in self.nodes)\n  File "E:\\web2py_src\\web2py\\gluon\\template.py", line 149, in <genexpr>\n    return \'\'.join(output_aux(node, blocks) for node in self.nodes)\n  File "E:\\web2py_src\\web2py\\gluon\\template.py", line 77, in output_aux\n    if isinstance(node, BlockNode) \\\n  File "E:\\web2py_src\\web2py\\gluon\\template.py", line 149, in output\n    return \'\'.join(output_aux(node, blocks) for node in self.nodes)\n  File "E:\\web2py_src\\web2py\\gluon\\template.py", line 149, in <genexpr>\n    return \'\'.join(output_aux(node, blocks) for node in self.nodes)\n  File "E:\\web2py_src\\web2py\\gluon\\template.py", line 77, in output_aux\n    if isinstance(node, BlockNode) \\\n  File "E:\\web2py_src\\web2py\\gluon\\template.py", line 149, in output\n    return \'\'.join(output_aux(node, blocks) for node in self.nodes)\n  File "E:\\web2py_src\\web2py\\gluon\\template.py", line 149, in <genexpr>\n    return \'\'.join(output_aux(node, blocks) for node in self.nodes)\n  File "E:\\web2py_src\\web2py\\gluon\\template.py", line 77, in output_aux\n    if isinstance(node, BlockNode) \\\n  File "E:\\web2py_src\\web2py\\gluon\\template.py", line 149, in output\n    return \'\'.join(output_aux(node, blocks) for node in self.nodes)\n  File "E:\\web2py_src\\web2py\\gluon\\template.py", line 149, in <genexpr>\n    return \'\'.join(output_aux(node, blocks) for node in self.nodes)\n  File "E:\\web2py_src\\web2py\\gluon\\template.py", line 77, in output_aux\n    if isinstance(node, BlockNode) \\\n  File "E:\\web2py_src\\web2py\\gluon\\template.py", line 149, in output\n    return \'\'.join(output_aux(node, blocks) for node in self.nodes)\n  File "E:\\web2py_src\\web2py\\gluon\\template.py", line 149, in <genexpr>\n    return \'\'.join(output_aux(node, blocks) for node in self.nodes)\n  File "E:\\web2py_src\\web2py\\gluon\\template.py", line 77, in output_aux\n    if isinstance(node, BlockNode) \\\n  File "E:\\web2py_src\\web2py\\gluon\\template.py", line 149, in output\n    return \'\'.join(output_aux(node, blocks) for node in self.nodes)\n  File "E:\\web2py_src\\web2py\\gluon\\template.py", line 149, in <genexpr>\n    return \'\'.join(output_aux(node, blocks) for node in self.nodes)\n  File "E:\\web2py_src\\web2py\\gluon\\template.py", line 77, in output_aux\n    if isinstance(node, BlockNode) \\\n  File "E:\\web2py_src\\web2py\\gluon\\template.py", line 149, in output\n    return \'\'.join(output_aux(node, blocks) for node in self.nodes)\n  File "E:\\web2py_src\\web2py\\gluon\\template.py", line 149, in <genexpr>\n    return \'\'.join(output_aux(node, blocks) for node in self.nodes)\n  File "E:\\web2py_src\\web2py\\gluon\\template.py", line 77, in output_aux\n    if isinstance(node, BlockNode) \\\n  File "E:\\web2py_src\\web2py\\gluon\\template.py", line 149, in output\n    return \'\'.join(output_aux(node, blocks) for node in self.nodes)\n  File "E:\\web2py_src\\web2py\\gluon\\template.py", line 149, in <genexpr>\n    return \'\'.join(output_aux(node, blocks) for node in self.nodes)\n  File "E:\\web2py_src\\web2py\\gluon\\template.py", line 77, in output_aux\n    if isinstance(node, BlockNode) \\\n  File "E:\\web2py_src\\web2py\\gluon\\template.py", line 149, in output\n    return \'\'.join(output_aux(node, blocks) for node in self.nodes)\n  File "E:\\web2py_src\\web2py\\gluon\\template.py", line 149, in <genexpr>\n    return \'\'.join(output_aux(node, blocks) for node in self.nodes)\n  File "E:\\web2py_src\\web2py\\gluon\\template.py", line 77, in output_aux\n    if isinstance(node, BlockNode) \\\n  File "E:\\web2py_src\\web2py\\gluon\\template.py", line 149, in output\n    return \'\'.join(output_aux(node, blocks) for node in self.nodes)\n  File "E:\\web2py_src\\web2py\\gluon\\template.py", line 149, in <genexpr>\n    return \'\'.join(output_aux(node, blocks) for node in self.nodes)\n  File "E:\\web2py_src\\web2py\\gluon\\template.py", line 77, in output_aux\n    if isinstance(node, BlockNode) \\\n  File "E:\\web2py_src\\web2py\\gluon\\template.py", line 149, in output\n    return \'\'.join(output_aux(node, blocks) for node in self.nodes)\n  File "E:\\web2py_src\\web2py\\gluon\\template.py", line 149, in <genexpr>\n    return \'\'.join(output_aux(node, blocks) for node in self.nodes)\n  File "E:\\web2py_src\\web2py\\gluon\\template.py", line 77, in output_aux\n    if isinstance(node, BlockNode) \\\n  File "E:\\web2py_src\\web2py\\gluon\\template.py", line 149, in output\n    return \'\'.join(output_aux(node, blocks) for node in self.nodes)\n  File "E:\\web2py_src\\web2py\\gluon\\template.py", line 149, in <genexpr>\n    return \'\'.join(output_aux(node, blocks) for node in self.nodes)\n  File "E:\\web2py_src\\web2py\\gluon\\template.py", line 77, in output_aux\n    if isinstance(node, BlockNode) \\\n  File "E:\\web2py_src\\web2py\\gluon\\template.py", line 149, in output\n    return \'\'.join(output_aux(node, blocks) for node in self.nodes)\n  File "E:\\web2py_src\\web2py\\gluon\\template.py", line 149, in <genexpr>\n    return \'\'.join(output_aux(node, blocks) for node in self.nodes)\n  File "E:\\web2py_src\\web2py\\gluon\\template.py", line 77, in output_aux\n    if isinstance(node, BlockNode) \\\n  File "E:\\web2py_src\\web2py\\gluon\\template.py", line 149, in output\n    return \'\'.join(output_aux(node, blocks) for node in self.nodes)\n  File "E:\\web2py_src\\web2py\\gluon\\template.py", line 149, in <genexpr>\n    return \'\'.join(output_aux(node, blocks) for node in self.nodes)\n  File "E:\\web2py_src\\web2py\\gluon\\template.py", line 77, in output_aux\n    if isinstance(node, BlockNode) \\\n  File "E:\\web2py_src\\web2py\\gluon\\template.py", line 149, in output\n    return \'\'.join(output_aux(node, blocks) for node in self.nodes)\n  File "E:\\web2py_src\\web2py\\gluon\\template.py", line 149, in <genexpr>\n    return \'\'.join(output_aux(node, blocks) for node in self.nodes)\n  File "E:\\web2py_src\\web2py\\gluon\\template.py", line 77, in output_aux\n    if isinstance(node, BlockNode) \\\n  File "E:\\web2py_src\\web2py\\gluon\\template.py", line 149, in output\n    return \'\'.join(output_aux(node, blocks) for node in self.nodes)\n  File "E:\\web2py_src\\web2py\\gluon\\template.py", line 149, in <genexpr>\n    return \'\'.join(output_aux(node, blocks) for node in self.nodes)\n  File "E:\\web2py_src\\web2py\\gluon\\template.py", line 77, in output_aux\n    if isinstance(node, BlockNode) \\\n  File "E:\\web2py_src\\web2py\\gluon\\template.py", line 149, in output\n    return \'\'.join(output_aux(node, blocks) for node in self.nodes)\n  File "E:\\web2py_src\\web2py\\gluon\\template.py", line 149, in <genexpr>\n    return \'\'.join(output_aux(node, blocks) for node in self.nodes)\n  File "E:\\web2py_src\\web2py\\gluon\\template.py", line 77, in output_aux\n    if isinstance(node, BlockNode) \\\n  File "E:\\web2py_src\\web2py\\gluon\\template.py", line 149, in output\n    return \'\'.join(output_aux(node, blocks) for node in self.nodes)\n  File "E:\\web2py_src\\web2py\\gluon\\template.py", line 149, in <genexpr>\n    return \'\'.join(output_aux(node, blocks) for node in self.nodes)\n  File "E:\\web2py_src\\web2py\\gluon\\template.py", line 77, in output_aux\n    if isinstance(node, BlockNode) \\\n  File "E:\\web2py_src\\web2py\\gluon\\template.py", line 149, in output\n    return \'\'.join(output_aux(node, blocks) for node in self.nodes)\n  File "E:\\web2py_src\\web2py\\gluon\\template.py", line 149, in <genexpr>\n    return \'\'.join(output_aux(node, blocks) for node in self.nodes)\n  File "E:\\web2py_src\\web2py\\gluon\\template.py", line 77, in output_aux\n    if isinstance(node, BlockNode) \\\n  File "E:\\web2py_src\\web2py\\gluon\\template.py", line 149, in output\n    return \'\'.join(output_aux(node, blocks) for node in self.nodes)\n  File "E:\\web2py_src\\web2py\\gluon\\template.py", line 149, in <genexpr>\n    return \'\'.join(output_aux(node, blocks) for node in self.nodes)\n  File "E:\\web2py_src\\web2py\\gluon\\template.py", line 77, in output_aux\n    if isinstance(node, BlockNode) \\\n  File "E:\\web2py_src\\web2py\\gluon\\template.py", line 149, in output\n    return \'\'.join(output_aux(node, blocks) for node in self.nodes)\n  File "E:\\web2py_src\\web2py\\gluon\\template.py", line 149, in <genexpr>\n    return \'\'.join(output_aux(node, blocks) for node in self.nodes)\n  File "E:\\web2py_src\\web2py\\gluon\\template.py", line 77, in output_aux\n    if isinstance(node, BlockNode) \\\n  File "E:\\web2py_src\\web2py\\gluon\\template.py", line 149, in output\n    return \'\'.join(output_aux(node, blocks) for node in self.nodes)\n  File "E:\\web2py_src\\web2py\\gluon\\template.py", line 149, in <genexpr>\n    return \'\'.join(output_aux(node, blocks) for node in self.nodes)\n  File "E:\\web2py_src\\web2py\\gluon\\template.py", line 77, in output_aux\n    if isinstance(node, BlockNode) \\\n  File "E:\\web2py_src\\web2py\\gluon\\template.py", line 149, in output\n    return \'\'.join(output_aux(node, blocks) for node in self.nodes)\n  File "E:\\web2py_src\\web2py\\gluon\\template.py", line 149, in <genexpr>\n    return \'\'.join(output_aux(node, blocks) for node in self.nodes)\n  File "E:\\web2py_src\\web2py\\gluon\\template.py", line 77, in output_aux\n    if isinstance(node, BlockNode) \\\n  File "E:\\web2py_src\\web2py\\gluon\\template.py", line 149, in output\n    return \'\'.join(output_aux(node, blocks) for node in self.nodes)\n  File "E:\\web2py_src\\web2py\\gluon\\template.py", line 149, in <genexpr>\n    return \'\'.join(output_aux(node, blocks) for node in self.nodes)\n  File "E:\\web2py_src\\web2py\\gluon\\template.py", line 77, in output_aux\n    if isinstance(node, BlockNode) \\\n  File "E:\\web2py_src\\web2py\\gluon\\template.py", line 149, in output\n    return \'\'.join(output_aux(node, blocks) for node in self.nodes)\n  File "E:\\web2py_src\\web2py\\gluon\\template.py", line 149, in <genexpr>\n    return \'\'.join(output_aux(node, blocks) for node in self.nodes)\n  File "E:\\web2py_src\\web2py\\gluon\\template.py", line 77, in output_aux\n    if isinstance(node, BlockNode) \\\n  File "E:\\web2py_src\\web2py\\gluon\\template.py", line 149, in output\n    return \'\'.join(output_aux(node, blocks) for node in self.nodes)\n  File "E:\\web2py_src\\web2py\\gluon\\template.py", line 149, in <genexpr>\n    return \'\'.join(output_aux(node, blocks) for node in self.nodes)\n  File "E:\\web2py_src\\web2py\\gluon\\template.py", line 77, in output_aux\n    if isinstance(node, BlockNode) \\\n  File "E:\\web2py_src\\web2py\\gluon\\template.py", line 149, in output\n    return \'\'.join(output_aux(node, blocks) for node in self.nodes)\n  File "E:\\web2py_src\\web2py\\gluon\\template.py", line 149, in <genexpr>\n    return \'\'.join(output_aux(node, blocks) for node in self.nodes)\n  File "E:\\web2py_src\\web2py\\gluon\\template.py", line 77, in output_aux\n    if isinstance(node, BlockNode) \\\n  File "E:\\web2py_src\\web2py\\gluon\\template.py", line 149, in output\n    return \'\'.join(output_aux(node, blocks) for node in self.nodes)\n  File "E:\\web2py_src\\web2py\\gluon\\template.py", line 149, in <genexpr>\n    return \'\'.join(output_aux(node, blocks) for node in self.nodes)\n  File "E:\\web2py_src\\web2py\\gluon\\template.py", line 77, in output_aux\n    if isinstance(node, BlockNode) \\\n  File "E:\\web2py_src\\web2py\\gluon\\template.py", line 149, in output\n    return \'\'.join(output_aux(node, blocks) for node in self.nodes)\n  File "E:\\web2py_src\\web2py\\gluon\\template.py", line 149, in <genexpr>\n    return \'\'.join(output_aux(node, blocks) for node in self.nodes)\n  File "E:\\web2py_src\\web2py\\gluon\\template.py", line 77, in output_aux\n    if isinstance(node, BlockNode) \\\n  File "E:\\web2py_src\\web2py\\gluon\\template.py", line 149, in output\n    return \'\'.join(output_aux(node, blocks) for node in self.nodes)\n  File "E:\\web2py_src\\web2py\\gluon\\template.py", line 149, in <genexpr>\n    return \'\'.join(output_aux(node, blocks) for node in self.nodes)\n  File "E:\\web2py_src\\web2py\\gluon\\template.py", line 77, in output_aux\n    if isinstance(node, BlockNode) \\\n  File "E:\\web2py_src\\web2py\\gluon\\template.py", line 149, in output\n    return \'\'.join(output_aux(node, blocks) for node in self.nodes)\n  File "E:\\web2py_src\\web2py\\gluon\\template.py", line 149, in <genexpr>\n    return \'\'.join(output_aux(node, blocks) for node in self.nodes)\n  File "E:\\web2py_src\\web2py\\gluon\\template.py", line 77, in output_aux\n    if isinstance(node, BlockNode) \\\n  File "E:\\web2py_src\\web2py\\gluon\\template.py", line 149, in output\n    return \'\'.join(output_aux(node, blocks) for node in self.nodes)\n  File "E:\\web2py_src\\web2py\\gluon\\template.py", line 149, in <genexpr>\n    return \'\'.join(output_aux(node, blocks) for node in self.nodes)\n  File "E:\\web2py_src\\web2py\\gluon\\template.py", line 77, in output_aux\n    if isinstance(node, BlockNode) \\\n  File "E:\\web2py_src\\web2py\\gluon\\template.py", line 149, in output\n    return \'\'.join(output_aux(node, blocks) for node in self.nodes)\n  File "E:\\web2py_src\\web2py\\gluon\\template.py", line 149, in <genexpr>\n    return \'\'.join(output_aux(node, blocks) for node in self.nodes)\n  File "E:\\web2py_src\\web2py\\gluon\\template.py", line 77, in output_aux\n    if isinstance(node, BlockNode) \\\n  File "E:\\web2py_src\\web2py\\gluon\\template.py", line 149, in output\n    return \'\'.join(output_aux(node, blocks) for node in self.nodes)\n  File "E:\\web2py_src\\web2py\\gluon\\template.py", line 149, in <genexpr>\n    return \'\'.join(output_aux(node, blocks) for node in self.nodes)\n  File "E:\\web2py_src\\web2py\\gluon\\template.py", line 77, in output_aux\n    if isinstance(node, BlockNode) \\\n  File "E:\\web2py_src\\web2py\\gluon\\template.py", line 149, in output\n    return \'\'.join(output_aux(node, blocks) for node in self.nodes)\n  File "E:\\web2py_src\\web2py\\gluon\\template.py", line 149, in <genexpr>\n    return \'\'.join(output_aux(node, blocks) for node in self.nodes)\n  File "E:\\web2py_src\\web2py\\gluon\\template.py", line 77, in output_aux\n    if isinstance(node, BlockNode) \\\n  File "E:\\web2py_src\\web2py\\gluon\\template.py", line 149, in output\n    return \'\'.join(output_aux(node, blocks) for node in self.nodes)\n  File "E:\\web2py_src\\web2py\\gluon\\template.py", line 149, in <genexpr>\n    return \'\'.join(output_aux(node, blocks) for node in self.nodes)\n  File "E:\\web2py_src\\web2py\\gluon\\template.py", line 77, in output_aux\n    if isinstance(node, BlockNode) \\\n  File "E:\\web2py_src\\web2py\\gluon\\template.py", line 149, in output\n    return \'\'.join(output_aux(node, blocks) for node in self.nodes)\n  File "E:\\web2py_src\\web2py\\gluon\\template.py", line 149, in <genexpr>\n    return \'\'.join(output_aux(node, blocks) for node in self.nodes)\n  File "E:\\web2py_src\\web2py\\gluon\\template.py", line 77, in output_aux\n    if isinstance(node, BlockNode) \\\n  File "E:\\web2py_src\\web2py\\gluon\\template.py", line 149, in output\n    return \'\'.join(output_aux(node, blocks) for node in self.nodes)\n  File "E:\\web2py_src\\web2py\\gluon\\template.py", line 149, in <genexpr>\n    return \'\'.join(output_aux(node, blocks) for node in self.nodes)\n  File "E:\\web2py_src\\web2py\\gluon\\template.py", line 77, in output_aux\n    if isinstance(node, BlockNode) \\\n  File "E:\\web2py_src\\web2py\\gluon\\template.py", line 149, in output\n    return \'\'.join(output_aux(node, blocks) for node in self.nodes)\n  File "E:\\web2py_src\\web2py\\gluon\\template.py", line 149, in <genexpr>\n    return \'\'.join(output_aux(node, blocks) for node in self.nodes)\n  File "E:\\web2py_src\\web2py\\gluon\\template.py", line 77, in output_aux\n    if isinstance(node, BlockNode) \\\n  File "E:\\web2py_src\\web2py\\gluon\\template.py", line 149, in output\n    return \'\'.join(output_aux(node, blocks) for node in self.nodes)\n  File "E:\\web2py_src\\web2py\\gluon\\template.py", line 149, in <genexpr>\n    return \'\'.join(output_aux(node, blocks) for node in self.nodes)\n  File "E:\\web2py_src\\web2py\\gluon\\template.py", line 77, in output_aux\n    if isinstance(node, BlockNode) \\\n  File "E:\\web2py_src\\web2py\\gluon\\template.py", line 149, in output\n    return \'\'.join(output_aux(node, blocks) for node in self.nodes)\n  File "E:\\web2py_src\\web2py\\gluon\\template.py", line 149, in <genexpr>\n    return \'\'.join(output_aux(node, blocks) for node in self.nodes)\n  File "E:\\web2py_src\\web2py\\gluon\\template.py", line 77, in output_aux\n    if isinstance(node, BlockNode) \\\n  File "E:\\web2py_src\\web2py\\gluon\\template.py", line 149, in output\n    return \'\'.join(output_aux(node, blocks) for node in self.nodes)\n  File "E:\\web2py_src\\web2py\\gluon\\template.py", line 149, in <genexpr>\n    return \'\'.join(output_aux(node, blocks) for node in self.nodes)\n  File "E:\\web2py_src\\web2py\\gluon\\template.py", line 77, in output_aux\n    if isinstance(node, BlockNode) \\\n  File "E:\\web2py_src\\web2py\\gluon\\template.py", line 149, in output\n    return \'\'.join(output_aux(node, blocks) for node in self.nodes)\n  File "E:\\web2py_src\\web2py\\gluon\\template.py", line 149, in <genexpr>\n    return \'\'.join(output_aux(node, blocks) for node in self.nodes)\n  File "E:\\web2py_src\\web2py\\gluon\\template.py", line 77, in output_aux\n    if isinstance(node, BlockNode) \\\n  File "E:\\web2py_src\\web2py\\gluon\\template.py", line 149, in output\n    return \'\'.join(output_aux(node, blocks) for node in self.nodes)\n  File "E:\\web2py_src\\web2py\\gluon\\template.py", line 149, in <genexpr>\n    return \'\'.join(output_aux(node, blocks) for node in self.nodes)\n  File "E:\\web2py_src\\web2py\\gluon\\template.py", line 77, in output_aux\n    if isinstance(node, BlockNode) \\\n  File "E:\\web2py_src\\web2py\\gluon\\template.py", line 149, in output\n    return \'\'.join(output_aux(node, blocks) for node in self.nodes)\n  File "E:\\web2py_src\\web2py\\gluon\\template.py", line 149, in <genexpr>\n    return \'\'.join(output_aux(node, blocks) for node in self.nodes)\n  File "E:\\web2py_src\\web2py\\gluon\\template.py", line 77, in output_aux\n    if isinstance(node, BlockNode) \\\n  File "E:\\web2py_src\\web2py\\gluon\\template.py", line 149, in output\n    return \'\'.join(output_aux(node, blocks) for node in self.nodes)\n  File "E:\\web2py_src\\web2py\\gluon\\template.py", line 149, in <genexpr>\n    return \'\'.join(output_aux(node, blocks) for node in self.nodes)\n  File "E:\\web2py_src\\web2py\\gluon\\template.py", line 77, in output_aux\n    if isinstance(node, BlockNode) \\\n  File "E:\\web2py_src\\web2py\\gluon\\template.py", line 149, in output\n    return \'\'.join(output_aux(node, blocks) for node in self.nodes)\n  File "E:\\web2py_src\\web2py\\gluon\\template.py", line 149, in <genexpr>\n    return \'\'.join(output_aux(node, blocks) for node in self.nodes)\n  File "E:\\web2py_src\\web2py\\gluon\\template.py", line 77, in output_aux\n    if isinstance(node, BlockNode) \\\n  File "E:\\web2py_src\\web2py\\gluon\\template.py", line 149, in output\n    return \'\'.join(output_aux(node, blocks) for node in self.nodes)\n  File "E:\\web2py_src\\web2py\\gluon\\template.py", line 149, in <genexpr>\n    return \'\'.join(output_aux(node, blocks) for node in self.nodes)\n  File "E:\\web2py_src\\web2py\\gluon\\template.py", line 77, in output_aux\n    if isinstance(node, BlockNode) \\\n  File "E:\\web2py_src\\web2py\\gluon\\template.py", line 149, in output\n    return \'\'.join(output_aux(node, blocks) for node in self.nodes)\n  File "E:\\web2py_src\\web2py\\gluon\\template.py", line 149, in <genexpr>\n    return \'\'.join(output_aux(node, blocks) for node in self.nodes)\n  File "E:\\web2py_src\\web2py\\gluon\\template.py", line 77, in output_aux\n    if isinstance(node, BlockNode) \\\n  File "E:\\web2py_src\\web2py\\gluon\\template.py", line 149, in output\n    return \'\'.join(output_aux(node, blocks) for node in self.nodes)\n  File "E:\\web2py_src\\web2py\\gluon\\template.py", line 149, in <genexpr>\n    return \'\'.join(output_aux(node, blocks) for node in self.nodes)\n  File "E:\\web2py_src\\web2py\\gluon\\template.py", line 77, in output_aux\n    if isinstance(node, BlockNode) \\\n  File "E:\\web2py_src\\web2py\\gluon\\template.py", line 149, in output\n    return \'\'.join(output_aux(node, blocks) for node in self.nodes)\n  File "E:\\web2py_src\\web2py\\gluon\\template.py", line 149, in <genexpr>\n    return \'\'.join(output_aux(node, blocks) for node in self.nodes)\n  File "E:\\web2py_src\\web2py\\gluon\\template.py", line 77, in output_aux\n    if isinstance(node, BlockNode) \\\n  File "E:\\web2py_src\\web2py\\gluon\\template.py", line 149, in output\n    return \'\'.join(output_aux(node, blocks) for node in self.nodes)\n  File "E:\\web2py_src\\web2py\\gluon\\template.py", line 149, in <genexpr>\n    return \'\'.join(output_aux(node, blocks) for node in self.nodes)\n  File "E:\\web2py_src\\web2py\\gluon\\template.py", line 77, in output_aux\n    if isinstance(node, BlockNode) \\\n  File "E:\\web2py_src\\web2py\\gluon\\template.py", line 149, in output\n    return \'\'.join(output_aux(node, blocks) for node in self.nodes)\n  File "E:\\web2py_src\\web2py\\gluon\\template.py", line 149, in <genexpr>\n    return \'\'.join(output_aux(node, blocks) for node in self.nodes)\n  File "E:\\web2py_src\\web2py\\gluon\\template.py", line 77, in output_aux\n    if isinstance(node, BlockNode) \\\n  File "E:\\web2py_src\\web2py\\gluon\\template.py", line 149, in output\n    return \'\'.join(output_aux(node, blocks) for node in self.nodes)\n  File "E:\\web2py_src\\web2py\\gluon\\template.py", line 149, in <genexpr>\n    return \'\'.join(output_aux(node, blocks) for node in self.nodes)\n  File "E:\\web2py_src\\web2py\\gluon\\template.py", line 77, in output_aux\n    if isinstance(node, BlockNode) \\\n  File "E:\\web2py_src\\web2py\\gluon\\template.py", line 149, in output\n    return \'\'.join(output_aux(node, blocks) for node in self.nodes)\n  File "E:\\web2py_src\\web2py\\gluon\\template.py", line 149, in <genexpr>\n    return \'\'.join(output_aux(node, blocks) for node in self.nodes)\n  File "E:\\web2py_src\\web2py\\gluon\\template.py", line 77, in output_aux\n    if isinstance(node, BlockNode) \\\n  File "E:\\web2py_src\\web2py\\gluon\\template.py", line 149, in output\n    return \'\'.join(output_aux(node, blocks) for node in self.nodes)\n  File "E:\\web2py_src\\web2py\\gluon\\template.py", line 149, in <genexpr>\n    return \'\'.join(output_aux(node, blocks) for node in self.nodes)\n  File "E:\\web2py_src\\web2py\\gluon\\template.py", line 77, in output_aux\n    if isinstance(node, BlockNode) \\\n  File "E:\\web2py_src\\web2py\\gluon\\template.py", line 149, in output\n    return \'\'.join(output_aux(node, blocks) for node in self.nodes)\n  File "E:\\web2py_src\\web2py\\gluon\\template.py", line 149, in <genexpr>\n    return \'\'.join(output_aux(node, blocks) for node in self.nodes)\n  File "E:\\web2py_src\\web2py\\gluon\\template.py", line 77, in output_aux\n    if isinstance(node, BlockNode) \\\n  File "E:\\web2py_src\\web2py\\gluon\\template.py", line 149, in output\n    return \'\'.join(output_aux(node, blocks) for node in self.nodes)\n  File "E:\\web2py_src\\web2py\\gluon\\template.py", line 149, in <genexpr>\n    return \'\'.join(output_aux(node, blocks) for node in self.nodes)\n  File "E:\\web2py_src\\web2py\\gluon\\template.py", line 77, in output_aux\n    if isinstance(node, BlockNode) \\\n  File "E:\\web2py_src\\web2py\\gluon\\template.py", line 149, in output\n    return \'\'.join(output_aux(node, blocks) for node in self.nodes)\n  File "E:\\web2py_src\\web2py\\gluon\\template.py", line 149, in <genexpr>\n    return \'\'.join(output_aux(node, blocks) for node in self.nodes)\n  File "E:\\web2py_src\\web2py\\gluon\\template.py", line 77, in output_aux\n    if isinstance(node, BlockNode) \\\n  File "E:\\web2py_src\\web2py\\gluon\\template.py", line 149, in output\n    return \'\'.join(output_aux(node, blocks) for node in self.nodes)\n  File "E:\\web2py_src\\web2py\\gluon\\template.py", line 149, in <genexpr>\n    return \'\'.join(output_aux(node, blocks) for node in self.nodes)\n  File "E:\\web2py_src\\web2py\\gluon\\template.py", line 77, in output_aux\n    if isinstance(node, BlockNode) \\\n  File "E:\\web2py_src\\web2py\\gluon\\template.py", line 149, in output\n    return \'\'.join(output_aux(node, blocks) for node in self.nodes)\n  File "E:\\web2py_src\\web2py\\gluon\\template.py", line 149, in <genexpr>\n    return \'\'.join(output_aux(node, blocks) for node in self.nodes)\n  File "E:\\web2py_src\\web2py\\gluon\\template.py", line 77, in output_aux\n    if isinstance(node, BlockNode) \\\n  File "E:\\web2py_src\\web2py\\gluon\\template.py", line 149, in output\n    return \'\'.join(output_aux(node, blocks) for node in self.nodes)\n  File "E:\\web2py_src\\web2py\\gluon\\template.py", line 149, in <genexpr>\n    return \'\'.join(output_aux(node, blocks) for node in self.nodes)\n  File "E:\\web2py_src\\web2py\\gluon\\template.py", line 77, in output_aux\n    if isinstance(node, BlockNode) \\\n  File "E:\\web2py_src\\web2py\\gluon\\template.py", line 149, in output\n    return \'\'.join(output_aux(node, blocks) for node in self.nodes)\n  File "E:\\web2py_src\\web2py\\gluon\\template.py", line 149, in <genexpr>\n    return \'\'.join(output_aux(node, blocks) for node in self.nodes)\n  File "E:\\web2py_src\\web2py\\gluon\\template.py", line 77, in output_aux\n    if isinstance(node, BlockNode) \\\n  File "E:\\web2py_src\\web2py\\gluon\\template.py", line 149, in output\n    return \'\'.join(output_aux(node, blocks) for node in self.nodes)\n  File "E:\\web2py_src\\web2py\\gluon\\template.py", line 149, in <genexpr>\n    return \'\'.join(output_aux(node, blocks) for node in self.nodes)\n  File "E:\\web2py_src\\web2py\\gluon\\template.py", line 77, in output_aux\n    if isinstance(node, BlockNode) \\\n  File "E:\\web2py_src\\web2py\\gluon\\template.py", line 149, in output\n    return \'\'.join(output_aux(node, blocks) for node in self.nodes)\n  File "E:\\web2py_src\\web2py\\gluon\\template.py", line 149, in <genexpr>\n    return \'\'.join(output_aux(node, blocks) for node in self.nodes)\n  File "E:\\web2py_src\\web2py\\gluon\\template.py", line 77, in output_aux\n    if isinstance(node, BlockNode) \\\n  File "E:\\web2py_src\\web2py\\gluon\\template.py", line 149, in output\n    return \'\'.join(output_aux(node, blocks) for node in self.nodes)\n  File "E:\\web2py_src\\web2py\\gluon\\template.py", line 149, in <genexpr>\n    return \'\'.join(output_aux(node, blocks) for node in self.nodes)\n  File "E:\\web2py_src\\web2py\\gluon\\template.py", line 77, in output_aux\n    if isinstance(node, BlockNode) \\\n  File "E:\\web2py_src\\web2py\\gluon\\template.py", line 149, in output\n    return \'\'.join(output_aux(node, blocks) for node in self.nodes)\n  File "E:\\web2py_src\\web2py\\gluon\\template.py", line 149, in <genexpr>\n    return \'\'.join(output_aux(node, blocks) for node in self.nodes)\n  File "E:\\web2py_src\\web2py\\gluon\\template.py", line 77, in output_aux\n    if isinstance(node, BlockNode) \\\n  File "E:\\web2py_src\\web2py\\gluon\\template.py", line 149, in output\n    return \'\'.join(output_aux(node, blocks) for node in self.nodes)\n  File "E:\\web2py_src\\web2py\\gluon\\template.py", line 149, in <genexpr>\n    return \'\'.join(output_aux(node, blocks) for node in self.nodes)\n  File "E:\\web2py_src\\web2py\\gluon\\template.py", line 77, in output_aux\n    if isinstance(node, BlockNode) \\\n  File "E:\\web2py_src\\web2py\\gluon\\template.py", line 149, in output\n    return \'\'.join(output_aux(node, blocks) for node in self.nodes)\n  File "E:\\web2py_src\\web2py\\gluon\\template.py", line 149, in <genexpr>\n    return \'\'.join(output_aux(node, blocks) for node in self.nodes)\n  File "E:\\web2py_src\\web2py\\gluon\\template.py", line 77, in output_aux\n    if isinstance(node, BlockNode) \\\n  File "E:\\web2py_src\\web2py\\gluon\\template.py", line 149, in output\n    return \'\'.join(output_aux(node, blocks) for node in self.nodes)\n  File "E:\\web2py_src\\web2py\\gluon\\template.py", line 149, in <genexpr>\n    return \'\'.join(output_aux(node, blocks) for node in self.nodes)\n  File "E:\\web2py_src\\web2py\\gluon\\template.py", line 77, in output_aux\n    if isinstance(node, BlockNode) \\\n  File "E:\\web2py_src\\web2py\\gluon\\template.py", line 149, in output\n    return \'\'.join(output_aux(node, blocks) for node in self.nodes)\n  File "E:\\web2py_src\\web2py\\gluon\\template.py", line 149, in <genexpr>\n    return \'\'.join(output_aux(node, blocks) for node in self.nodes)\n  File "E:\\web2py_src\\web2py\\gluon\\template.py", line 77, in output_aux\n    if isinstance(node, BlockNode) \\\n  File "E:\\web2py_src\\web2py\\gluon\\template.py", line 149, in output\n    return \'\'.join(output_aux(node, blocks) for node in self.nodes)\n  File "E:\\web2py_src\\web2py\\gluon\\template.py", line 149, in <genexpr>\n    return \'\'.join(output_aux(node, blocks) for node in self.nodes)\n  File "E:\\web2py_src\\web2py\\gluon\\template.py", line 77, in output_aux\n    if isinstance(node, BlockNode) \\\n  File "E:\\web2py_src\\web2py\\gluon\\template.py", line 149, in output\n    return \'\'.join(output_aux(node, blocks) for node in self.nodes)\n  File "E:\\web2py_src\\web2py\\gluon\\template.py", line 149, in <genexpr>\n    return \'\'.join(output_aux(node, blocks) for node in self.nodes)\n  File "E:\\web2py_src\\web2py\\gluon\\template.py", line 77, in output_aux\n    if isinstance(node, BlockNode) \\\n  File "E:\\web2py_src\\web2py\\gluon\\template.py", line 149, in output\n    return \'\'.join(output_aux(node, blocks) for node in self.nodes)\n  File "E:\\web2py_src\\web2py\\gluon\\template.py", line 149, in <genexpr>\n    return \'\'.join(output_aux(node, blocks) for node in self.nodes)\n  File "E:\\web2py_src\\web2py\\gluon\\template.py", line 77, in output_aux\n    if isinstance(node, BlockNode) \\\n  File "E:\\web2py_src\\web2py\\gluon\\template.py", line 149, in output\n    return \'\'.join(output_aux(node, blocks) for node in self.nodes)\n  File "E:\\web2py_src\\web2py\\gluon\\template.py", line 149, in <genexpr>\n    return \'\'.join(output_aux(node, blocks) for node in self.nodes)\n  File "E:\\web2py_src\\web2py\\gluon\\template.py", line 77, in output_aux\n    if isinstance(node, BlockNode) \\\n  File "E:\\web2py_src\\web2py\\gluon\\template.py", line 149, in output\n    return \'\'.join(output_aux(node, blocks) for node in self.nodes)\n  File "E:\\web2py_src\\web2py\\gluon\\template.py", line 149, in <genexpr>\n    return \'\'.join(output_aux(node, blocks) for node in self.nodes)\n  File "E:\\web2py_src\\web2py\\gluon\\template.py", line 77, in output_aux\n    if isinstance(node, BlockNode) \\\n  File "E:\\web2py_src\\web2py\\gluon\\template.py", line 149, in output\n    return \'\'.join(output_aux(node, blocks) for node in self.nodes)\n  File "E:\\web2py_src\\web2py\\gluon\\template.py", line 149, in <genexpr>\n    return \'\'.join(output_aux(node, blocks) for node in self.nodes)\n  File "E:\\web2py_src\\web2py\\gluon\\template.py", line 77, in output_aux\n    if isinstance(node, BlockNode) \\\n  File "E:\\web2py_src\\web2py\\gluon\\template.py", line 149, in output\n    return \'\'.join(output_aux(node, blocks) for node in self.nodes)\n  File "E:\\web2py_src\\web2py\\gluon\\template.py", line 149, in <genexpr>\n    return \'\'.join(output_aux(node, blocks) for node in self.nodes)\n  File "E:\\web2py_src\\web2py\\gluon\\template.py", line 77, in output_aux\n    if isinstance(node, BlockNode) \\\n  File "E:\\web2py_src\\web2py\\gluon\\template.py", line 149, in output\n    return \'\'.join(output_aux(node, blocks) for node in self.nodes)\n  File "E:\\web2py_src\\web2py\\gluon\\template.py", line 149, in <genexpr>\n    return \'\'.join(output_aux(node, blocks) for node in self.nodes)\n  File "E:\\web2py_src\\web2py\\gluon\\template.py", line 77, in output_aux\n    if isinstance(node, BlockNode) \\\n  File "E:\\web2py_src\\web2py\\gluon\\template.py", line 149, in output\n    return \'\'.join(output_aux(node, blocks) for node in self.nodes)\n  File "E:\\web2py_src\\web2py\\gluon\\template.py", line 149, in <genexpr>\n    return \'\'.join(output_aux(node, blocks) for node in self.nodes)\n  File "E:\\web2py_src\\web2py\\gluon\\template.py", line 77, in output_aux\n    if isinstance(node, BlockNode) \\\n  File "E:\\web2py_src\\web2py\\gluon\\template.py", line 149, in output\n    return \'\'.join(output_aux(node, blocks) for node in self.nodes)\n  File "E:\\web2py_src\\web2py\\gluon\\template.py", line 149, in <genexpr>\n    return \'\'.join(output_aux(node, blocks) for node in self.nodes)\n  File "E:\\web2py_src\\web2py\\gluon\\template.py", line 77, in output_aux\n    if isinstance(node, BlockNode) \\\n  File "E:\\web2py_src\\web2py\\gluon\\template.py", line 149, in output\n    return \'\'.join(output_aux(node, blocks) for node in self.nodes)\n  File "E:\\web2py_src\\web2py\\gluon\\template.py", line 149, in <genexpr>\n    return \'\'.join(output_aux(node, blocks) for node in self.nodes)\n  File "E:\\web2py_src\\web2py\\gluon\\template.py", line 77, in output_aux\n    if isinstance(node, BlockNode) \\\n  File "E:\\web2py_src\\web2py\\gluon\\template.py", line 149, in output\n    return \'\'.join(output_aux(node, blocks) for node in self.nodes)\n  File "E:\\web2py_src\\web2py\\gluon\\template.py", line 149, in <genexpr>\n    return \'\'.join(output_aux(node, blocks) for node in self.nodes)\n  File "E:\\web2py_src\\web2py\\gluon\\template.py", line 77, in output_aux\n    if isinstance(node, BlockNode) \\\n  File "E:\\web2py_src\\web2py\\gluon\\template.py", line 149, in output\n    return \'\'.join(output_aux(node, blocks) for node in self.nodes)\n  File "E:\\web2py_src\\web2py\\gluon\\template.py", line 149, in <genexpr>\n    return \'\'.join(output_aux(node, blocks) for node in self.nodes)\n  File "E:\\web2py_src\\web2py\\gluon\\template.py", line 77, in output_aux\n    if isinstance(node, BlockNode) \\\n  File "E:\\web2py_src\\web2py\\gluon\\template.py", line 149, in output\n    return \'\'.join(output_aux(node, blocks) for node in self.nodes)\n  File "E:\\web2py_src\\web2py\\gluon\\template.py", line 149, in <genexpr>\n    return \'\'.join(output_aux(node, blocks) for node in self.nodes)\n  File "E:\\web2py_src\\web2py\\gluon\\template.py", line 77, in output_aux\n    if isinstance(node, BlockNode) \\\n  File "E:\\web2py_src\\web2py\\gluon\\template.py", line 149, in output\n    return \'\'.join(output_aux(node, blocks) for node in self.nodes)\n  File "E:\\web2py_src\\web2py\\gluon\\template.py", line 149, in <genexpr>\n    return \'\'.join(output_aux(node, blocks) for node in self.nodes)\n  File "E:\\web2py_src\\web2py\\gluon\\template.py", line 77, in output_aux\n    if isinstance(node, BlockNode) \\\n  File "E:\\web2py_src\\web2py\\gluon\\template.py", line 149, in output\n    return \'\'.join(output_aux(node, blocks) for node in self.nodes)\n  File "E:\\web2py_src\\web2py\\gluon\\template.py", line 149, in <genexpr>\n    return \'\'.join(output_aux(node, blocks) for node in self.nodes)\n  File "E:\\web2py_src\\web2py\\gluon\\template.py", line 77, in output_aux\n    if isinstance(node, BlockNode) \\\n  File "E:\\web2py_src\\web2py\\gluon\\template.py", line 149, in output\n    return \'\'.join(output_aux(node, blocks) for node in self.nodes)\n  File "E:\\web2py_src\\web2py\\gluon\\template.py", line 149, in <genexpr>\n    return \'\'.join(output_aux(node, blocks) for node in self.nodes)\n  File "E:\\web2py_src\\web2py\\gluon\\template.py", line 77, in output_aux\n    if isinstance(node, BlockNode) \\\n  File "E:\\web2py_src\\web2py\\gluon\\template.py", line 149, in output\n    return \'\'.join(output_aux(node, blocks) for node in self.nodes)\n  File "E:\\web2py_src\\web2py\\gluon\\template.py", line 149, in <genexpr>\n    return \'\'.join(output_aux(node, blocks) for node in self.nodes)\n  File "E:\\web2py_src\\web2py\\gluon\\template.py", line 77, in output_aux\n    if isinstance(node, BlockNode) \\\n  File "E:\\web2py_src\\web2py\\gluon\\template.py", line 149, in output\n    return \'\'.join(output_aux(node, blocks) for node in self.nodes)\n  File "E:\\web2py_src\\web2py\\gluon\\template.py", line 149, in <genexpr>\n    return \'\'.join(output_aux(node, blocks) for node in self.nodes)\n  File "E:\\web2py_src\\web2py\\gluon\\template.py", line 77, in output_aux\n    if isinstance(node, BlockNode) \\\n  File "E:\\web2py_src\\web2py\\gluon\\template.py", line 149, in output\n    return \'\'.join(output_aux(node, blocks) for node in self.nodes)\n  File "E:\\web2py_src\\web2py\\gluon\\template.py", line 149, in <genexpr>\n    return \'\'.join(output_aux(node, blocks) for node in self.nodes)\n  File "E:\\web2py_src\\web2py\\gluon\\template.py", line 77, in output_aux\n    if isinstance(node, BlockNode) \\\n  File "E:\\web2py_src\\web2py\\gluon\\template.py", line 149, in output\n    return \'\'.join(output_aux(node, blocks) for node in self.nodes)\n  File "E:\\web2py_src\\web2py\\gluon\\template.py", line 149, in <genexpr>\n    return \'\'.join(output_aux(node, blocks) for node in self.nodes)\n  File "E:\\web2py_src\\web2py\\gluon\\template.py", line 77, in output_aux\n    if isinstance(node, BlockNode) \\\n  File "E:\\web2py_src\\web2py\\gluon\\template.py", line 149, in output\n    return \'\'.join(output_aux(node, blocks) for node in self.nodes)\n  File "E:\\web2py_src\\web2py\\gluon\\template.py", line 149, in <genexpr>\n    return \'\'.join(output_aux(node, blocks) for node in self.nodes)\n  File "E:\\web2py_src\\web2py\\gluon\\template.py", line 77, in output_aux\n    if isinstance(node, BlockNode) \\\n  File "E:\\web2py_src\\web2py\\gluon\\template.py", line 149, in output\n    return \'\'.join(output_aux(node, blocks) for node in self.nodes)\n  File "E:\\web2py_src\\web2py\\gluon\\template.py", line 149, in <genexpr>\n    return \'\'.join(output_aux(node, blocks) for node in self.nodes)\n  File "E:\\web2py_src\\web2py\\gluon\\template.py", line 77, in output_aux\n    if isinstance(node, BlockNode) \\\n  File "E:\\web2py_src\\web2py\\gluon\\template.py", line 149, in output\n    return \'\'.join(output_aux(node, blocks) for node in self.nodes)\n  File "E:\\web2py_src\\web2py\\gluon\\template.py", line 149, in <genexpr>\n    return \'\'.join(output_aux(node, blocks) for node in self.nodes)\n  File "E:\\web2py_src\\web2py\\gluon\\template.py", line 77, in output_aux\n    if isinstance(node, BlockNode) \\\n  File "E:\\web2py_src\\web2py\\gluon\\template.py", line 149, in output\n    return \'\'.join(output_aux(node, blocks) for node in self.nodes)\n  File "E:\\web2py_src\\web2py\\gluon\\template.py", line 149, in <genexpr>\n    return \'\'.join(output_aux(node, blocks) for node in self.nodes)\n  File "E:\\web2py_src\\web2py\\gluon\\template.py", line 77, in output_aux\n    if isinstance(node, BlockNode) \\\n  File "E:\\web2py_src\\web2py\\gluon\\template.py", line 149, in output\n    return \'\'.join(output_aux(node, blocks) for node in self.nodes)\n  File "E:\\web2py_src\\web2py\\gluon\\template.py", line 149, in <genexpr>\n    return \'\'.join(output_aux(node, blocks) for node in self.nodes)\n  File "E:\\web2py_src\\web2py\\gluon\\template.py", line 77, in output_aux\n    if isinstance(node, BlockNode) \\\n  File "E:\\web2py_src\\web2py\\gluon\\template.py", line 149, in output\n    return \'\'.join(output_aux(node, blocks) for node in self.nodes)\n  File "E:\\web2py_src\\web2py\\gluon\\template.py", line 149, in <genexpr>\n    return \'\'.join(output_aux(node, blocks) for node in self.nodes)\n  File "E:\\web2py_src\\web2py\\gluon\\template.py", line 77, in output_aux\n    if isinstance(node, BlockNode) \\\n  File "E:\\web2py_src\\web2py\\gluon\\template.py", line 149, in output\n    return \'\'.join(output_aux(node, blocks) for node in self.nodes)\n  File "E:\\web2py_src\\web2py\\gluon\\template.py", line 149, in <genexpr>\n    return \'\'.join(output_aux(node, blocks) for node in self.nodes)\n  File "E:\\web2py_src\\web2py\\gluon\\template.py", line 77, in output_aux\n    if isinstance(node, BlockNode) \\\n  File "E:\\web2py_src\\web2py\\gluon\\template.py", line 149, in output\n    return \'\'.join(output_aux(node, blocks) for node in self.nodes)\n  File "E:\\web2py_src\\web2py\\gluon\\template.py", line 149, in <genexpr>\n    return \'\'.join(output_aux(node, blocks) for node in self.nodes)\n  File "E:\\web2py_src\\web2py\\gluon\\template.py", line 77, in output_aux\n    if isinstance(node, BlockNode) \\\n  File "E:\\web2py_src\\web2py\\gluon\\template.py", line 149, in output\n    return \'\'.join(output_aux(node, blocks) for node in self.nodes)\n  File "E:\\web2py_src\\web2py\\gluon\\template.py", line 149, in <genexpr>\n    return \'\'.join(output_aux(node, blocks) for node in self.nodes)\n  File "E:\\web2py_src\\web2py\\gluon\\template.py", line 77, in output_aux\n    if isinstance(node, BlockNode) \\\n  File "E:\\web2py_src\\web2py\\gluon\\template.py", line 149, in output\n    return \'\'.join(output_aux(node, blocks) for node in self.nodes)\n  File "E:\\web2py_src\\web2py\\gluon\\template.py", line 149, in <genexpr>\n    return \'\'.join(output_aux(node, blocks) for node in self.nodes)\n  File "E:\\web2py_src\\web2py\\gluon\\template.py", line 77, in output_aux\n    if isinstance(node, BlockNode) \\\n  File "E:\\web2py_src\\web2py\\gluon\\template.py", line 149, in output\n    return \'\'.join(output_aux(node, blocks) for node in self.nodes)\n  File "E:\\web2py_src\\web2py\\gluon\\template.py", line 149, in <genexpr>\n    return \'\'.join(output_aux(node, blocks) for node in self.nodes)\n  File "E:\\web2py_src\\web2py\\gluon\\template.py", line 77, in output_aux\n    if isinstance(node, BlockNode) \\\n  File "E:\\web2py_src\\web2py\\gluon\\template.py", line 149, in output\n    return \'\'.join(output_aux(node, blocks) for node in self.nodes)\n  File "E:\\web2py_src\\web2py\\gluon\\template.py", line 149, in <genexpr>\n    return \'\'.join(output_aux(node, blocks) for node in self.nodes)\n  File "E:\\web2py_src\\web2py\\gluon\\template.py", line 77, in output_aux\n    if isinstance(node, BlockNode) \\\n  File "E:\\web2py_src\\web2py\\gluon\\template.py", line 149, in output\n    return \'\'.join(output_aux(node, blocks) for node in self.nodes)\n  File "E:\\web2py_src\\web2py\\gluon\\template.py", line 149, in <genexpr>\n    return \'\'.join(output_aux(node, blocks) for node in self.nodes)\n  File "E:\\web2py_src\\web2py\\gluon\\template.py", line 77, in output_aux\n    if isinstance(node, BlockNode) \\\n  File "E:\\web2py_src\\web2py\\gluon\\template.py", line 149, in output\n    return \'\'.join(output_aux(node, blocks) for node in self.nodes)\n  File "E:\\web2py_src\\web2py\\gluon\\template.py", line 149, in <genexpr>\n    return \'\'.join(output_aux(node, blocks) for node in self.nodes)\n  File "E:\\web2py_src\\web2py\\gluon\\template.py", line 77, in output_aux\n    if isinstance(node, BlockNode) \\\n  File "E:\\web2py_src\\web2py\\gluon\\template.py", line 149, in output\n    return \'\'.join(output_aux(node, blocks) for node in self.nodes)\n  File "E:\\web2py_src\\web2py\\gluon\\template.py", line 149, in <genexpr>\n    return \'\'.join(output_aux(node, blocks) for node in self.nodes)\n  File "E:\\web2py_src\\web2py\\gluon\\template.py", line 77, in output_aux\n    if isinstance(node, BlockNode) \\\n  File "E:\\web2py_src\\web2py\\gluon\\template.py", line 149, in output\n    return \'\'.join(output_aux(node, blocks) for node in self.nodes)\n  File "E:\\web2py_src\\web2py\\gluon\\template.py", line 149, in <genexpr>\n    return \'\'.join(output_aux(node, blocks) for node in self.nodes)\n  File "E:\\web2py_src\\web2py\\gluon\\template.py", line 77, in output_aux\n    if isinstance(node, BlockNode) \\\n  File "E:\\web2py_src\\web2py\\gluon\\template.py", line 149, in output\n    return \'\'.join(output_aux(node, blocks) for node in self.nodes)\n  File "E:\\web2py_src\\web2py\\gluon\\template.py", line 149, in <genexpr>\n    return \'\'.join(output_aux(node, blocks) for node in self.nodes)\n  File "E:\\web2py_src\\web2py\\gluon\\template.py", line 77, in output_aux\n    if isinstance(node, BlockNode) \\\n  File "E:\\web2py_src\\web2py\\gluon\\template.py", line 149, in output\n    return \'\'.join(output_aux(node, blocks) for node in self.nodes)\n  File "E:\\web2py_src\\web2py\\gluon\\template.py", line 149, in <genexpr>\n    return \'\'.join(output_aux(node, blocks) for node in self.nodes)\n  File "E:\\web2py_src\\web2py\\gluon\\template.py", line 77, in output_aux\n    if isinstance(node, BlockNode) \\\n  File "E:\\web2py_src\\web2py\\gluon\\template.py", line 149, in output\n    return \'\'.join(output_aux(node, blocks) for node in self.nodes)\n  File "E:\\web2py_src\\web2py\\gluon\\template.py", line 149, in <genexpr>\n    return \'\'.join(output_aux(node, blocks) for node in self.nodes)\n  File "E:\\web2py_src\\web2py\\gluon\\template.py", line 77, in output_aux\n    if isinstance(node, BlockNode) \\\n  File "E:\\web2py_src\\web2py\\gluon\\template.py", line 149, in output\n    return \'\'.join(output_aux(node, blocks) for node in self.nodes)\n  File "E:\\web2py_src\\web2py\\gluon\\template.py", line 149, in <genexpr>\n    return \'\'.join(output_aux(node, blocks) for node in self.nodes)\n  File "E:\\web2py_src\\web2py\\gluon\\template.py", line 77, in output_aux\n    if isinstance(node, BlockNode) \\\n  File "E:\\web2py_src\\web2py\\gluon\\template.py", line 149, in output\n    return \'\'.join(output_aux(node, blocks) for node in self.nodes)\n  File "E:\\web2py_src\\web2py\\gluon\\template.py", line 149, in <genexpr>\n    return \'\'.join(output_aux(node, blocks) for node in self.nodes)\n  File "E:\\web2py_src\\web2py\\gluon\\template.py", line 77, in output_aux\n    if isinstance(node, BlockNode) \\\n  File "E:\\web2py_src\\web2py\\gluon\\template.py", line 149, in output\n    return \'\'.join(output_aux(node, blocks) for node in self.nodes)\n  File "E:\\web2py_src\\web2py\\gluon\\template.py", line 149, in <genexpr>\n    return \'\'.join(output_aux(node, blocks) for node in self.nodes)\n  File "E:\\web2py_src\\web2py\\gluon\\template.py", line 77, in output_aux\n    if isinstance(node, BlockNode) \\\n  File "E:\\web2py_src\\web2py\\gluon\\template.py", line 149, in output\n    return \'\'.join(output_aux(node, blocks) for node in self.nodes)\n  File "E:\\web2py_src\\web2py\\gluon\\template.py", line 149, in <genexpr>\n    return \'\'.join(output_aux(node, blocks) for node in self.nodes)\n  File "E:\\web2py_src\\web2py\\gluon\\template.py", line 77, in output_aux\n    if isinstance(node, BlockNode) \\\n  File "E:\\web2py_src\\web2py\\gluon\\template.py", line 149, in output\n    return \'\'.join(output_aux(node, blocks) for node in self.nodes)\n  File "E:\\web2py_src\\web2py\\gluon\\template.py", line 149, in <genexpr>\n    return \'\'.join(output_aux(node, blocks) for node in self.nodes)\n  File "E:\\web2py_src\\web2py\\gluon\\template.py", line 77, in output_aux\n    if isinstance(node, BlockNode) \\\n  File "E:\\web2py_src\\web2py\\gluon\\template.py", line 149, in output\n    return \'\'.join(output_aux(node, blocks) for node in self.nodes)\n  File "E:\\web2py_src\\web2py\\gluon\\template.py", line 149, in <genexpr>\n    return \'\'.join(output_aux(node, blocks) for node in self.nodes)\n  File "E:\\web2py_src\\web2py\\gluon\\template.py", line 77, in output_aux\n    if isinstance(node, BlockNode) \\\n  File "E:\\web2py_src\\web2py\\gluon\\template.py", line 149, in output\n    return \'\'.join(output_aux(node, blocks) for node in self.nodes)\n  File "E:\\web2py_src\\web2py\\gluon\\template.py", line 149, in <genexpr>\n    return \'\'.join(output_aux(node, blocks) for node in self.nodes)\n  File "E:\\web2py_src\\web2py\\gluon\\template.py", line 77, in output_aux\n    if isinstance(node, BlockNode) \\\n  File "E:\\web2py_src\\web2py\\gluon\\template.py", line 149, in output\n    return \'\'.join(output_aux(node, blocks) for node in self.nodes)\n  File "E:\\web2py_src\\web2py\\gluon\\template.py", line 149, in <genexpr>\n    return \'\'.join(output_aux(node, blocks) for node in self.nodes)\n  File "E:\\web2py_src\\web2py\\gluon\\template.py", line 77, in output_aux\n    if isinstance(node, BlockNode) \\\n  File "E:\\web2py_src\\web2py\\gluon\\template.py", line 149, in output\n    return \'\'.join(output_aux(node, blocks) for node in self.nodes)\n  File "E:\\web2py_src\\web2py\\gluon\\template.py", line 149, in <genexpr>\n    return \'\'.join(output_aux(node, blocks) for node in self.nodes)\n  File "E:\\web2py_src\\web2py\\gluon\\template.py", line 77, in output_aux\n    if isinstance(node, BlockNode) \\\n  File "E:\\web2py_src\\web2py\\gluon\\template.py", line 149, in output\n    return \'\'.join(output_aux(node, blocks) for node in self.nodes)\n  File "E:\\web2py_src\\web2py\\gluon\\template.py", line 149, in <genexpr>\n    return \'\'.join(output_aux(node, blocks) for node in self.nodes)\n  File "E:\\web2py_src\\web2py\\gluon\\template.py", line 77, in output_aux\n    if isinstance(node, BlockNode) \\\n  File "E:\\web2py_src\\web2py\\gluon\\template.py", line 149, in output\n    return \'\'.join(output_aux(node, blocks) for node in self.nodes)\n  File "E:\\web2py_src\\web2py\\gluon\\template.py", line 149, in <genexpr>\n    return \'\'.join(output_aux(node, blocks) for node in self.nodes)\n  File "E:\\web2py_src\\web2py\\gluon\\template.py", line 77, in output_aux\n    if isinstance(node, BlockNode) \\\n  File "E:\\web2py_src\\web2py\\gluon\\template.py", line 149, in output\n    return \'\'.join(output_aux(node, blocks) for node in self.nodes)\n  File "E:\\web2py_src\\web2py\\gluon\\template.py", line 149, in <genexpr>\n    return \'\'.join(output_aux(node, blocks) for node in self.nodes)\n  File "E:\\web2py_src\\web2py\\gluon\\template.py", line 77, in output_aux\n    if isinstance(node, BlockNode) \\\n  File "E:\\web2py_src\\web2py\\gluon\\template.py", line 149, in output\n    return \'\'.join(output_aux(node, blocks) for node in self.nodes)\n  File "E:\\web2py_src\\web2py\\gluon\\template.py", line 149, in <genexpr>\n    return \'\'.join(output_aux(node, blocks) for node in self.nodes)\n  File "E:\\web2py_src\\web2py\\gluon\\template.py", line 77, in output_aux\n    if isinstance(node, BlockNode) \\\n  File "E:\\web2py_src\\web2py\\gluon\\template.py", line 149, in output\n    return \'\'.join(output_aux(node, blocks) for node in self.nodes)\n  File "E:\\web2py_src\\web2py\\gluon\\template.py", line 149, in <genexpr>\n    return \'\'.join(output_aux(node, blocks) for node in self.nodes)\n  File "E:\\web2py_src\\web2py\\gluon\\template.py", line 77, in output_aux\n    if isinstance(node, BlockNode) \\\n  File "E:\\web2py_src\\web2py\\gluon\\template.py", line 149, in output\n    return \'\'.join(output_aux(node, blocks) for node in self.nodes)\n  File "E:\\web2py_src\\web2py\\gluon\\template.py", line 149, in <genexpr>\n    return \'\'.join(output_aux(node, blocks) for node in self.nodes)\n  File "E:\\web2py_src\\web2py\\gluon\\template.py", line 77, in output_aux\n    if isinstance(node, BlockNode) \\\n  File "E:\\web2py_src\\web2py\\gluon\\template.py", line 149, in output\n    return \'\'.join(output_aux(node, blocks) for node in self.nodes)\n  File "E:\\web2py_src\\web2py\\gluon\\template.py", line 149, in <genexpr>\n    return \'\'.join(output_aux(node, blocks) for node in self.nodes)\n  File "E:\\web2py_src\\web2py\\gluon\\template.py", line 77, in output_aux\n    if isinstance(node, BlockNode) \\\n  File "E:\\web2py_src\\web2py\\gluon\\template.py", line 149, in output\n    return \'\'.join(output_aux(node, blocks) for node in self.nodes)\n  File "E:\\web2py_src\\web2py\\gluon\\template.py", line 149, in <genexpr>\n    return \'\'.join(output_aux(node, blocks) for node in self.nodes)\n  File "E:\\web2py_src\\web2py\\gluon\\template.py", line 77, in output_aux\n    if isinstance(node, BlockNode) \\\n  File "E:\\web2py_src\\web2py\\gluon\\template.py", line 149, in output\n    return \'\'.join(output_aux(node, blocks) for node in self.nodes)\n  File "E:\\web2py_src\\web2py\\gluon\\template.py", line 149, in <genexpr>\n    return \'\'.join(output_aux(node, blocks) for node in self.nodes)\n  File "E:\\web2py_src\\web2py\\gluon\\template.py", line 77, in output_aux\n    if isinstance(node, BlockNode) \\\n  File "E:\\web2py_src\\web2py\\gluon\\template.py", line 149, in output\n    return \'\'.join(output_aux(node, blocks) for node in self.nodes)\n  File "E:\\web2py_src\\web2py\\gluon\\template.py", line 149, in <genexpr>\n    return \'\'.join(output_aux(node, blocks) for node in self.nodes)\n  File "E:\\web2py_src\\web2py\\gluon\\template.py", line 77, in output_aux\n    if isinstance(node, BlockNode) \\\n  File "E:\\web2py_src\\web2py\\gluon\\template.py", line 149, in output\n    return \'\'.join(output_aux(node, blocks) for node in self.nodes)\n  File "E:\\web2py_src\\web2py\\gluon\\template.py", line 149, in <genexpr>\n    return \'\'.join(output_aux(node, blocks) for node in self.nodes)\n  File "E:\\web2py_src\\web2py\\gluon\\template.py", line 77, in output_aux\n    if isinstance(node, BlockNode) \\\n  File "E:\\web2py_src\\web2py\\gluon\\template.py", line 149, in output\n    return \'\'.join(output_aux(node, blocks) for node in self.nodes)\n  File "E:\\web2py_src\\web2py\\gluon\\template.py", line 149, in <genexpr>\n    return \'\'.join(output_aux(node, blocks) for node in self.nodes)\n  File "E:\\web2py_src\\web2py\\gluon\\template.py", line 77, in output_aux\n    if isinstance(node, BlockNode) \\\n  File "E:\\web2py_src\\web2py\\gluon\\template.py", line 149, in output\n    return \'\'.join(output_aux(node, blocks) for node in self.nodes)\n  File "E:\\web2py_src\\web2py\\gluon\\template.py", line 149, in <genexpr>\n    return \'\'.join(output_aux(node, blocks) for node in self.nodes)\n  File "E:\\web2py_src\\web2py\\gluon\\template.py", line 77, in output_aux\n    if isinstance(node, BlockNode) \\\n  File "E:\\web2py_src\\web2py\\gluon\\template.py", line 149, in output\n    return \'\'.join(output_aux(node, blocks) for node in self.nodes)\n  File "E:\\web2py_src\\web2py\\gluon\\template.py", line 149, in <genexpr>\n    return \'\'.join(output_aux(node, blocks) for node in self.nodes)\n  File "E:\\web2py_src\\web2py\\gluon\\template.py", line 77, in output_aux\n    if isinstance(node, BlockNode) \\\n  File "E:\\web2py_src\\web2py\\gluon\\template.py", line 149, in output\n    return \'\'.join(output_aux(node, blocks) for node in self.nodes)\n  File "E:\\web2py_src\\web2py\\gluon\\template.py", line 149, in <genexpr>\n    return \'\'.join(output_aux(node, blocks) for node in self.nodes)\n  File "E:\\web2py_src\\web2py\\gluon\\template.py", line 77, in output_aux\n    if isinstance(node, BlockNode) \\\n  File "E:\\web2py_src\\web2py\\gluon\\template.py", line 149, in output\n    return \'\'.join(output_aux(node, blocks) for node in self.nodes)\n  File "E:\\web2py_src\\web2py\\gluon\\template.py", line 149, in <genexpr>\n    return \'\'.join(output_aux(node, blocks) for node in self.nodes)\n  File "E:\\web2py_src\\web2py\\gluon\\template.py", line 77, in output_aux\n    if isinstance(node, BlockNode) \\\n  File "E:\\web2py_src\\web2py\\gluon\\template.py", line 149, in output\n    return \'\'.join(output_aux(node, blocks) for node in self.nodes)\n  File "E:\\web2py_src\\web2py\\gluon\\template.py", line 149, in <genexpr>\n    return \'\'.join(output_aux(node, blocks) for node in self.nodes)\n  File "E:\\web2py_src\\web2py\\gluon\\template.py", line 78, in output_aux\n    else str(node)\n  File "E:\\web2py_src\\web2py\\gluon\\template.py", line 48, in __str__\n    return str(self.value)\n  File "E:\\web2py_src\\web2py\\gluon\\template.py", line 48, in __str__\n    return str(self.value)\n  File "E:\\web2py_src\\web2py\\gluon\\contrib\\qdb.py", line 89, in trace_dispatch\n    return self.dispatch_line(frame)\n  File "C:\\Python27\\lib\\bdb.py", line 66, in dispatch_line\n    self.user_line(frame)\n  File "E:\\web2py_src\\web2py\\gluon\\contrib\\qdb.py", line 114, in user_line\n    if not self.break_here(frame):\nRuntimeError: maximum recursion depth exceeded\n'
p9
s.