(dp1
S'output'
p2
S"<type 'exceptions.ValueError'> Incompatible dimension for X and Y matrices: X.shape[1] == 11 while Y.shape[1] == 12"
p3
sS'layer'
p4
S'/Users/josyulakrishna/Documents/web2py_src/web2py/applications/Amplify/controllers/default.py'
p5
sS'code'
p6
S'# -*- coding: utf-8 -*-\n# this file is released under public domain and you can use without limitations\n\n#########################################################################\n## This is a sample controller\n## - index is the default action of any application\n## - user is required for authentication and authorization\n## - download is for downloading files uploaded in the db (does streaming)\n## - call exposes all registered services (none by default)\n#########################################################################\n\ndef index():\n    """\n    example action using the internationalization operator T and flash\n    rendered by views/default/index.html or views/generic.html\n\n    if you need a simple wiki simple replace the two lines below with:\n    return auth.wiki()\n\n    """\n    #drone_posts()\n    #create_drones()\n    #create_news()\n    #make_clusters()\n    \n    if auth.is_logged_in():\n        name  = db.auth_user[auth.user_id].first_name\n    else:\n        name  = "Guest"\n    return locals()\n\ndef userprofile():\n     print "userprofile"\n     user = db.auth_user(username=request.args(0)) or redirect(URL(\'error\'))\n     print "getting username"\n     name=user.first_name+" "+user.last_name\n     if name=="":\n         name = user[\'username\']\n     posts = db(db.user_post.posted_by_user==user).select()\n     print posts\n     return locals()\n\ndef news():\n    redirect(URL(c="news",f="social"))\n    \ndef user():\n    if request.args(0) == \'profile\':\n        response.view = \'default/profile.html\'\n    if request.args(0) == \'register\':\n        for field in [\'first_name\', \'last_name\', \'email\']:\n            db.auth_user[field].readable = db.auth_user[field].writable = False\n    return dict(form=auth())\n\n@cache.action()\ndef download():\n    """\n    allows downloading of uploaded files\n    http://..../[app]/default/download/[filename]\n    """\n    return response.download(request, db)\n\n\ndef call():\n    """\n    exposes services. for example:\n    http://..../[app]/default/call/jsonrpc\n    decorate with @services.jsonrpc the functions to expose\n    supports xml, json, xmlrpc, jsonrpc, amfrpc, rss, csv\n    """\n    return service()\n\n\n@auth.requires_signature()\ndef data():\n    """\n    http://..../[app]/default/data/tables\n    http://..../[app]/default/data/create/[table]\n    http://..../[app]/default/data/read/[table]/[id]\n    http://..../[app]/default/data/update/[table]/[id]\n    http://..../[app]/default/data/delete/[table]/[id]\n    http://..../[app]/default/data/select/[table]\n    http://..../[app]/default/data/search/[table]\n    but URLs must be signed, i.e. linked with\n      A(\'table\',_href=URL(\'data/tables\',user_signature=True))\n    or with the signed load operator\n      LOAD(\'default\',\'data.load\',args=\'tables\',ajax=True,user_signature=True)\n    """\n    return dict(form=crud())\n\ndef profile():\n    return locals()\n\n@auth.requires_login()    \ndef interests():\n    row = db(db.user_interests.user_id == auth.user_id).select()\n    field_list = [\'Science\', \'Arts\', \'Bussiness and Economy\', \'Computers and Techonology\', \'Health\', \'Home and Domestic Life\', \'News\',\'Recreation Activities\', \'Reference Education\', \'Shopping\', \'Society\', \'Sports\']\n    filled_interests = dict()\n    if row:\n        for i,word in enumerate(db.user_interests.fields[2:]):\n            filled_interests[field_list[i]] = row[0][word]\n        print filled_interests\n    else:\n        noInterest = \'none\'\n    return locals()\n\ndef set_interests():\n    print "in set interest"\n    print(auth.user_id)\n    field_list = [\'Science\', \'Arts\', \'Bussiness and Economy\', \'Computers and Techonology\', \'Health\', \'Home and Domestic Life\', \'News\',\'Recreation Activities\', \'Reference Education\', \'Shopping\', \'Society\', \'Sports\']\n    for interest in request.vars.values()[0]:\n        if interest in field_list:\n            field_list[field_list.index(interest)] = True\n    for index,interest in enumerate(field_list):\n        if interest!=True:\n            field_list[index] = False\n    fieldDict = dict(zip(db.user_interests.fields[2:], field_list))\n    fieldDict[\'user_id\']  = auth.user_id\n    row = db.user_interests(user_id=auth.user_id)\n    print(row)\n    if row:\n        row.update_record(**fieldDict)\n    else:\n        db.user_interests.insert(**fieldDict)\n    print "calling knn select"\n    if db(db.user_clusters.id>0) > 100: \n            knnSelect(auth.user_id)\n    else:\n            make_clusters()\n    #db.user_interests.insert(user_id = auth.user_id , *field_list)\n    return True\n\nresponse._vars=response._caller(set_interests)\n'
p7
sS'snapshot'
p8
(dp9
S'exception'
p10
(dp11
S'__hash__'
p12
S"<method-wrapper '__hash__' of exceptions.ValueError object>"
p13
sS'__setattr__'
p14
S"<method-wrapper '__setattr__' of exceptions.ValueError object>"
p15
sS'__reduce_ex__'
p16
S'<built-in method __reduce_ex__ of exceptions.ValueError object>'
p17
sS'__getslice__'
p18
S"<method-wrapper '__getslice__' of exceptions.ValueError object>"
p19
sS'__getitem__'
p20
S"<method-wrapper '__getitem__' of exceptions.ValueError object>"
p21
sS'__setstate__'
p22
S'<built-in method __setstate__ of exceptions.ValueError object>'
p23
sS'args'
p24
S"('Incompatible dimension for X and Y matrices: X.shape[1] == 11 while Y.shape[1] == 12',)"
p25
sS'__reduce__'
p26
S'<built-in method __reduce__ of exceptions.ValueError object>'
p27
sS'__str__'
p28
S"<method-wrapper '__str__' of exceptions.ValueError object>"
p29
sS'__format__'
p30
S'<built-in method __format__ of exceptions.ValueError object>'
p31
sS'__getattribute__'
p32
S"<method-wrapper '__getattribute__' of exceptions.ValueError object>"
p33
sS'__class__'
p34
S"<type 'exceptions.ValueError'>"
p35
sS'__unicode__'
p36
S'<built-in method __unicode__ of exceptions.ValueError object>'
p37
sS'__delattr__'
p38
S"<method-wrapper '__delattr__' of exceptions.ValueError object>"
p39
sS'__subclasshook__'
p40
S'<built-in method __subclasshook__ of type object>'
p41
sS'__repr__'
p42
S"<method-wrapper '__repr__' of exceptions.ValueError object>"
p43
sS'__dict__'
p44
S'{}'
p45
sS'__sizeof__'
p46
S'<built-in method __sizeof__ of exceptions.ValueError object>'
p47
sS'__doc__'
p48
S"'Inappropriate argument value (of correct type).'"
p49
sS'__init__'
p50
S"<method-wrapper '__init__' of exceptions.ValueError object>"
p51
sS'__new__'
p52
S'<built-in method __new__ of type object>'
p53
ssS'evalue'
p54
S'Incompatible dimension for X and Y matrices: X.shape[1] == 11 while Y.shape[1] == 12'
p55
sS'request'
p56
cgluon.html
XML_unpickle
p57
(S's\x19R\x00\x00<div><table><tr><td style="font-weight:bold;vertical-align:top">ajax</td><td valign="top">:</td><td><div>True</div></td></tr><tr><td style="font-weight:bold;vertical-align:top">application</td><td valign="top">:</td><td><div>Amplify</div></td></tr><tr><td style="font-weight:bold;vertical-align:top">args</td><td valign="top">:</td><td><div><table></table></div></td></tr><tr><td style="font-weight:bold;vertical-align:top">body</td><td valign="top">:</td><td><div>&lt;cStringIO.StringO object at 0x10af44998&gt;</div></td></tr><tr><td style="font-weight:bold;vertical-align:top">cid</td><td valign="top">:</td><td><div>None</div></td></tr><tr><td style="font-weight:bold;vertical-align:top">client</td><td valign="top">:</td><td><div>127.0.0.1</div></td></tr><tr><td style="font-weight:bold;vertical-align:top">controller</td><td valign="top">:</td><td><div>default</div></td></tr><tr><td style="font-weight:bold;vertical-align:top">cookies</td><td valign="top">:</td><td><div><table><tr><td style="font-weight:bold;vertical-align:top">session_id_amplify</td><td valign="top">:</td><td><div>127.0.0.1-dd125dee-737b-4348-bec1-6ca961130529<table><tr><td style="font-weight:bold;vertical-align:top">comment</td><td valign="top">:</td><td><div></div></td></tr><tr><td style="font-weight:bold;vertical-align:top">domain</td><td valign="top">:</td><td><div></div></td></tr><tr><td style="font-weight:bold;vertical-align:top">expires</td><td valign="top">:</td><td><div></div></td></tr><tr><td style="font-weight:bold;vertical-align:top">httponly</td><td valign="top">:</td><td><div></div></td></tr><tr><td style="font-weight:bold;vertical-align:top">max-age</td><td valign="top">:</td><td><div></div></td></tr><tr><td style="font-weight:bold;vertical-align:top">path</td><td valign="top">:</td><td><div></div></td></tr><tr><td style="font-weight:bold;vertical-align:top">secure</td><td valign="top">:</td><td><div></div></td></tr><tr><td style="font-weight:bold;vertical-align:top">version</td><td valign="top">:</td><td><div></div></td></tr></table></div></td></tr></table></div></td></tr><tr><td style="font-weight:bold;vertical-align:top">env</td><td valign="top">:</td><td><div><table><tr><td style="font-weight:bold;vertical-align:top">app_folders</td><td valign="top">:</td><td><div>set([&#x27;/Users/josyulakrishna/Documents/web2py_src/web2py/applications/welcome/&#x27;, &#x27;/Users/josyulakrishna/Documents/web2py_src/web2py/applications/admin/&#x27;, &#x27;/Users/josyulakrishna/Documents/web2py_src/web2py/applications/Amplify/&#x27;])</div></td></tr><tr><td style="font-weight:bold;vertical-align:top">applications_parent</td><td valign="top">:</td><td><div>/Users/josyulakrishna/Documents/web2py_src/web2py</div></td></tr><tr><td style="font-weight:bold;vertical-align:top">cmd_args</td><td valign="top">:</td><td><div><table></table></div></td></tr><tr><td style="font-weight:bold;vertical-align:top">cmd_options</td><td valign="top">:</td><td><div>&lt;Values at 0x103ad9b90: {&#x27;verbose&#x27;: False, &#x27;ip&#x27;: &#x27;127.0.0.1&#x27;, &#x27;with_scheduler&#x27;: False, &#x27;ips&#x27;: [&#x27;192.168.12.250&#x27;, &#x27;fe80::5ef9:38ff:fe8c:8472%en0&#x27;], &#x27;shutdown_timeout&#x27;: 5, &#x27;taskbar&#x27;: False, &#x27;with_coverage&#x27;: False, &#x27;port&#x27;: 8000, &#x27;maxthreads&#x27;: None, &#x27;softcron&#x27;: False, &#x27;server_name&#x27;: &#x27;Josyulas-MacBook-Air.local&#x27;, &#x27;bpython&#x27;: False, &#x27;nogui&#x27;: False, &#x27;pid_filename&#x27;: &#x27;httpserver.pid&#x27;, &#x27;extcron&#x27;: False, &#x27;runcron&#x27;: False, &#x27;run_system_tests&#x27;: False, &#x27;test&#x27;: None, &#x27;folder&#x27;: &#x27;/Users/josyulakrishna/Documents/web2py_src/web2py&#x27;, &#x27;config&#x27;: &#x27;&#x27;, &#x27;minthreads&#x27;: None, &#x27;winservice&#x27;: &#x27;&#x27;, &#x27;shell&#x27;: None, &#x27;run&#x27;: &#x27;&#x27;, &#x27;log_filename&#x27;: &#x27;httpserver.log&#x27;, &#x27;debuglevel&#x27;: 30, &#x27;args&#x27;: [&#x27;&#x27;], &#x27;socket_timeout&#x27;: 5, &#x27;ssl_ca_certificate&#x27;: None, &#x27;scheduler&#x27;: None, &#x27;profiler_filename&#x27;: None, &#x27;ssl_private_key&#x27;: &#x27;&#x27;, &#x27;scheduler_groups&#x27;: None, &#x27;password&#x27;: &#x27;&lt;ask&gt;&#x27;, &#x27;request_queue_size&#x27;: 5, &#x27;ssl_certificate&#x27;: &#x27;&#x27;, &#x27;cronjob&#x27;: False, &#x27;numthreads&#x27;: None, &#x27;quiet&#x27;: False, &#x27;interfaces&#x27;: None, &#x27;import_models&#x27;: False, &#x27;timeout&#x27;: 10, &#x27;plain&#x27;: False, &#x27;nobanner&#x27;: False}&gt;</div></td></tr><tr><td style="font-weight:bold;vertical-align:top">db_sessions</td><td valign="top">:</td><td><div>set([])</div></td></tr><tr><td style="font-weight:bold;vertical-align:top">debugging</td><td valign="top">:</td><td><div>False</div></td></tr><tr><td style="font-weight:bold;vertical-align:top">gluon_parent</td><td valign="top">:</td><td><div>/Users/josyulakrishna/Documents/web2py_src/web2py</div></td></tr><tr><td style="font-weight:bold;vertical-align:top">http_accept</td><td valign="top">:</td><td><div>*/*</div></td></tr><tr><td style="font-weight:bold;vertical-align:top">http_accept_encoding</td><td valign="top">:</td><td><div>gzip,deflate,sdch</div></td></tr><tr><td style="font-weight:bold;vertical-align:top">http_accept_language</td><td valign="top">:</td><td><div>en-US,en;q=0.8</div></td></tr><tr><td style="font-weight:bold;vertical-align:top">http_connection</td><td valign="top">:</td><td><div>keep-alive</div></td></tr><tr><td style="font-weight:bold;vertical-align:top">http_cookie</td><td valign="top">:</td><td><div>session_id_amplify=127.0.0.1-dd125dee-737b-4348-bec1-6ca961130529</div></td></tr><tr><td style="font-weight:bold;vertical-align:top">http_host</td><td valign="top">:</td><td><div>127.0.0.1:8000</div></td></tr><tr><td style="font-weight:bold;vertical-align:top">http_referer</td><td valign="top">:</td><td><div>http://127.0.0.1:8000/Amplify/default/interests</div></td></tr><tr><td style="font-weight:bold;vertical-align:top">http_user_agent</td><td valign="top">:</td><td><div>Mozilla/5.0 (Macintosh; Intel Mac OS X 10_9_2) AppleWebKit/537.36 (KHTML, like Gecko) Chrome/34.0.1847.131 Safari/537.36</div></td></tr><tr><td style="font-weight:bold;vertical-align:top">http_x_requested_with</td><td valign="top">:</td><td><div>XMLHttpRequest</div></td></tr><tr><td style="font-weight:bold;vertical-align:top">is_jython</td><td valign="top">:</td><td><div>False</div></td></tr><tr><td style="font-weight:bold;vertical-align:top">is_pypy</td><td valign="top">:</td><td><div>False</div></td></tr><tr><td style="font-weight:bold;vertical-align:top">local_hosts</td><td valign="top">:</td><td><div><table><tr><td><div>Josyulas-MacBook-Air.local</div></td></tr><tr><td><div>192.168.12.250</div></td></tr><tr><td><div>::ffff:127.0.0.1</div></td></tr><tr><td><div>::1</div></td></tr><tr><td><div>fe80::5ef9:38ff:fe8c:8472%en0</div></td></tr><tr><td><div>127.0.0.1</div></td></tr></table></div></td></tr><tr><td style="font-weight:bold;vertical-align:top">path_info</td><td valign="top">:</td><td><div>/Amplify/default/set_interests</div></td></tr><tr><td style="font-weight:bold;vertical-align:top">query_string</td><td valign="top">:</td><td><div>allinterests%5B%5D=News&amp;allinterests%5B%5D=Shopping&amp;allinterests%5B%5D=Society&amp;allinterests%5B%5D=Sports</div></td></tr><tr><td style="font-weight:bold;vertical-align:top">remote_addr</td><td valign="top">:</td><td><div>127.0.0.1</div></td></tr><tr><td style="font-weight:bold;vertical-align:top">remote_port</td><td valign="top">:</td><td><div>60527</div></td></tr><tr><td style="font-weight:bold;vertical-align:top">request_method</td><td valign="top">:</td><td><div>GET</div></td></tr><tr><td style="font-weight:bold;vertical-align:top">request_uri</td><td valign="top">:</td><td><div>/Amplify/default/set_interests?allinterests%5B%5D=News&amp;allinterests%5B%5D=Shopping&amp;allinterests%5B%5D=Society&amp;allinterests%5B%5D=Sports</div></td></tr><tr><td style="font-weight:bold;vertical-align:top">script_name</td><td valign="top">:</td><td><div></div></td></tr><tr><td style="font-weight:bold;vertical-align:top">server_name</td><td valign="top">:</td><td><div>Josyulas-MacBook-Air.local</div></td></tr><tr><td style="font-weight:bold;vertical-align:top">server_port</td><td valign="top">:</td><td><div>8000</div></td></tr><tr><td style="font-weight:bold;vertical-align:top">server_protocol</td><td valign="top">:</td><td><div>HTTP/1.1</div></td></tr><tr><td style="font-weight:bold;vertical-align:top">server_software</td><td valign="top">:</td><td><div>Rocket 1.2.6</div></td></tr><tr><td style="font-weight:bold;vertical-align:top">web2py_path</td><td valign="top">:</td><td><div>/Users/josyulakrishna/Documents/web2py_src/web2py</div></td></tr><tr><td style="font-weight:bold;vertical-align:top">web2py_version</td><td valign="top">:</td><td><div>2.5.1-stable+timestamp.2013.06.06.15.39.19</div></td></tr><tr><td style="font-weight:bold;vertical-align:top">wsgi_errors</td><td valign="top">:</td><td><div>&lt;open file &#x27;&lt;stderr&gt;&#x27;, mode &#x27;w&#x27; at 0x10028e1e0&gt;</div></td></tr><tr><td style="font-weight:bold;vertical-align:top">wsgi_file_wrapper</td><td valign="top">:</td><td><div>&lt;class wsgiref.util.FileWrapper at 0x10369f4c8&gt;</div></td></tr><tr><td style="font-weight:bold;vertical-align:top">wsgi_input</td><td valign="top">:</td><td><div>&lt;socket._fileobject object at 0x10acfed50&gt;</div></td></tr><tr><td style="font-weight:bold;vertical-align:top">wsgi_multiprocess</td><td valign="top">:</td><td><div>False</div></td></tr><tr><td style="font-weight:bold;vertical-align:top">wsgi_multithread</td><td valign="top">:</td><td><div>True</div></td></tr><tr><td style="font-weight:bold;vertical-align:top">wsgi_run_once</td><td valign="top">:</td><td><div>False</div></td></tr><tr><td style="font-weight:bold;vertical-align:top">wsgi_url_scheme</td><td valign="top">:</td><td><div>http</div></td></tr><tr><td style="font-weight:bold;vertical-align:top">wsgi_version</td><td valign="top">:</td><td><div><table><tr><td><div>1</div></td></tr><tr><td><div>0</div></td></tr></table></div></td></tr></table></div></td></tr><tr><td style="font-weight:bold;vertical-align:top">extension</td><td valign="top">:</td><td><div>html</div></td></tr><tr><td style="font-weight:bold;vertical-align:top">folder</td><td valign="top">:</td><td><div>/Users/josyulakrishna/Documents/web2py_src/web2py/applications/Amplify/</div></td></tr><tr><td style="font-weight:bold;vertical-align:top">function</td><td valign="top">:</td><td><div>set_interests</div></td></tr><tr><td style="font-weight:bold;vertical-align:top">get_vars</td><td valign="top">:</td><td><div><table><tr><td style="font-weight:bold;vertical-align:top">allinterests[]</td><td valign="top">:</td><td><div><table><tr><td><div>News</div></td></tr><tr><td><div>Shopping</div></td></tr><tr><td><div>Society</div></td></tr><tr><td><div>Sports</div></td></tr></table></div></td></tr></table></div></td></tr><tr><td style="font-weight:bold;vertical-align:top">global_settings</td><td valign="top">:</td><td><div><table><tr><td style="font-weight:bold;vertical-align:top">app_folders</td><td valign="top">:</td><td><div>set([&#x27;/Users/josyulakrishna/Documents/web2py_src/web2py/applications/welcome/&#x27;, &#x27;/Users/josyulakrishna/Documents/web2py_src/web2py/applications/admin/&#x27;, &#x27;/Users/josyulakrishna/Documents/web2py_src/web2py/applications/Amplify/&#x27;])</div></td></tr><tr><td style="font-weight:bold;vertical-align:top">applications_parent</td><td valign="top">:</td><td><div>/Users/josyulakrishna/Documents/web2py_src/web2py</div></td></tr><tr><td style="font-weight:bold;vertical-align:top">cmd_args</td><td valign="top">:</td><td><div><table></table></div></td></tr><tr><td style="font-weight:bold;vertical-align:top">cmd_options</td><td valign="top">:</td><td><div>&lt;Values at 0x103ad9b90: {&#x27;verbose&#x27;: False, &#x27;ip&#x27;: &#x27;127.0.0.1&#x27;, &#x27;with_scheduler&#x27;: False, &#x27;ips&#x27;: [&#x27;192.168.12.250&#x27;, &#x27;fe80::5ef9:38ff:fe8c:8472%en0&#x27;], &#x27;shutdown_timeout&#x27;: 5, &#x27;taskbar&#x27;: False, &#x27;with_coverage&#x27;: False, &#x27;port&#x27;: 8000, &#x27;maxthreads&#x27;: None, &#x27;softcron&#x27;: False, &#x27;server_name&#x27;: &#x27;Josyulas-MacBook-Air.local&#x27;, &#x27;bpython&#x27;: False, &#x27;nogui&#x27;: False, &#x27;pid_filename&#x27;: &#x27;httpserver.pid&#x27;, &#x27;extcron&#x27;: False, &#x27;runcron&#x27;: False, &#x27;run_system_tests&#x27;: False, &#x27;test&#x27;: None, &#x27;folder&#x27;: &#x27;/Users/josyulakrishna/Documents/web2py_src/web2py&#x27;, &#x27;config&#x27;: &#x27;&#x27;, &#x27;minthreads&#x27;: None, &#x27;winservice&#x27;: &#x27;&#x27;, &#x27;shell&#x27;: None, &#x27;run&#x27;: &#x27;&#x27;, &#x27;log_filename&#x27;: &#x27;httpserver.log&#x27;, &#x27;debuglevel&#x27;: 30, &#x27;args&#x27;: [&#x27;&#x27;], &#x27;socket_timeout&#x27;: 5, &#x27;ssl_ca_certificate&#x27;: None, &#x27;scheduler&#x27;: None, &#x27;profiler_filename&#x27;: None, &#x27;ssl_private_key&#x27;: &#x27;&#x27;, &#x27;scheduler_groups&#x27;: None, &#x27;password&#x27;: &#x27;&lt;ask&gt;&#x27;, &#x27;request_queue_size&#x27;: 5, &#x27;ssl_certificate&#x27;: &#x27;&#x27;, &#x27;cronjob&#x27;: False, &#x27;numthreads&#x27;: None, &#x27;quiet&#x27;: False, &#x27;interfaces&#x27;: None, &#x27;import_models&#x27;: False, &#x27;timeout&#x27;: 10, &#x27;plain&#x27;: False, &#x27;nobanner&#x27;: False}&gt;</div></td></tr><tr><td style="font-weight:bold;vertical-align:top">db_sessions</td><td valign="top">:</td><td><div>set([])</div></td></tr><tr><td style="font-weight:bold;vertical-align:top">debugging</td><td valign="top">:</td><td><div>False</div></td></tr><tr><td style="font-weight:bold;vertical-align:top">gluon_parent</td><td valign="top">:</td><td><div>/Users/josyulakrishna/Documents/web2py_src/web2py</div></td></tr><tr><td style="font-weight:bold;vertical-align:top">is_jython</td><td valign="top">:</td><td><div>False</div></td></tr><tr><td style="font-weight:bold;vertical-align:top">is_pypy</td><td valign="top">:</td><td><div>False</div></td></tr><tr><td style="font-weight:bold;vertical-align:top">local_hosts</td><td valign="top">:</td><td><div><table><tr><td><div>Josyulas-MacBook-Air.local</div></td></tr><tr><td><div>192.168.12.250</div></td></tr><tr><td><div>::ffff:127.0.0.1</div></td></tr><tr><td><div>::1</div></td></tr><tr><td><div>fe80::5ef9:38ff:fe8c:8472%en0</div></td></tr><tr><td><div>127.0.0.1</div></td></tr></table></div></td></tr><tr><td style="font-weight:bold;vertical-align:top">web2py_version</td><td valign="top">:</td><td><div>2.5.1-stable+timestamp.2013.06.06.15.39.19</div></td></tr></table></div></td></tr><tr><td style="font-weight:bold;vertical-align:top">is_https</td><td valign="top">:</td><td><div>False</div></td></tr><tr><td style="font-weight:bold;vertical-align:top">is_local</td><td valign="top">:</td><td><div>True</div></td></tr><tr><td style="font-weight:bold;vertical-align:top">is_restful</td><td valign="top">:</td><td><div>False</div></td></tr><tr><td style="font-weight:bold;vertical-align:top">now</td><td valign="top">:</td><td><div>datetime.datetime(2014, 4, 28, 18, 40, 54, 779308)</div></td></tr><tr><td style="font-weight:bold;vertical-align:top">post_vars</td><td valign="top">:</td><td><div><table></table></div></td></tr><tr><td style="font-weight:bold;vertical-align:top">raw_args</td><td valign="top">:</td><td><div></div></td></tr><tr><td style="font-weight:bold;vertical-align:top">raw_extension</td><td valign="top">:</td><td><div>None</div></td></tr><tr><td style="font-weight:bold;vertical-align:top">url</td><td valign="top">:</td><td><div>/Amplify/default/set_interests</div></td></tr><tr><td style="font-weight:bold;vertical-align:top">utcnow</td><td valign="top">:</td><td><div>datetime.datetime(2014, 4, 28, 13, 10, 54, 779316)</div></td></tr><tr><td style="font-weight:bold;vertical-align:top">uuid</td><td valign="top">:</td><td><div>Amplify/127.0.0.1.2014-04-28.18-40-54.31c369fc-edcb-4f45-93e4-89dad6f50040</div></td></tr><tr><td style="font-weight:bold;vertical-align:top">vars</td><td valign="top">:</td><td><div><table><tr><td style="font-weight:bold;vertical-align:top">allinterests[]</td><td valign="top">:</td><td><div><table><tr><td><div>News</div></td></tr><tr><td><div>Shopping</div></td></tr><tr><td><div>Society</div></td></tr><tr><td><div>Sports</div></td></tr></table></div></td></tr></table></div></td></tr><tr><td style="font-weight:bold;vertical-align:top">wsgi</td><td valign="top">:</td><td><div><table><tr><td style="font-weight:bold;vertical-align:top">environ</td><td valign="top">:</td><td><div><table><tr><td style="font-weight:bold;vertical-align:top">HTTP_ACCEPT</td><td valign="top">:</td><td><div>*/*</div></td></tr><tr><td style="font-weight:bold;vertical-align:top">HTTP_ACCEPT_ENCODING</td><td valign="top">:</td><td><div>gzip,deflate,sdch</div></td></tr><tr><td style="font-weight:bold;vertical-align:top">HTTP_ACCEPT_LANGUAGE</td><td valign="top">:</td><td><div>en-US,en;q=0.8</div></td></tr><tr><td style="font-weight:bold;vertical-align:top">HTTP_CONNECTION</td><td valign="top">:</td><td><div>keep-alive</div></td></tr><tr><td style="font-weight:bold;vertical-align:top">HTTP_COOKIE</td><td valign="top">:</td><td><div>session_id_amplify=127.0.0.1-dd125dee-737b-4348-bec1-6ca961130529</div></td></tr><tr><td style="font-weight:bold;vertical-align:top">HTTP_HOST</td><td valign="top">:</td><td><div>127.0.0.1:8000</div></td></tr><tr><td style="font-weight:bold;vertical-align:top">HTTP_REFERER</td><td valign="top">:</td><td><div>http://127.0.0.1:8000/Amplify/default/interests</div></td></tr><tr><td style="font-weight:bold;vertical-align:top">HTTP_USER_AGENT</td><td valign="top">:</td><td><div>Mozilla/5.0 (Macintosh; Intel Mac OS X 10_9_2) AppleWebKit/537.36 (KHTML, like Gecko) Chrome/34.0.1847.131 Safari/537.36</div></td></tr><tr><td style="font-weight:bold;vertical-align:top">HTTP_X_REQUESTED_WITH</td><td valign="top">:</td><td><div>XMLHttpRequest</div></td></tr><tr><td style="font-weight:bold;vertical-align:top">PATH_INFO</td><td valign="top">:</td><td><div>/Amplify/default/set_interests</div></td></tr><tr><td style="font-weight:bold;vertical-align:top">QUERY_STRING</td><td valign="top">:</td><td><div>allinterests%5B%5D=News&amp;allinterests%5B%5D=Shopping&amp;allinterests%5B%5D=Society&amp;allinterests%5B%5D=Sports</div></td></tr><tr><td style="font-weight:bold;vertical-align:top">REMOTE_ADDR</td><td valign="top">:</td><td><div>127.0.0.1</div></td></tr><tr><td style="font-weight:bold;vertical-align:top">REMOTE_PORT</td><td valign="top">:</td><td><div>60527</div></td></tr><tr><td style="font-weight:bold;vertical-align:top">REQUEST_METHOD</td><td valign="top">:</td><td><div>GET</div></td></tr><tr><td style="font-weight:bold;vertical-align:top">REQUEST_URI</td><td valign="top">:</td><td><div>/Amplify/default/set_interests?allinterests%5B%5D=News&amp;allinterests%5B%5D=Shopping&amp;allinterests%5B%5D=Society&amp;allinterests%5B%5D=Sports</div></td></tr><tr><td style="font-weight:bold;vertical-align:top">SCRIPT_NAME</td><td valign="top">:</td><td><div></div></td></tr><tr><td style="font-weight:bold;vertical-align:top">SERVER_NAME</td><td valign="top">:</td><td><div>Josyulas-MacBook-Air.local</div></td></tr><tr><td style="font-weight:bold;vertical-align:top">SERVER_PORT</td><td valign="top">:</td><td><div>8000</div></td></tr><tr><td style="font-weight:bold;vertical-align:top">SERVER_PROTOCOL</td><td valign="top">:</td><td><div>HTTP/1.1</div></td></tr><tr><td style="font-weight:bold;vertical-align:top">SERVER_SOFTWARE</td><td valign="top">:</td><td><div>Rocket 1.2.6</div></td></tr><tr><td style="font-weight:bold;vertical-align:top">wsgi.errors</td><td valign="top">:</td><td><div>&lt;open file &#x27;&lt;stderr&gt;&#x27;, mode &#x27;w&#x27; at 0x10028e1e0&gt;</div></td></tr><tr><td style="font-weight:bold;vertical-align:top">wsgi.file_wrapper</td><td valign="top">:</td><td><div>&lt;class wsgiref.util.FileWrapper at 0x10369f4c8&gt;</div></td></tr><tr><td style="font-weight:bold;vertical-align:top">wsgi.input</td><td valign="top">:</td><td><div>&lt;cStringIO.StringO object at 0x10af44998&gt;</div></td></tr><tr><td style="font-weight:bold;vertical-align:top">wsgi.multiprocess</td><td valign="top">:</td><td><div>False</div></td></tr><tr><td style="font-weight:bold;vertical-align:top">wsgi.multithread</td><td valign="top">:</td><td><div>True</div></td></tr><tr><td style="font-weight:bold;vertical-align:top">wsgi.run_once</td><td valign="top">:</td><td><div>False</div></td></tr><tr><td style="font-weight:bold;vertical-align:top">wsgi.url_scheme</td><td valign="top">:</td><td><div>http</div></td></tr><tr><td style="font-weight:bold;vertical-align:top">wsgi.version</td><td valign="top">:</td><td><div>1</div></td></tr></table></div></td></tr></table></div></td></tr></table></div>'
tRp58
sS'frames'
p59
(lp60
(dp61
S'file'
p62
S'/Users/josyulakrishna/Documents/web2py_src/web2py/gluon/restricted.py'
p63
sS'dump'
p64
(dp65
S'environment'
p66
S"{'A': <class 'gluon.html.A'>, 'ANY_OF': <class 'gluon.validators.ANY_OF'>, 'Auth': <class 'gluon.tools.Auth'>, 'B': <class 'gluon.html.B'>, 'BEAUTIFY': <class 'gluon.html.BEAUTIFY'>, 'BODY': <class 'gluon.html.BODY'>, 'BR': <class 'gluon.html.BR'>, 'BUTTON': <class 'gluon.html.BUTTON'>, 'BeautifulSoup': <class 'bs4.BeautifulSoup'>, 'CAT': <class 'gluon.html.CAT'>, ...}"
p67
sS'ccode'
p68
S'<code object <module> at 0x10ad40630, file "/Use...cations/Amplify/controllers/default.py", line 12>'
p69
ssS'lnum'
p70
I212
sS'lines'
p71
(dp72
I207
S'    try:'
p73
sI208
S'        if isinstance(code, types.CodeType):'
p74
sI209
S'            ccode = code'
p75
sI210
S'        else:'
p76
sI211
S'            ccode = compile2(code, layer)'
p77
sI212
S'        exec ccode in environment'
p78
sI213
S'    except HTTP:'
p79
sI214
S'        raise'
p80
sI215
S'    except RestrictedError:'
p81
sI216
S'        # do not encapsulate (obfuscate) the original RestrictedError'
p82
ssS'call'
p83
S"(code='# -*- coding: utf-8 -*-\\n# this file is released ...\\n\\nresponse._vars=response._caller(set_interests)\\n', environment={'A': <class 'gluon.html.A'>, 'ANY_OF': <class 'gluon.validators.ANY_OF'>, 'Auth': <class 'gluon.tools.Auth'>, 'B': <class 'gluon.html.B'>, 'BEAUTIFY': <class 'gluon.html.BEAUTIFY'>, 'BODY': <class 'gluon.html.BODY'>, 'BR': <class 'gluon.html.BR'>, 'BUTTON': <class 'gluon.html.BUTTON'>, 'BeautifulSoup': <class 'bs4.BeautifulSoup'>, 'CAT': <class 'gluon.html.CAT'>, ...}, layer='/Users/josyulakrishna/Documents/web2py_src/web2py/applications/Amplify/controllers/default.py')"
p84
sS'func'
p85
S'restricted'
p86
sa(dp87
g62
S'/Users/josyulakrishna/Documents/web2py_src/web2py/applications/Amplify/controllers/default.py'
p88
sg64
(dp89
sg70
I132
sg71
(dp90
I128
S'            make_clusters()'
p91
sI129
S'    #db.user_interests.insert(user_id = auth.user_id , *field_list)'
p92
sI130
S'    return True'
p93
sI121
S'        row.update_record(**fieldDict)'
p94
sI122
S'    else:'
p95
sI123
S'        db.user_interests.insert(**fieldDict)'
p96
sI124
S'    print "calling knn select"'
p97
sI125
S'    if db(db.user_clusters.id>0) > 100:'
p98
sI126
S'            knnSelect(auth.user_id)'
p99
sI127
S'    else:'
p100
ssg83
S'()'
p101
sg85
S'<module>'
p102
sa(dp103
g62
S'/Users/josyulakrishna/Documents/web2py_src/web2py/gluon/globals.py'
p104
sg64
(dp105
S'self'
p106
S'undefined'
p107
sS'f'
S'<function set_interests>'
p108
ssg70
I194
sg71
(dp109
I192
S"        self.delimiters = ('{{', '}}')"
p110
sI193
S'        self._vars = None'
p111
sI194
S'        self._caller = lambda f: f()'
p112
sI195
S'        self._view_environment = None'
p113
sI196
S'        self._custom_commit = None'
p114
sI197
S'        self._custom_rollback = None'
p115
sI198
S''
sI189
S'        self.menu = []             # used by the default view layout'
p116
sI190
S'        self.files = []            # used by web2py_ajax.html'
p117
sI191
S'        self.generic_patterns = []  # patterns to allow generic views'
p118
ssg83
S'(f=<function set_interests>)'
p119
sg85
S'<lambda>'
p120
sa(dp121
g62
S'/Users/josyulakrishna/Documents/web2py_src/web2py/applications/Amplify/controllers/default.py'
p122
sg64
(dp123
S'global knnSelect'
p124
S'<function knnSelect>'
p125
sS'global auth'
p126
S'<gluon.tools.Auth object>'
p127
sS'auth.user_id'
p128
S'8L'
p129
ssg70
I126
sg71
(dp130
I128
S'            make_clusters()'
p131
sI129
S'    #db.user_interests.insert(user_id = auth.user_id , *field_list)'
p132
sI130
S'    return True'
p133
sI121
S'        row.update_record(**fieldDict)'
p134
sI122
S'    else:'
p135
sI123
S'        db.user_interests.insert(**fieldDict)'
p136
sI124
S'    print "calling knn select"'
p137
sI125
S'    if db(db.user_clusters.id>0) > 100:'
p138
sI126
S'            knnSelect(auth.user_id)'
p139
sI127
S'    else:'
p140
ssg83
S'()'
p141
sg85
S'set_interests'
p142
sa(dp143
g62
S'/Users/josyulakrishna/Documents/web2py_src/web2py/applications/Amplify/models/scheduler.py'
p144
sg64
(dp145
S'knn'
p146
S"KNeighborsClassifier(algorithm='auto', leaf_size...          n_neighbors=5, p=2, weights='distance')"
p147
sS'clusterId'
p148
g107
sS'knn.predict'
p149
S"<bound method KNeighborsClassifier.predict of KN...         n_neighbors=5, p=2, weights='distance')>"
p150
sS'aRow'
p151
S'array([ 0.,  0.,  0.,  0.,  0.,  1.,  0.,  0.,  1.,  1.,  1.])'
p152
ssg70
I130
sg71
(dp153
I128
S'    aRow = np.array(aRow[1:])'
p154
sI129
S'    aRow = aRow.astype(float)'
p155
sI130
S'    clusterId =  knn.predict(aRow)'
p156
sI131
S'    db.user_clusters.insert(user_id=userid, cluster_id=int(clusterId[0] ))'
p157
sI132
S'    print clusterId'
p158
sI133
S'    return 0'
p159
sI134
S''
sI125
S'               aRow.append(row[field])'
p160
sI126
S'    print aRow'
p161
sI127
S'    print len(aRow)'
p162
ssg83
S'(userid=8L)'
p163
sg85
S'knnSelect'
p164
sa(dp165
g62
S'/Users/josyulakrishna/Documents/PythonPackages/anaconda/lib/python2.7/site-packages/sklearn/neighbors/classification.py'
p166
sg64
(dp167
S'X'
S'array([[ 0.,  0.,  0.,  0.,  0.,  1.,  0.,  0.,  1.,  1.,  1.]])'
p168
sS'self'
p169
S"KNeighborsClassifier(algorithm='auto', leaf_size...          n_neighbors=5, p=2, weights='distance')"
p170
sS'neigh_ind'
p171
g107
sS'neigh_dist'
p172
g107
sS'self.kneighbors'
p173
S"<bound method KNeighborsClassifier.kneighbors of...         n_neighbors=5, p=2, weights='distance')>"
p174
ssg70
I146
sg71
(dp175
I141
S'        y : array of shape [n_samples] or [n_samples, n_outputs]'
p176
sI142
S'            Class labels for each data sample.'
p177
sI143
S'        """'
p178
sI144
S'        X = atleast2d_or_csr(X)'
p179
sI145
S''
sI146
S'        neigh_dist, neigh_ind = self.kneighbors(X)'
p180
sI147
S''
sI148
S'        classes_ = self.classes_'
p181
sI149
S'        _y = self._y'
p182
sI150
S'        if not self.outputs_2d_:'
p183
ssg83
S"(self=KNeighborsClassifier(algorithm='auto', leaf_size...          n_neighbors=5, p=2, weights='distance'), X=array([[ 0.,  0.,  0.,  0.,  0.,  1.,  0.,  0.,  1.,  1.,  1.]]))"
p184
sg85
S'predict'
p185
sa(dp186
g62
S'/Users/josyulakrishna/Documents/PythonPackages/anaconda/lib/python2.7/site-packages/sklearn/neighbors/base.py'
p187
sg64
(dp188
S'builtinTrue'
p189
S'True'
p190
sS'squared'
p191
g107
ssg70
I294
sg71
(dp192
I289
S''
sI290
S"        if self._fit_method == 'brute':"
p193
sI291
S'            # for efficiency, use squared euclidean distances'
p194
sI292
S"            if self.effective_metric_ == 'euclidean':"
p195
sI293
S"                dist = pairwise_distances(X, self._fit_X, 'euclidean',"
p196
sI294
S'                                          squared=True)'
p197
sI295
S'            else:'
p198
sI296
S'                dist = pairwise_distances(X, self._fit_X,'
p199
sI297
S'                                          self.effective_metric_,'
p200
sI298
S'                                          **self.effective_metric_kwds_)'
p201
ssg83
S"(self=KNeighborsClassifier(algorithm='auto', leaf_size...          n_neighbors=5, p=2, weights='distance'), X=array([[ 0.,  0.,  0.,  0.,  0.,  1.,  0.,  0.,  1.,  1.,  1.]]), n_neighbors=5, return_distance=True)"
p202
sg85
S'kneighbors'
p203
sa(dp204
g62
S'/Users/josyulakrishna/Documents/PythonPackages/anaconda/lib/python2.7/site-packages/sklearn/metrics/pairwise.py'
p205
sg64
(dp206
S'Y'
S'array([[ 0.33333333,  0.66666667,  0.33333333,  ...  0.        ,\n         0.        ,  1.        ]])'
p207
sS'X'
S'array([[ 0.,  0.,  0.,  0.,  0.,  1.,  0.,  0.,  1.,  1.,  1.]])'
p208
sS'kwds'
p209
S"{'squared': True}"
p210
sS'func'
p211
S'<function euclidean_distances>'
p212
ssg70
I657
sg71
(dp213
I652
S'    if metric == "precomputed":'
p214
sI653
S'        return X'
p215
sI654
S'    elif metric in PAIRWISE_DISTANCE_FUNCTIONS:'
p216
sI655
S'        func = PAIRWISE_DISTANCE_FUNCTIONS[metric]'
p217
sI656
S'        if n_jobs == 1:'
p218
sI657
S'            return func(X, Y, **kwds)'
p219
sI658
S'        else:'
p220
sI659
S'            return _parallel_pairwise(X, Y, func, n_jobs, **kwds)'
p221
sI660
S'    elif callable(metric):'
p222
sI661
S'        # Check matrices first (this is usually done by the metric).'
p223
ssg83
S"(X=array([[ 0.,  0.,  0.,  0.,  0.,  1.,  0.,  0.,  1.,  1.,  1.]]), Y=array([[ 0.33333333,  0.66666667,  0.33333333,  ...  0.        ,\n         0.        ,  1.        ]]), metric='euclidean', n_jobs=1, **kwds={'squared': True})"
p224
sg85
S'pairwise_distances'
p225
sa(dp226
g62
S'/Users/josyulakrishna/Documents/PythonPackages/anaconda/lib/python2.7/site-packages/sklearn/metrics/pairwise.py'
p227
sg64
(dp228
S'Y'
S'array([[ 0.33333333,  0.66666667,  0.33333333,  ...  0.        ,\n         0.        ,  1.        ]])'
p229
sS'X'
S'array([[ 0.,  0.,  0.,  0.,  0.,  1.,  0.,  0.,  1.,  1.,  1.]])'
p230
sS'global check_pairwise_arrays'
p231
S'<function check_pairwise_arrays>'
p232
ssg70
I153
sg71
(dp233
I148
S'           [ 1.41421356]])'
p234
sI149
S'    """'
p235
sI150
S'    # should not need X_norm_squared because if you could precompute that as'
p236
sI151
S'    # well as Y, then you should just pre-compute the output and not even'
p237
sI152
S'    # call this function.'
p238
sI153
S'    X, Y = check_pairwise_arrays(X, Y)'
p239
sI154
S'    if issparse(X):'
p240
sI155
S'        XX = X.multiply(X).sum(axis=1)'
p241
sI156
S'    else:'
p242
sI157
S'        XX = np.sum(X * X, axis=1)[:, np.newaxis]'
p243
ssg83
S'(X=array([[ 0.,  0.,  0.,  0.,  0.,  1.,  0.,  0.,  1.,  1.,  1.]]), Y=array([[ 0.33333333,  0.66666667,  0.33333333,  ...  0.        ,\n         0.        ,  1.        ]]), Y_norm_squared=None, squared=True)'
p244
sg85
S'euclidean_distances'
p245
sa(dp246
g62
S'/Users/josyulakrishna/Documents/PythonPackages/anaconda/lib/python2.7/site-packages/sklearn/metrics/pairwise.py'
p247
sg64
(dp248
S'Y'
S'array([[ 0.33333333,  0.66666667,  0.33333333,  ...  0.        ,\n         0.        ,  1.        ]])'
p249
sS'X'
S'array([[ 0.,  0.,  0.,  0.,  0.,  1.,  0.,  0.,  1.,  1.,  1.]])'
p250
sS'X.shape'
p251
S'(1, 11)'
p252
sS'Y.shape'
p253
S'(2, 12)'
p254
ssg70
I93
sg71
(dp255
I96
S'        if Y is X:'
p256
sI97
S'            X = Y = X.astype(np.float)'
p257
sI88
S'        X = atleast2d_or_csr(X)'
p258
sI89
S'        Y = atleast2d_or_csr(Y)'
p259
sI90
S'    if X.shape[1] != Y.shape[1]:'
p260
sI91
S'        raise ValueError("Incompatible dimension for X and Y matrices: "'
p261
sI92
S'                         "X.shape[1] == %d while Y.shape[1] == %d" % ('
p262
sI93
S'                             X.shape[1], Y.shape[1]))'
p263
sI94
S''
sI95
S'    if not (X.dtype == Y.dtype == np.float32):'
p264
ssg83
S'(X=array([[ 0.,  0.,  0.,  0.,  0.,  1.,  0.,  0.,  1.,  1.,  1.]]), Y=array([[ 0.33333333,  0.66666667,  0.33333333,  ...  0.        ,\n         0.        ,  1.        ]]))'
p265
sg85
S'check_pairwise_arrays'
p266
sasS'pyver'
p267
S'Python 2.7.5: /Users/josyulakrishna/Documents/PythonPackages/anaconda/bin/python (prefix: /Users/josyulakrishna/Documents/PythonPackages/anaconda)'
p268
sS'session'
p269
g57
(S's@\x08\x00\x00<div><table><tr><td style="font-weight:bold;vertical-align:top">auth</td><td valign="top">:</td><td><div><table><tr><td style="font-weight:bold;vertical-align:top">expiration</td><td valign="top">:</td><td><div>3600</div></td></tr><tr><td style="font-weight:bold;vertical-align:top">hmac_key</td><td valign="top">:</td><td><div>b1561ef7-dbdf-4ba6-950d-a56f529761b4</div></td></tr><tr><td style="font-weight:bold;vertical-align:top">last_visit</td><td valign="top">:</td><td><div>datetime.datetime(2014, 4, 28, 18, 40, 48, 904753)</div></td></tr><tr><td style="font-weight:bold;vertical-align:top">remember</td><td valign="top">:</td><td><div>False</div></td></tr><tr><td style="font-weight:bold;vertical-align:top">user</td><td valign="top">:</td><td><div><table><tr><td style="font-weight:bold;vertical-align:top">email</td><td valign="top">:</td><td><div></div></td></tr><tr><td style="font-weight:bold;vertical-align:top">first_name</td><td valign="top">:</td><td><div></div></td></tr><tr><td style="font-weight:bold;vertical-align:top">id</td><td valign="top">:</td><td><div>8L</div></td></tr><tr><td style="font-weight:bold;vertical-align:top">last_name</td><td valign="top">:</td><td><div></div></td></tr><tr><td style="font-weight:bold;vertical-align:top">registration_id</td><td valign="top">:</td><td><div></div></td></tr><tr><td style="font-weight:bold;vertical-align:top">registration_key</td><td valign="top">:</td><td><div></div></td></tr><tr><td style="font-weight:bold;vertical-align:top">reset_password_key</td><td valign="top">:</td><td><div></div></td></tr><tr><td style="font-weight:bold;vertical-align:top">username</td><td valign="top">:</td><td><div>test4</div></td></tr></table></div></td></tr><tr><td style="font-weight:bold;vertical-align:top">user_groups</td><td valign="top">:</td><td><div><table><tr><td style="font-weight:bold;vertical-align:top">8</td><td valign="top">:</td><td><div>user_8</div></td></tr></table></div></td></tr></table></div></td></tr><tr><td style="font-weight:bold;vertical-align:top">flash</td><td valign="top">:</td><td><div>None</div></td></tr></table></div>'
tRp270
sS'etype'
p271
S"<type 'exceptions.ValueError'>"
p272
sS'date'
p273
S'Mon Apr 28 18:40:54 2014'
p274
sS'response'
p275
g57
(S's\xe7,\x00\x00<div><table><tr><td style="font-weight:bold;vertical-align:top">body</td><td valign="top">:</td><td><div>&lt;cStringIO.StringO object at 0x10b03cdf8&gt;</div></td></tr><tr><td style="font-weight:bold;vertical-align:top">cookies</td><td valign="top">:</td><td><div><table><tr><td style="font-weight:bold;vertical-align:top">session_id_amplify</td><td valign="top">:</td><td><div>127.0.0.1-dd125dee-737b-4348-bec1-6ca961130529<table><tr><td style="font-weight:bold;vertical-align:top">comment</td><td valign="top">:</td><td><div></div></td></tr><tr><td style="font-weight:bold;vertical-align:top">domain</td><td valign="top">:</td><td><div></div></td></tr><tr><td style="font-weight:bold;vertical-align:top">expires</td><td valign="top">:</td><td><div></div></td></tr><tr><td style="font-weight:bold;vertical-align:top">httponly</td><td valign="top">:</td><td><div></div></td></tr><tr><td style="font-weight:bold;vertical-align:top">max-age</td><td valign="top">:</td><td><div></div></td></tr><tr><td style="font-weight:bold;vertical-align:top">path</td><td valign="top">:</td><td><div>/</div></td></tr><tr><td style="font-weight:bold;vertical-align:top">secure</td><td valign="top">:</td><td><div></div></td></tr><tr><td style="font-weight:bold;vertical-align:top">version</td><td valign="top">:</td><td><div></div></td></tr></table></div></td></tr></table></div></td></tr><tr><td style="font-weight:bold;vertical-align:top">delimiters</td><td valign="top">:</td><td><div><table><tr><td><div>{{</div></td></tr><tr><td><div>}}</div></td></tr></table></div></td></tr><tr><td style="font-weight:bold;vertical-align:top">files</td><td valign="top">:</td><td><div><table></table></div></td></tr><tr><td style="font-weight:bold;vertical-align:top">flash</td><td valign="top">:</td><td><div></div></td></tr><tr><td style="font-weight:bold;vertical-align:top">generic_patterns</td><td valign="top">:</td><td><div><table><tr><td><div>*</div></td></tr></table></div></td></tr><tr><td style="font-weight:bold;vertical-align:top">google_analytics_id</td><td valign="top">:</td><td><div>None</div></td></tr><tr><td style="font-weight:bold;vertical-align:top">headers</td><td valign="top">:</td><td><div><table><tr><td style="font-weight:bold;vertical-align:top">X-Powered-By</td><td valign="top">:</td><td><div>web2py</div></td></tr></table></div></td></tr><tr><td style="font-weight:bold;vertical-align:top">logo</td><td valign="top">:</td><td><div><a class="brand" href="http://www.web2py.com/"><b>web<span>2</span>py</b>&trade;&nbsp;</a></div></td></tr><tr><td style="font-weight:bold;vertical-align:top">menu</td><td valign="top">:</td><td><div><table><tr><td><div><table><tr><td><div>Home</div></td></tr><tr><td><div>False</div></td></tr><tr><td><div>/Amplify/default/index</div></td></tr><tr><td><div><table></table></div></td></tr></table></div></td></tr><tr><td><div><table><tr><td><div><span class="highlighted">web2py</span></div></td></tr><tr><td><div>False</div></td></tr><tr><td><div>http://web2py.com</div></td></tr><tr><td><div><table><tr><td><div><table><tr><td><div>My Sites</div></td></tr><tr><td><div>False</div></td></tr><tr><td><div>/admin/default/site</div></td></tr></table></div></td></tr><tr><td><div><table><tr><td><div>This App</div></td></tr><tr><td><div>False</div></td></tr><tr><td><div>/admin/default/design/Amplify</div></td></tr><tr><td><div>[(&lt;lazyT &#x27;Controller&#x27;&gt;, False, &#x27;/admin/default/edit/Amplify/controllers/default.py&#x27;), (&lt;lazyT &#x27;View&#x27;&gt;, False, &#x27;/admin/default/edit/Amplify/views/default/set_interests.html&#x27;), (&lt;lazyT &#x27;Layout&#x27;&gt;, False, &#x27;/admin/default/edit/Amplify/views/layout.html&#x27;), (&lt;lazyT &#x27;Stylesheet&#x27;&gt;, False, &#x27;/admin/default/edit/Amplify/static/css/web2py.css&#x27;), (&lt;lazyT &#x27;DB Model&#x27;&gt;, False, &#x27;/admin/default/edit/Amplify/models/db.py&#x27;), (&lt;lazyT &#x27;Menu Model&#x27;&gt;, False, &#x27;/admin/default/edit/Amplify/models/menu.py&#x27;), (&lt;lazyT &#x27;Database&#x27;&gt;, False, &#x27;/Amplify/appadmin/index&#x27;), (&lt;lazyT &#x27;Errors&#x27;&gt;, False, &#x27;/admin/default/errors/Amplify&#x27;), (&lt;lazyT &#x27;About&#x27;&gt;, False, &#x27;/admin/default/about/Amplify&#x27;)]</div></td></tr></table></div></td></tr><tr><td><div><table><tr><td><div>web2py.com</div></td></tr><tr><td><div>False</div></td></tr><tr><td><div>http://www.web2py.com</div></td></tr><tr><td><div>[(&lt;lazyT &#x27;Download&#x27;&gt;, False, &#x27;http://www.web2py.com/examples/default/download&#x27;), (&lt;lazyT &#x27;Support&#x27;&gt;, False, &#x27;http://www.web2py.com/examples/default/support&#x27;), (&lt;lazyT &#x27;Demo&#x27;&gt;, False, &#x27;http://web2py.com/demo_admin&#x27;), (&lt;lazyT &#x27;Quick Examples&#x27;&gt;, False, &#x27;http://web2py.com/examples/default/examples&#x27;), (&lt;lazyT &#x27;FAQ&#x27;&gt;, False, &#x27;http://web2py.com/AlterEgo&#x27;), (&lt;lazyT &#x27;Videos&#x27;&gt;, False, &#x27;http://www.web2py.com/examples/default/videos/&#x27;), (&lt;lazyT &#x27;Free Applications&#x27;&gt;, False, &#x27;http://web2py.com/appliances&#x27;), (&lt;lazyT &#x27;Plugins&#x27;&gt;, False, &#x27;http://web2py.com/plugins&#x27;), (&lt;lazyT &#x27;Layouts&#x27;&gt;, False, &#x27;http://web2py.com/layouts&#x27;), (&lt;lazyT &#x27;Recipes&#x27;&gt;, False, &#x27;http://web2pyslices.com/&#x27;), (&lt;lazyT &#x27;Semantic&#x27;&gt;, False, &#x27;http://web2py.com/semantic&#x27;)]</div></td></tr></table></div></td></tr><tr><td><div><table><tr><td><div>Documentation</div></td></tr><tr><td><div>False</div></td></tr><tr><td><div>http://www.web2py.com/book</div></td></tr><tr><td><div>[(&lt;lazyT &#x27;Preface&#x27;&gt;, False, &#x27;http://www.web2py.com/book/default/chapter/00&#x27;), (&lt;lazyT &#x27;Introduction&#x27;&gt;, False, &#x27;http://www.web2py.com/book/default/chapter/01&#x27;), (&lt;lazyT &#x27;Python&#x27;&gt;, False, &#x27;http://www.web2py.com/book/default/chapter/02&#x27;), (&lt;lazyT &#x27;Overview&#x27;&gt;, False, &#x27;http://www.web2py.com/book/default/chapter/03&#x27;), (&lt;lazyT &#x27;The Core&#x27;&gt;, False, &#x27;http://www.web2py.com/book/default/chapter/04&#x27;), (&lt;lazyT &#x27;The Views&#x27;&gt;, False, &#x27;http://www.web2py.com/book/default/chapter/05&#x27;), (&lt;lazyT &#x27;Database&#x27;&gt;, False, &#x27;http://www.web2py.com/book/default/chapter/06&#x27;), (&lt;lazyT &#x27;Forms and Validators&#x27;&gt;, False, &#x27;http://www.web2py.com/book/default/chapter/07&#x27;), (&lt;lazyT &#x27;Email and SMS&#x27;&gt;, False, &#x27;http://www.web2py.com/book/default/chapter/08&#x27;), (&lt;lazyT &#x27;Access Control&#x27;&gt;, False, &#x27;http://www.web2py.com/book/default/chapter/09&#x27;), (&lt;lazyT &#x27;Services&#x27;&gt;, False, &#x27;http://www.web2py.com/book/default/chapter/10&#x27;), (&lt;lazyT &#x27;Ajax Recipes&#x27;&gt;, False, &#x27;http://www.web2py.com/book/default/chapter/11&#x27;), (&lt;lazyT &#x27;Components and Plugins&#x27;&gt;, False, &#x27;http://www.web2py.com/book/default/chapter/12&#x27;), (&lt;lazyT &#x27;Deployment Recipes&#x27;&gt;, False, &#x27;http://www.web2py.com/book/default/chapter/13&#x27;), (&lt;lazyT &#x27;Other Recipes&#x27;&gt;, False, &#x27;http://www.web2py.com/book/default/chapter/14&#x27;), (&lt;lazyT &#x27;Buy this book&#x27;&gt;, False, &#x27;http://stores.lulu.com/web2py&#x27;)]</div></td></tr></table></div></td></tr><tr><td><div><table><tr><td><div>Community</div></td></tr><tr><td><div>False</div></td></tr><tr><td><div>None</div></td></tr><tr><td><div>[(&lt;lazyT &#x27;Groups&#x27;&gt;, False, &#x27;http://www.web2py.com/examples/default/usergroups&#x27;), (&lt;lazyT &#x27;Twitter&#x27;&gt;, False, &#x27;http://twitter.com/web2py&#x27;), (&lt;lazyT &#x27;Live Chat&#x27;&gt;, False, &#x27;http://webchat.freenode.net/?channels=web2py&#x27;)]</div></td></tr></table></div></td></tr><tr><td><div><table><tr><td><div>Plugins</div></td></tr><tr><td><div>False</div></td></tr><tr><td><div>None</div></td></tr><tr><td><div>[(&#x27;plugin_wiki&#x27;, False, &#x27;http://web2py.com/examples/default/download&#x27;), (&lt;lazyT &#x27;Other Plugins&#x27;&gt;, False, &#x27;http://web2py.com/plugins&#x27;), (&lt;lazyT &#x27;Layout Plugins&#x27;&gt;, False, &#x27;http://web2py.com/layouts&#x27;)]</div></td></tr></table></div></td></tr></table></div></td></tr></table></div></td></tr></table></div></td></tr><tr><td style="font-weight:bold;vertical-align:top">meta</td><td valign="top">:</td><td><div><table><tr><td style="font-weight:bold;vertical-align:top">author</td><td valign="top">:</td><td><div>Your Name &lt;you@example.com&gt;</div></td></tr><tr><td style="font-weight:bold;vertical-align:top">description</td><td valign="top">:</td><td><div>a cool new app</div></td></tr><tr><td style="font-weight:bold;vertical-align:top">generator</td><td valign="top">:</td><td><div>Web2py Web Framework</div></td></tr><tr><td style="font-weight:bold;vertical-align:top">keywords</td><td valign="top">:</td><td><div>web2py, python, framework</div></td></tr></table></div></td></tr><tr><td style="font-weight:bold;vertical-align:top">models_to_run</td><td valign="top">:</td><td><div><table><tr><td><div>^\\w+\\.py$</div></td></tr><tr><td><div>^default/\\w+\\.py$</div></td></tr><tr><td><div>^default/set_interests/\\w+\\.py$</div></td></tr></table></div></td></tr><tr><td style="font-weight:bold;vertical-align:top">postprocessing</td><td valign="top">:</td><td><div><table></table></div></td></tr><tr><td style="font-weight:bold;vertical-align:top">session_cookie_expires</td><td valign="top">:</td><td><div>None</div></td></tr><tr><td style="font-weight:bold;vertical-align:top">session_data_name</td><td valign="top">:</td><td><div>session_data_amplify</div></td></tr><tr><td style="font-weight:bold;vertical-align:top">session_file</td><td valign="top">:</td><td><div>&lt;open file &#x27;/Users/josyulakrishna/Documents/web2py_src/web2py/applications/Amplify/sessions/127.0.0.1-dd125dee-737b-4348-bec1-6ca961130529&#x27;, mode &#x27;rb+&#x27; at 0x10adb5c90&gt;</div></td></tr><tr><td style="font-weight:bold;vertical-align:top">session_filename</td><td valign="top">:</td><td><div>/Users/josyulakrishna/Documents/web2py_src/web2py/applications/Amplify/sessions/127.0.0.1-dd125dee-737b-4348-bec1-6ca961130529</div></td></tr><tr><td style="font-weight:bold;vertical-align:top">session_id</td><td valign="top">:</td><td><div>127.0.0.1-dd125dee-737b-4348-bec1-6ca961130529</div></td></tr><tr><td style="font-weight:bold;vertical-align:top">session_id_name</td><td valign="top">:</td><td><div>session_id_amplify</div></td></tr><tr><td style="font-weight:bold;vertical-align:top">session_locked</td><td valign="top">:</td><td><div>True</div></td></tr><tr><td style="font-weight:bold;vertical-align:top">session_new</td><td valign="top">:</td><td><div>False</div></td></tr><tr><td style="font-weight:bold;vertical-align:top">session_storage_type</td><td valign="top">:</td><td><div>file</div></td></tr><tr><td style="font-weight:bold;vertical-align:top">status</td><td valign="top">:</td><td><div>200</div></td></tr><tr><td style="font-weight:bold;vertical-align:top">subtitle</td><td valign="top">:</td><td><div>customize me!</div></td></tr><tr><td style="font-weight:bold;vertical-align:top">title</td><td valign="top">:</td><td><div>Amplify</div></td></tr><tr><td style="font-weight:bold;vertical-align:top">view</td><td valign="top">:</td><td><div>default/set_interests.html</div></td></tr></table></div>'
tRp276
sS'locals'
p277
(dp278
S'Y'
S'array([[ 0.33333333,  0.66666667,  0.33333333,  ...  0.        ,\n         0.        ,  1.        ]])'
p279
sS'X'
S'array([[ 0.,  0.,  0.,  0.,  0.,  1.,  0.,  0.,  1.,  1.,  1.]])'
p280
sssS'traceback'
p281
S'Traceback (most recent call last):\n  File "/Users/josyulakrishna/Documents/web2py_src/web2py/gluon/restricted.py", line 212, in restricted\n    exec ccode in environment\n  File "/Users/josyulakrishna/Documents/web2py_src/web2py/applications/Amplify/controllers/default.py", line 132, in <module>\n  File "/Users/josyulakrishna/Documents/web2py_src/web2py/gluon/globals.py", line 194, in <lambda>\n    self._caller = lambda f: f()\n  File "/Users/josyulakrishna/Documents/web2py_src/web2py/applications/Amplify/controllers/default.py", line 126, in set_interests\n    knnSelect(auth.user_id)\n  File "/Users/josyulakrishna/Documents/web2py_src/web2py/applications/Amplify/models/scheduler.py", line 130, in knnSelect\n    clusterId =  knn.predict(aRow)\n  File "/Users/josyulakrishna/Documents/PythonPackages/anaconda/lib/python2.7/site-packages/sklearn/neighbors/classification.py", line 146, in predict\n    neigh_dist, neigh_ind = self.kneighbors(X)\n  File "/Users/josyulakrishna/Documents/PythonPackages/anaconda/lib/python2.7/site-packages/sklearn/neighbors/base.py", line 294, in kneighbors\n    squared=True)\n  File "/Users/josyulakrishna/Documents/PythonPackages/anaconda/lib/python2.7/site-packages/sklearn/metrics/pairwise.py", line 657, in pairwise_distances\n    return func(X, Y, **kwds)\n  File "/Users/josyulakrishna/Documents/PythonPackages/anaconda/lib/python2.7/site-packages/sklearn/metrics/pairwise.py", line 153, in euclidean_distances\n    X, Y = check_pairwise_arrays(X, Y)\n  File "/Users/josyulakrishna/Documents/PythonPackages/anaconda/lib/python2.7/site-packages/sklearn/metrics/pairwise.py", line 93, in check_pairwise_arrays\n    X.shape[1], Y.shape[1]))\nValueError: Incompatible dimension for X and Y matrices: X.shape[1] == 11 while Y.shape[1] == 12\n'
p282
s.