(dp1
S'output'
p2
S''
sS'layer'
p3
S'Framework'
p4
sS'code'
p5
S''
sS'snapshot'
p6
(dp7
sS'traceback'
p8
S'Traceback (most recent call last):\n  File "E:\\web2py_src\\web2py\\gluon\\main.py", line 573, in wsgibase\n    serve_controller(request, response, session)\n  File "E:\\web2py_src\\web2py\\gluon\\main.py", line 234, in serve_controller\n    run_view_in(response._view_environment)\n  File "E:\\web2py_src\\web2py\\gluon\\compileapp.py", line 672, in run_view_in\n    context=environment)\n  File "E:\\web2py_src\\web2py\\gluon\\template.py", line 785, in parse_template\n    return str(TemplateParser(text, context=context, path=path, lexers=lexers, delimiters=delimiters))\n  File "E:\\web2py_src\\web2py\\gluon\\template.py", line 328, in __str__\n    return self.to_string()\n  File "E:\\web2py_src\\web2py\\gluon\\template.py", line 324, in to_string\n    return self.reindent(str(self.content))\n  File "E:\\web2py_src\\web2py\\gluon\\template.py", line 170, in __str__\n    return \'\'.join(output_aux(node, self.blocks) for node in self.nodes)\n  File "E:\\web2py_src\\web2py\\gluon\\template.py", line 170, in <genexpr>\n    return \'\'.join(output_aux(node, self.blocks) for node in self.nodes)\n  File "E:\\web2py_src\\web2py\\gluon\\template.py", line 77, in output_aux\n    if isinstance(node, BlockNode) \\\n  File "E:\\web2py_src\\web2py\\gluon\\template.py", line 149, in output\n    return \'\'.join(output_aux(node, blocks) for node in self.nodes)\n  File "E:\\web2py_src\\web2py\\gluon\\template.py", line 149, in <genexpr>\n    return \'\'.join(output_aux(node, blocks) for node in self.nodes)\n  File "E:\\web2py_src\\web2py\\gluon\\template.py", line 77, in output_aux\n    if isinstance(node, BlockNode) \\\n  File "E:\\web2py_src\\web2py\\gluon\\template.py", line 149, in output\n    return \'\'.join(output_aux(node, blocks) for node in self.nodes)\n  File "E:\\web2py_src\\web2py\\gluon\\template.py", line 149, in <genexpr>\n    return \'\'.join(output_aux(node, blocks) for node in self.nodes)\n  File "E:\\web2py_src\\web2py\\gluon\\template.py", line 77, in output_aux\n    if isinstance(node, BlockNode) \\\n  File "E:\\web2py_src\\web2py\\gluon\\template.py", line 149, in output\n    return \'\'.join(output_aux(node, blocks) for node in self.nodes)\n  File "E:\\web2py_src\\web2py\\gluon\\template.py", line 149, in <genexpr>\n    return \'\'.join(output_aux(node, blocks) for node in self.nodes)\n  File "E:\\web2py_src\\web2py\\gluon\\template.py", line 77, in output_aux\n    if isinstance(node, BlockNode) \\\n  File "E:\\web2py_src\\web2py\\gluon\\template.py", line 149, in output\n    return \'\'.join(output_aux(node, blocks) for node in self.nodes)\n  File "E:\\web2py_src\\web2py\\gluon\\template.py", line 149, in <genexpr>\n    return \'\'.join(output_aux(node, blocks) for node in self.nodes)\n  File "E:\\web2py_src\\web2py\\gluon\\template.py", line 77, in output_aux\n    if isinstance(node, BlockNode) \\\n  File "E:\\web2py_src\\web2py\\gluon\\template.py", line 149, in output\n    return \'\'.join(output_aux(node, blocks) for node in self.nodes)\n  File "E:\\web2py_src\\web2py\\gluon\\template.py", line 149, in <genexpr>\n    return \'\'.join(output_aux(node, blocks) for node in self.nodes)\n  File "E:\\web2py_src\\web2py\\gluon\\template.py", line 77, in output_aux\n    if isinstance(node, BlockNode) \\\n  File "E:\\web2py_src\\web2py\\gluon\\template.py", line 149, in output\n    return \'\'.join(output_aux(node, blocks) for node in self.nodes)\n  File "E:\\web2py_src\\web2py\\gluon\\template.py", line 149, in <genexpr>\n    return \'\'.join(output_aux(node, blocks) for node in self.nodes)\n  File "E:\\web2py_src\\web2py\\gluon\\template.py", line 77, in output_aux\n    if isinstance(node, BlockNode) \\\n  File "E:\\web2py_src\\web2py\\gluon\\template.py", line 149, in output\n    return \'\'.join(output_aux(node, blocks) for node in self.nodes)\n  File "E:\\web2py_src\\web2py\\gluon\\template.py", line 149, in <genexpr>\n    return \'\'.join(output_aux(node, blocks) for node in self.nodes)\n  File "E:\\web2py_src\\web2py\\gluon\\template.py", line 77, in output_aux\n    if isinstance(node, BlockNode) \\\n  File "E:\\web2py_src\\web2py\\gluon\\template.py", line 149, in output\n    return \'\'.join(output_aux(node, blocks) for node in self.nodes)\n  File "E:\\web2py_src\\web2py\\gluon\\template.py", line 149, in <genexpr>\n    return \'\'.join(output_aux(node, blocks) for node in self.nodes)\n  File "E:\\web2py_src\\web2py\\gluon\\template.py", line 77, in output_aux\n    if isinstance(node, BlockNode) \\\n  File "E:\\web2py_src\\web2py\\gluon\\template.py", line 149, in output\n    return \'\'.join(output_aux(node, blocks) for node in self.nodes)\n  File "E:\\web2py_src\\web2py\\gluon\\template.py", line 149, in <genexpr>\n    return \'\'.join(output_aux(node, blocks) for node in self.nodes)\n  File "E:\\web2py_src\\web2py\\gluon\\template.py", line 77, in output_aux\n    if isinstance(node, BlockNode) \\\n  File "E:\\web2py_src\\web2py\\gluon\\template.py", line 149, in output\n    return \'\'.join(output_aux(node, blocks) for node in self.nodes)\n  File "E:\\web2py_src\\web2py\\gluon\\template.py", line 149, in <genexpr>\n    return \'\'.join(output_aux(node, blocks) for node in self.nodes)\n  File "E:\\web2py_src\\web2py\\gluon\\template.py", line 77, in output_aux\n    if isinstance(node, BlockNode) \\\n  File "E:\\web2py_src\\web2py\\gluon\\template.py", line 149, in output\n    return \'\'.join(output_aux(node, blocks) for node in self.nodes)\n  File "E:\\web2py_src\\web2py\\gluon\\template.py", line 149, in <genexpr>\n    return \'\'.join(output_aux(node, blocks) for node in self.nodes)\n  File "E:\\web2py_src\\web2py\\gluon\\template.py", line 77, in output_aux\n    if isinstance(node, BlockNode) \\\n  File "E:\\web2py_src\\web2py\\gluon\\template.py", line 149, in output\n    return \'\'.join(output_aux(node, blocks) for node in self.nodes)\n  File "E:\\web2py_src\\web2py\\gluon\\template.py", line 149, in <genexpr>\n    return \'\'.join(output_aux(node, blocks) for node in self.nodes)\n  File "E:\\web2py_src\\web2py\\gluon\\template.py", line 77, in output_aux\n    if isinstance(node, BlockNode) \\\n  File "E:\\web2py_src\\web2py\\gluon\\template.py", line 149, in output\n    return \'\'.join(output_aux(node, blocks) for node in self.nodes)\n  File "E:\\web2py_src\\web2py\\gluon\\template.py", line 149, in <genexpr>\n    return \'\'.join(output_aux(node, blocks) for node in self.nodes)\n  File "E:\\web2py_src\\web2py\\gluon\\template.py", line 77, in output_aux\n    if isinstance(node, BlockNode) \\\n  File "E:\\web2py_src\\web2py\\gluon\\template.py", line 149, in output\n    return \'\'.join(output_aux(node, blocks) for node in self.nodes)\n  File "E:\\web2py_src\\web2py\\gluon\\template.py", line 149, in <genexpr>\n    return \'\'.join(output_aux(node, blocks) for node in self.nodes)\n  File "E:\\web2py_src\\web2py\\gluon\\template.py", line 77, in output_aux\n    if isinstance(node, BlockNode) \\\n  File "E:\\web2py_src\\web2py\\gluon\\template.py", line 149, in output\n    return \'\'.join(output_aux(node, blocks) for node in self.nodes)\n  File "E:\\web2py_src\\web2py\\gluon\\template.py", line 149, in <genexpr>\n    return \'\'.join(output_aux(node, blocks) for node in self.nodes)\n  File "E:\\web2py_src\\web2py\\gluon\\template.py", line 77, in output_aux\n    if isinstance(node, BlockNode) \\\n  File "E:\\web2py_src\\web2py\\gluon\\template.py", line 149, in output\n    return \'\'.join(output_aux(node, blocks) for node in self.nodes)\n  File "E:\\web2py_src\\web2py\\gluon\\template.py", line 149, in <genexpr>\n    return \'\'.join(output_aux(node, blocks) for node in self.nodes)\n  File "E:\\web2py_src\\web2py\\gluon\\template.py", line 77, in output_aux\n    if isinstance(node, BlockNode) \\\n  File "E:\\web2py_src\\web2py\\gluon\\template.py", line 149, in output\n    return \'\'.join(output_aux(node, blocks) for node in self.nodes)\n  File "E:\\web2py_src\\web2py\\gluon\\template.py", line 149, in <genexpr>\n    return \'\'.join(output_aux(node, blocks) for node in self.nodes)\n  File "E:\\web2py_src\\web2py\\gluon\\template.py", line 77, in output_aux\n    if isinstance(node, BlockNode) \\\n  File "E:\\web2py_src\\web2py\\gluon\\template.py", line 149, in output\n    return \'\'.join(output_aux(node, blocks) for node in self.nodes)\n  File "E:\\web2py_src\\web2py\\gluon\\template.py", line 149, in <genexpr>\n    return \'\'.join(output_aux(node, blocks) for node in self.nodes)\n  File "E:\\web2py_src\\web2py\\gluon\\template.py", line 77, in output_aux\n    if isinstance(node, BlockNode) \\\n  File "E:\\web2py_src\\web2py\\gluon\\template.py", line 149, in output\n    return \'\'.join(output_aux(node, blocks) for node in self.nodes)\n  File "E:\\web2py_src\\web2py\\gluon\\template.py", line 149, in <genexpr>\n    return \'\'.join(output_aux(node, blocks) for node in self.nodes)\n  File "E:\\web2py_src\\web2py\\gluon\\template.py", line 77, in output_aux\n    if isinstance(node, BlockNode) \\\n  File "E:\\web2py_src\\web2py\\gluon\\template.py", line 149, in output\n    return \'\'.join(output_aux(node, blocks) for node in self.nodes)\n  File "E:\\web2py_src\\web2py\\gluon\\template.py", line 149, in <genexpr>\n    return \'\'.join(output_aux(node, blocks) for node in self.nodes)\n  File "E:\\web2py_src\\web2py\\gluon\\template.py", line 77, in output_aux\n    if isinstance(node, BlockNode) \\\n  File "E:\\web2py_src\\web2py\\gluon\\template.py", line 149, in output\n    return \'\'.join(output_aux(node, blocks) for node in self.nodes)\n  File "E:\\web2py_src\\web2py\\gluon\\template.py", line 149, in <genexpr>\n    return \'\'.join(output_aux(node, blocks) for node in self.nodes)\n  File "E:\\web2py_src\\web2py\\gluon\\template.py", line 77, in output_aux\n    if isinstance(node, BlockNode) \\\n  File "E:\\web2py_src\\web2py\\gluon\\template.py", line 149, in output\n    return \'\'.join(output_aux(node, blocks) for node in self.nodes)\n  File "E:\\web2py_src\\web2py\\gluon\\template.py", line 149, in <genexpr>\n    return \'\'.join(output_aux(node, blocks) for node in self.nodes)\n  File "E:\\web2py_src\\web2py\\gluon\\template.py", line 77, in output_aux\n    if isinstance(node, BlockNode) \\\n  File "E:\\web2py_src\\web2py\\gluon\\template.py", line 149, in output\n    return \'\'.join(output_aux(node, blocks) for node in self.nodes)\n  File "E:\\web2py_src\\web2py\\gluon\\template.py", line 149, in <genexpr>\n    return \'\'.join(output_aux(node, blocks) for node in self.nodes)\n  File "E:\\web2py_src\\web2py\\gluon\\template.py", line 77, in output_aux\n    if isinstance(node, BlockNode) \\\n  File "E:\\web2py_src\\web2py\\gluon\\template.py", line 149, in output\n    return \'\'.join(output_aux(node, blocks) for node in self.nodes)\n  File "E:\\web2py_src\\web2py\\gluon\\template.py", line 149, in <genexpr>\n    return \'\'.join(output_aux(node, blocks) for node in self.nodes)\n  File "E:\\web2py_src\\web2py\\gluon\\template.py", line 77, in output_aux\n    if isinstance(node, BlockNode) \\\n  File "E:\\web2py_src\\web2py\\gluon\\template.py", line 149, in output\n    return \'\'.join(output_aux(node, blocks) for node in self.nodes)\n  File "E:\\web2py_src\\web2py\\gluon\\template.py", line 149, in <genexpr>\n    return \'\'.join(output_aux(node, blocks) for node in self.nodes)\n  File "E:\\web2py_src\\web2py\\gluon\\template.py", line 77, in output_aux\n    if isinstance(node, BlockNode) \\\n  File "E:\\web2py_src\\web2py\\gluon\\template.py", line 149, in output\n    return \'\'.join(output_aux(node, blocks) for node in self.nodes)\n  File "E:\\web2py_src\\web2py\\gluon\\template.py", line 149, in <genexpr>\n    return \'\'.join(output_aux(node, blocks) for node in self.nodes)\n  File "E:\\web2py_src\\web2py\\gluon\\template.py", line 77, in output_aux\n    if isinstance(node, BlockNode) \\\n  File "E:\\web2py_src\\web2py\\gluon\\template.py", line 149, in output\n    return \'\'.join(output_aux(node, blocks) for node in self.nodes)\n  File "E:\\web2py_src\\web2py\\gluon\\template.py", line 149, in <genexpr>\n    return \'\'.join(output_aux(node, blocks) for node in self.nodes)\n  File "E:\\web2py_src\\web2py\\gluon\\template.py", line 77, in output_aux\n    if isinstance(node, BlockNode) \\\n  File "E:\\web2py_src\\web2py\\gluon\\template.py", line 149, in output\n    return \'\'.join(output_aux(node, blocks) for node in self.nodes)\n  File "E:\\web2py_src\\web2py\\gluon\\template.py", line 149, in <genexpr>\n    return \'\'.join(output_aux(node, blocks) for node in self.nodes)\n  File "E:\\web2py_src\\web2py\\gluon\\template.py", line 77, in output_aux\n    if isinstance(node, BlockNode) \\\n  File "E:\\web2py_src\\web2py\\gluon\\template.py", line 149, in output\n    return \'\'.join(output_aux(node, blocks) for node in self.nodes)\n  File "E:\\web2py_src\\web2py\\gluon\\template.py", line 149, in <genexpr>\n    return \'\'.join(output_aux(node, blocks) for node in self.nodes)\n  File "E:\\web2py_src\\web2py\\gluon\\template.py", line 77, in output_aux\n    if isinstance(node, BlockNode) \\\n  File "E:\\web2py_src\\web2py\\gluon\\template.py", line 149, in output\n    return \'\'.join(output_aux(node, blocks) for node in self.nodes)\n  File "E:\\web2py_src\\web2py\\gluon\\template.py", line 149, in <genexpr>\n    return \'\'.join(output_aux(node, blocks) for node in self.nodes)\n  File "E:\\web2py_src\\web2py\\gluon\\template.py", line 77, in output_aux\n    if isinstance(node, BlockNode) \\\n  File "E:\\web2py_src\\web2py\\gluon\\template.py", line 149, in output\n    return \'\'.join(output_aux(node, blocks) for node in self.nodes)\n  File "E:\\web2py_src\\web2py\\gluon\\template.py", line 149, in <genexpr>\n    return \'\'.join(output_aux(node, blocks) for node in self.nodes)\n  File "E:\\web2py_src\\web2py\\gluon\\template.py", line 77, in output_aux\n    if isinstance(node, BlockNode) \\\n  File "E:\\web2py_src\\web2py\\gluon\\template.py", line 149, in output\n    return \'\'.join(output_aux(node, blocks) for node in self.nodes)\n  File "E:\\web2py_src\\web2py\\gluon\\template.py", line 149, in <genexpr>\n    return \'\'.join(output_aux(node, blocks) for node in self.nodes)\n  File "E:\\web2py_src\\web2py\\gluon\\template.py", line 77, in output_aux\n    if isinstance(node, BlockNode) \\\n  File "E:\\web2py_src\\web2py\\gluon\\template.py", line 149, in output\n    return \'\'.join(output_aux(node, blocks) for node in self.nodes)\n  File "E:\\web2py_src\\web2py\\gluon\\template.py", line 149, in <genexpr>\n    return \'\'.join(output_aux(node, blocks) for node in self.nodes)\n  File "E:\\web2py_src\\web2py\\gluon\\template.py", line 77, in output_aux\n    if isinstance(node, BlockNode) \\\n  File "E:\\web2py_src\\web2py\\gluon\\template.py", line 149, in output\n    return \'\'.join(output_aux(node, blocks) for node in self.nodes)\n  File "E:\\web2py_src\\web2py\\gluon\\template.py", line 149, in <genexpr>\n    return \'\'.join(output_aux(node, blocks) for node in self.nodes)\n  File "E:\\web2py_src\\web2py\\gluon\\template.py", line 77, in output_aux\n    if isinstance(node, BlockNode) \\\n  File "E:\\web2py_src\\web2py\\gluon\\template.py", line 149, in output\n    return \'\'.join(output_aux(node, blocks) for node in self.nodes)\n  File "E:\\web2py_src\\web2py\\gluon\\template.py", line 149, in <genexpr>\n    return \'\'.join(output_aux(node, blocks) for node in self.nodes)\n  File "E:\\web2py_src\\web2py\\gluon\\template.py", line 77, in output_aux\n    if isinstance(node, BlockNode) \\\n  File "E:\\web2py_src\\web2py\\gluon\\template.py", line 149, in output\n    return \'\'.join(output_aux(node, blocks) for node in self.nodes)\n  File "E:\\web2py_src\\web2py\\gluon\\template.py", line 149, in <genexpr>\n    return \'\'.join(output_aux(node, blocks) for node in self.nodes)\n  File "E:\\web2py_src\\web2py\\gluon\\template.py", line 77, in output_aux\n    if isinstance(node, BlockNode) \\\n  File "E:\\web2py_src\\web2py\\gluon\\template.py", line 149, in output\n    return \'\'.join(output_aux(node, blocks) for node in self.nodes)\n  File "E:\\web2py_src\\web2py\\gluon\\template.py", line 149, in <genexpr>\n    return \'\'.join(output_aux(node, blocks) for node in self.nodes)\n  File "E:\\web2py_src\\web2py\\gluon\\template.py", line 77, in output_aux\n    if isinstance(node, BlockNode) \\\n  File "E:\\web2py_src\\web2py\\gluon\\template.py", line 149, in output\n    return \'\'.join(output_aux(node, blocks) for node in self.nodes)\n  File "E:\\web2py_src\\web2py\\gluon\\template.py", line 149, in <genexpr>\n    return \'\'.join(output_aux(node, blocks) for node in self.nodes)\n  File "E:\\web2py_src\\web2py\\gluon\\template.py", line 77, in output_aux\n    if isinstance(node, BlockNode) \\\n  File "E:\\web2py_src\\web2py\\gluon\\template.py", line 149, in output\n    return \'\'.join(output_aux(node, blocks) for node in self.nodes)\n  File "E:\\web2py_src\\web2py\\gluon\\template.py", line 149, in <genexpr>\n    return \'\'.join(output_aux(node, blocks) for node in self.nodes)\n  File "E:\\web2py_src\\web2py\\gluon\\template.py", line 77, in output_aux\n    if isinstance(node, BlockNode) \\\n  File "E:\\web2py_src\\web2py\\gluon\\template.py", line 149, in output\n    return \'\'.join(output_aux(node, blocks) for node in self.nodes)\n  File "E:\\web2py_src\\web2py\\gluon\\template.py", line 149, in <genexpr>\n    return \'\'.join(output_aux(node, blocks) for node in self.nodes)\n  File "E:\\web2py_src\\web2py\\gluon\\template.py", line 77, in output_aux\n    if isinstance(node, BlockNode) \\\n  File "E:\\web2py_src\\web2py\\gluon\\template.py", line 149, in output\n    return \'\'.join(output_aux(node, blocks) for node in self.nodes)\n  File "E:\\web2py_src\\web2py\\gluon\\template.py", line 149, in <genexpr>\n    return \'\'.join(output_aux(node, blocks) for node in self.nodes)\n  File "E:\\web2py_src\\web2py\\gluon\\template.py", line 77, in output_aux\n    if isinstance(node, BlockNode) \\\n  File "E:\\web2py_src\\web2py\\gluon\\template.py", line 149, in output\n    return \'\'.join(output_aux(node, blocks) for node in self.nodes)\n  File "E:\\web2py_src\\web2py\\gluon\\template.py", line 149, in <genexpr>\n    return \'\'.join(output_aux(node, blocks) for node in self.nodes)\n  File "E:\\web2py_src\\web2py\\gluon\\template.py", line 77, in output_aux\n    if isinstance(node, BlockNode) \\\n  File "E:\\web2py_src\\web2py\\gluon\\template.py", line 149, in output\n    return \'\'.join(output_aux(node, blocks) for node in self.nodes)\n  File "E:\\web2py_src\\web2py\\gluon\\template.py", line 149, in <genexpr>\n    return \'\'.join(output_aux(node, blocks) for node in self.nodes)\n  File "E:\\web2py_src\\web2py\\gluon\\template.py", line 77, in output_aux\n    if isinstance(node, BlockNode) \\\n  File "E:\\web2py_src\\web2py\\gluon\\template.py", line 149, in output\n    return \'\'.join(output_aux(node, blocks) for node in self.nodes)\n  File "E:\\web2py_src\\web2py\\gluon\\template.py", line 149, in <genexpr>\n    return \'\'.join(output_aux(node, blocks) for node in self.nodes)\n  File "E:\\web2py_src\\web2py\\gluon\\template.py", line 77, in output_aux\n    if isinstance(node, BlockNode) \\\n  File "E:\\web2py_src\\web2py\\gluon\\template.py", line 149, in output\n    return \'\'.join(output_aux(node, blocks) for node in self.nodes)\n  File "E:\\web2py_src\\web2py\\gluon\\template.py", line 149, in <genexpr>\n    return \'\'.join(output_aux(node, blocks) for node in self.nodes)\n  File "E:\\web2py_src\\web2py\\gluon\\template.py", line 77, in output_aux\n    if isinstance(node, BlockNode) \\\n  File "E:\\web2py_src\\web2py\\gluon\\template.py", line 149, in output\n    return \'\'.join(output_aux(node, blocks) for node in self.nodes)\n  File "E:\\web2py_src\\web2py\\gluon\\template.py", line 149, in <genexpr>\n    return \'\'.join(output_aux(node, blocks) for node in self.nodes)\n  File "E:\\web2py_src\\web2py\\gluon\\template.py", line 77, in output_aux\n    if isinstance(node, BlockNode) \\\n  File "E:\\web2py_src\\web2py\\gluon\\template.py", line 149, in output\n    return \'\'.join(output_aux(node, blocks) for node in self.nodes)\n  File "E:\\web2py_src\\web2py\\gluon\\template.py", line 149, in <genexpr>\n    return \'\'.join(output_aux(node, blocks) for node in self.nodes)\n  File "E:\\web2py_src\\web2py\\gluon\\template.py", line 77, in output_aux\n    if isinstance(node, BlockNode) \\\n  File "E:\\web2py_src\\web2py\\gluon\\template.py", line 149, in output\n    return \'\'.join(output_aux(node, blocks) for node in self.nodes)\n  File "E:\\web2py_src\\web2py\\gluon\\template.py", line 149, in <genexpr>\n    return \'\'.join(output_aux(node, blocks) for node in self.nodes)\n  File "E:\\web2py_src\\web2py\\gluon\\template.py", line 77, in output_aux\n    if isinstance(node, BlockNode) \\\n  File "E:\\web2py_src\\web2py\\gluon\\template.py", line 149, in output\n    return \'\'.join(output_aux(node, blocks) for node in self.nodes)\n  File "E:\\web2py_src\\web2py\\gluon\\template.py", line 149, in <genexpr>\n    return \'\'.join(output_aux(node, blocks) for node in self.nodes)\n  File "E:\\web2py_src\\web2py\\gluon\\template.py", line 77, in output_aux\n    if isinstance(node, BlockNode) \\\n  File "E:\\web2py_src\\web2py\\gluon\\template.py", line 149, in output\n    return \'\'.join(output_aux(node, blocks) for node in self.nodes)\n  File "E:\\web2py_src\\web2py\\gluon\\template.py", line 149, in <genexpr>\n    return \'\'.join(output_aux(node, blocks) for node in self.nodes)\n  File "E:\\web2py_src\\web2py\\gluon\\template.py", line 77, in output_aux\n    if isinstance(node, BlockNode) \\\n  File "E:\\web2py_src\\web2py\\gluon\\template.py", line 149, in output\n    return \'\'.join(output_aux(node, blocks) for node in self.nodes)\n  File "E:\\web2py_src\\web2py\\gluon\\template.py", line 149, in <genexpr>\n    return \'\'.join(output_aux(node, blocks) for node in self.nodes)\n  File "E:\\web2py_src\\web2py\\gluon\\template.py", line 77, in output_aux\n    if isinstance(node, BlockNode) \\\n  File "E:\\web2py_src\\web2py\\gluon\\template.py", line 149, in output\n    return \'\'.join(output_aux(node, blocks) for node in self.nodes)\n  File "E:\\web2py_src\\web2py\\gluon\\template.py", line 149, in <genexpr>\n    return \'\'.join(output_aux(node, blocks) for node in self.nodes)\n  File "E:\\web2py_src\\web2py\\gluon\\template.py", line 77, in output_aux\n    if isinstance(node, BlockNode) \\\n  File "E:\\web2py_src\\web2py\\gluon\\template.py", line 149, in output\n    return \'\'.join(output_aux(node, blocks) for node in self.nodes)\n  File "E:\\web2py_src\\web2py\\gluon\\template.py", line 149, in <genexpr>\n    return \'\'.join(output_aux(node, blocks) for node in self.nodes)\n  File "E:\\web2py_src\\web2py\\gluon\\template.py", line 77, in output_aux\n    if isinstance(node, BlockNode) \\\n  File "E:\\web2py_src\\web2py\\gluon\\template.py", line 149, in output\n    return \'\'.join(output_aux(node, blocks) for node in self.nodes)\n  File "E:\\web2py_src\\web2py\\gluon\\template.py", line 149, in <genexpr>\n    return \'\'.join(output_aux(node, blocks) for node in self.nodes)\n  File "E:\\web2py_src\\web2py\\gluon\\template.py", line 77, in output_aux\n    if isinstance(node, BlockNode) \\\n  File "E:\\web2py_src\\web2py\\gluon\\template.py", line 149, in output\n    return \'\'.join(output_aux(node, blocks) for node in self.nodes)\n  File "E:\\web2py_src\\web2py\\gluon\\template.py", line 149, in <genexpr>\n    return \'\'.join(output_aux(node, blocks) for node in self.nodes)\n  File "E:\\web2py_src\\web2py\\gluon\\template.py", line 77, in output_aux\n    if isinstance(node, BlockNode) \\\n  File "E:\\web2py_src\\web2py\\gluon\\template.py", line 149, in output\n    return \'\'.join(output_aux(node, blocks) for node in self.nodes)\n  File "E:\\web2py_src\\web2py\\gluon\\template.py", line 149, in <genexpr>\n    return \'\'.join(output_aux(node, blocks) for node in self.nodes)\n  File "E:\\web2py_src\\web2py\\gluon\\template.py", line 77, in output_aux\n    if isinstance(node, BlockNode) \\\n  File "E:\\web2py_src\\web2py\\gluon\\template.py", line 149, in output\n    return \'\'.join(output_aux(node, blocks) for node in self.nodes)\n  File "E:\\web2py_src\\web2py\\gluon\\template.py", line 149, in <genexpr>\n    return \'\'.join(output_aux(node, blocks) for node in self.nodes)\n  File "E:\\web2py_src\\web2py\\gluon\\template.py", line 77, in output_aux\n    if isinstance(node, BlockNode) \\\n  File "E:\\web2py_src\\web2py\\gluon\\template.py", line 149, in output\n    return \'\'.join(output_aux(node, blocks) for node in self.nodes)\n  File "E:\\web2py_src\\web2py\\gluon\\template.py", line 149, in <genexpr>\n    return \'\'.join(output_aux(node, blocks) for node in self.nodes)\n  File "E:\\web2py_src\\web2py\\gluon\\template.py", line 77, in output_aux\n    if isinstance(node, BlockNode) \\\n  File "E:\\web2py_src\\web2py\\gluon\\template.py", line 149, in output\n    return \'\'.join(output_aux(node, blocks) for node in self.nodes)\n  File "E:\\web2py_src\\web2py\\gluon\\template.py", line 149, in <genexpr>\n    return \'\'.join(output_aux(node, blocks) for node in self.nodes)\n  File "E:\\web2py_src\\web2py\\gluon\\template.py", line 77, in output_aux\n    if isinstance(node, BlockNode) \\\n  File "E:\\web2py_src\\web2py\\gluon\\template.py", line 149, in output\n    return \'\'.join(output_aux(node, blocks) for node in self.nodes)\n  File "E:\\web2py_src\\web2py\\gluon\\template.py", line 149, in <genexpr>\n    return \'\'.join(output_aux(node, blocks) for node in self.nodes)\n  File "E:\\web2py_src\\web2py\\gluon\\template.py", line 77, in output_aux\n    if isinstance(node, BlockNode) \\\n  File "E:\\web2py_src\\web2py\\gluon\\template.py", line 149, in output\n    return \'\'.join(output_aux(node, blocks) for node in self.nodes)\n  File "E:\\web2py_src\\web2py\\gluon\\template.py", line 149, in <genexpr>\n    return \'\'.join(output_aux(node, blocks) for node in self.nodes)\n  File "E:\\web2py_src\\web2py\\gluon\\template.py", line 77, in output_aux\n    if isinstance(node, BlockNode) \\\n  File "E:\\web2py_src\\web2py\\gluon\\template.py", line 149, in output\n    return \'\'.join(output_aux(node, blocks) for node in self.nodes)\n  File "E:\\web2py_src\\web2py\\gluon\\template.py", line 149, in <genexpr>\n    return \'\'.join(output_aux(node, blocks) for node in self.nodes)\n  File "E:\\web2py_src\\web2py\\gluon\\template.py", line 77, in output_aux\n    if isinstance(node, BlockNode) \\\n  File "E:\\web2py_src\\web2py\\gluon\\template.py", line 149, in output\n    return \'\'.join(output_aux(node, blocks) for node in self.nodes)\n  File "E:\\web2py_src\\web2py\\gluon\\template.py", line 149, in <genexpr>\n    return \'\'.join(output_aux(node, blocks) for node in self.nodes)\n  File "E:\\web2py_src\\web2py\\gluon\\template.py", line 77, in output_aux\n    if isinstance(node, BlockNode) \\\n  File "E:\\web2py_src\\web2py\\gluon\\template.py", line 149, in output\n    return \'\'.join(output_aux(node, blocks) for node in self.nodes)\n  File "E:\\web2py_src\\web2py\\gluon\\template.py", line 149, in <genexpr>\n    return \'\'.join(output_aux(node, blocks) for node in self.nodes)\n  File "E:\\web2py_src\\web2py\\gluon\\template.py", line 77, in output_aux\n    if isinstance(node, BlockNode) \\\n  File "E:\\web2py_src\\web2py\\gluon\\template.py", line 149, in output\n    return \'\'.join(output_aux(node, blocks) for node in self.nodes)\n  File "E:\\web2py_src\\web2py\\gluon\\template.py", line 149, in <genexpr>\n    return \'\'.join(output_aux(node, blocks) for node in self.nodes)\n  File "E:\\web2py_src\\web2py\\gluon\\template.py", line 77, in output_aux\n    if isinstance(node, BlockNode) \\\n  File "E:\\web2py_src\\web2py\\gluon\\template.py", line 149, in output\n    return \'\'.join(output_aux(node, blocks) for node in self.nodes)\n  File "E:\\web2py_src\\web2py\\gluon\\template.py", line 149, in <genexpr>\n    return \'\'.join(output_aux(node, blocks) for node in self.nodes)\n  File "E:\\web2py_src\\web2py\\gluon\\template.py", line 77, in output_aux\n    if isinstance(node, BlockNode) \\\n  File "E:\\web2py_src\\web2py\\gluon\\template.py", line 149, in output\n    return \'\'.join(output_aux(node, blocks) for node in self.nodes)\n  File "E:\\web2py_src\\web2py\\gluon\\template.py", line 149, in <genexpr>\n    return \'\'.join(output_aux(node, blocks) for node in self.nodes)\n  File "E:\\web2py_src\\web2py\\gluon\\template.py", line 77, in output_aux\n    if isinstance(node, BlockNode) \\\n  File "E:\\web2py_src\\web2py\\gluon\\template.py", line 149, in output\n    return \'\'.join(output_aux(node, blocks) for node in self.nodes)\n  File "E:\\web2py_src\\web2py\\gluon\\template.py", line 149, in <genexpr>\n    return \'\'.join(output_aux(node, blocks) for node in self.nodes)\n  File "E:\\web2py_src\\web2py\\gluon\\template.py", line 77, in output_aux\n    if isinstance(node, BlockNode) \\\n  File "E:\\web2py_src\\web2py\\gluon\\template.py", line 149, in output\n    return \'\'.join(output_aux(node, blocks) for node in self.nodes)\n  File "E:\\web2py_src\\web2py\\gluon\\template.py", line 149, in <genexpr>\n    return \'\'.join(output_aux(node, blocks) for node in self.nodes)\n  File "E:\\web2py_src\\web2py\\gluon\\template.py", line 77, in output_aux\n    if isinstance(node, BlockNode) \\\n  File "E:\\web2py_src\\web2py\\gluon\\template.py", line 149, in output\n    return \'\'.join(output_aux(node, blocks) for node in self.nodes)\n  File "E:\\web2py_src\\web2py\\gluon\\template.py", line 149, in <genexpr>\n    return \'\'.join(output_aux(node, blocks) for node in self.nodes)\n  File "E:\\web2py_src\\web2py\\gluon\\template.py", line 77, in output_aux\n    if isinstance(node, BlockNode) \\\n  File "E:\\web2py_src\\web2py\\gluon\\template.py", line 149, in output\n    return \'\'.join(output_aux(node, blocks) for node in self.nodes)\n  File "E:\\web2py_src\\web2py\\gluon\\template.py", line 149, in <genexpr>\n    return \'\'.join(output_aux(node, blocks) for node in self.nodes)\n  File "E:\\web2py_src\\web2py\\gluon\\template.py", line 77, in output_aux\n    if isinstance(node, BlockNode) \\\n  File "E:\\web2py_src\\web2py\\gluon\\template.py", line 149, in output\n    return \'\'.join(output_aux(node, blocks) for node in self.nodes)\n  File "E:\\web2py_src\\web2py\\gluon\\template.py", line 149, in <genexpr>\n    return \'\'.join(output_aux(node, blocks) for node in self.nodes)\n  File "E:\\web2py_src\\web2py\\gluon\\template.py", line 77, in output_aux\n    if isinstance(node, BlockNode) \\\n  File "E:\\web2py_src\\web2py\\gluon\\template.py", line 149, in output\n    return \'\'.join(output_aux(node, blocks) for node in self.nodes)\n  File "E:\\web2py_src\\web2py\\gluon\\template.py", line 149, in <genexpr>\n    return \'\'.join(output_aux(node, blocks) for node in self.nodes)\n  File "E:\\web2py_src\\web2py\\gluon\\template.py", line 77, in output_aux\n    if isinstance(node, BlockNode) \\\n  File "E:\\web2py_src\\web2py\\gluon\\template.py", line 149, in output\n    return \'\'.join(output_aux(node, blocks) for node in self.nodes)\n  File "E:\\web2py_src\\web2py\\gluon\\template.py", line 149, in <genexpr>\n    return \'\'.join(output_aux(node, blocks) for node in self.nodes)\n  File "E:\\web2py_src\\web2py\\gluon\\template.py", line 77, in output_aux\n    if isinstance(node, BlockNode) \\\n  File "E:\\web2py_src\\web2py\\gluon\\template.py", line 149, in output\n    return \'\'.join(output_aux(node, blocks) for node in self.nodes)\n  File "E:\\web2py_src\\web2py\\gluon\\template.py", line 149, in <genexpr>\n    return \'\'.join(output_aux(node, blocks) for node in self.nodes)\n  File "E:\\web2py_src\\web2py\\gluon\\template.py", line 77, in output_aux\n    if isinstance(node, BlockNode) \\\n  File "E:\\web2py_src\\web2py\\gluon\\template.py", line 149, in output\n    return \'\'.join(output_aux(node, blocks) for node in self.nodes)\n  File "E:\\web2py_src\\web2py\\gluon\\template.py", line 149, in <genexpr>\n    return \'\'.join(output_aux(node, blocks) for node in self.nodes)\n  File "E:\\web2py_src\\web2py\\gluon\\template.py", line 77, in output_aux\n    if isinstance(node, BlockNode) \\\n  File "E:\\web2py_src\\web2py\\gluon\\template.py", line 149, in output\n    return \'\'.join(output_aux(node, blocks) for node in self.nodes)\n  File "E:\\web2py_src\\web2py\\gluon\\template.py", line 149, in <genexpr>\n    return \'\'.join(output_aux(node, blocks) for node in self.nodes)\n  File "E:\\web2py_src\\web2py\\gluon\\template.py", line 77, in output_aux\n    if isinstance(node, BlockNode) \\\n  File "E:\\web2py_src\\web2py\\gluon\\template.py", line 149, in output\n    return \'\'.join(output_aux(node, blocks) for node in self.nodes)\n  File "E:\\web2py_src\\web2py\\gluon\\template.py", line 149, in <genexpr>\n    return \'\'.join(output_aux(node, blocks) for node in self.nodes)\n  File "E:\\web2py_src\\web2py\\gluon\\template.py", line 77, in output_aux\n    if isinstance(node, BlockNode) \\\n  File "E:\\web2py_src\\web2py\\gluon\\template.py", line 149, in output\n    return \'\'.join(output_aux(node, blocks) for node in self.nodes)\n  File "E:\\web2py_src\\web2py\\gluon\\template.py", line 149, in <genexpr>\n    return \'\'.join(output_aux(node, blocks) for node in self.nodes)\n  File "E:\\web2py_src\\web2py\\gluon\\template.py", line 77, in output_aux\n    if isinstance(node, BlockNode) \\\n  File "E:\\web2py_src\\web2py\\gluon\\template.py", line 149, in output\n    return \'\'.join(output_aux(node, blocks) for node in self.nodes)\n  File "E:\\web2py_src\\web2py\\gluon\\template.py", line 149, in <genexpr>\n    return \'\'.join(output_aux(node, blocks) for node in self.nodes)\n  File "E:\\web2py_src\\web2py\\gluon\\template.py", line 77, in output_aux\n    if isinstance(node, BlockNode) \\\n  File "E:\\web2py_src\\web2py\\gluon\\template.py", line 149, in output\n    return \'\'.join(output_aux(node, blocks) for node in self.nodes)\n  File "E:\\web2py_src\\web2py\\gluon\\template.py", line 149, in <genexpr>\n    return \'\'.join(output_aux(node, blocks) for node in self.nodes)\n  File "E:\\web2py_src\\web2py\\gluon\\template.py", line 77, in output_aux\n    if isinstance(node, BlockNode) \\\n  File "E:\\web2py_src\\web2py\\gluon\\template.py", line 149, in output\n    return \'\'.join(output_aux(node, blocks) for node in self.nodes)\n  File "E:\\web2py_src\\web2py\\gluon\\template.py", line 149, in <genexpr>\n    return \'\'.join(output_aux(node, blocks) for node in self.nodes)\n  File "E:\\web2py_src\\web2py\\gluon\\template.py", line 77, in output_aux\n    if isinstance(node, BlockNode) \\\n  File "E:\\web2py_src\\web2py\\gluon\\template.py", line 149, in output\n    return \'\'.join(output_aux(node, blocks) for node in self.nodes)\n  File "E:\\web2py_src\\web2py\\gluon\\template.py", line 149, in <genexpr>\n    return \'\'.join(output_aux(node, blocks) for node in self.nodes)\n  File "E:\\web2py_src\\web2py\\gluon\\template.py", line 77, in output_aux\n    if isinstance(node, BlockNode) \\\n  File "E:\\web2py_src\\web2py\\gluon\\template.py", line 149, in output\n    return \'\'.join(output_aux(node, blocks) for node in self.nodes)\n  File "E:\\web2py_src\\web2py\\gluon\\template.py", line 149, in <genexpr>\n    return \'\'.join(output_aux(node, blocks) for node in self.nodes)\n  File "E:\\web2py_src\\web2py\\gluon\\template.py", line 77, in output_aux\n    if isinstance(node, BlockNode) \\\n  File "E:\\web2py_src\\web2py\\gluon\\template.py", line 149, in output\n    return \'\'.join(output_aux(node, blocks) for node in self.nodes)\n  File "E:\\web2py_src\\web2py\\gluon\\template.py", line 149, in <genexpr>\n    return \'\'.join(output_aux(node, blocks) for node in self.nodes)\n  File "E:\\web2py_src\\web2py\\gluon\\template.py", line 77, in output_aux\n    if isinstance(node, BlockNode) \\\n  File "E:\\web2py_src\\web2py\\gluon\\template.py", line 149, in output\n    return \'\'.join(output_aux(node, blocks) for node in self.nodes)\n  File "E:\\web2py_src\\web2py\\gluon\\template.py", line 149, in <genexpr>\n    return \'\'.join(output_aux(node, blocks) for node in self.nodes)\n  File "E:\\web2py_src\\web2py\\gluon\\template.py", line 77, in output_aux\n    if isinstance(node, BlockNode) \\\n  File "E:\\web2py_src\\web2py\\gluon\\template.py", line 149, in output\n    return \'\'.join(output_aux(node, blocks) for node in self.nodes)\n  File "E:\\web2py_src\\web2py\\gluon\\template.py", line 149, in <genexpr>\n    return \'\'.join(output_aux(node, blocks) for node in self.nodes)\n  File "E:\\web2py_src\\web2py\\gluon\\template.py", line 77, in output_aux\n    if isinstance(node, BlockNode) \\\n  File "E:\\web2py_src\\web2py\\gluon\\template.py", line 149, in output\n    return \'\'.join(output_aux(node, blocks) for node in self.nodes)\n  File "E:\\web2py_src\\web2py\\gluon\\template.py", line 149, in <genexpr>\n    return \'\'.join(output_aux(node, blocks) for node in self.nodes)\n  File "E:\\web2py_src\\web2py\\gluon\\template.py", line 77, in output_aux\n    if isinstance(node, BlockNode) \\\n  File "E:\\web2py_src\\web2py\\gluon\\template.py", line 149, in output\n    return \'\'.join(output_aux(node, blocks) for node in self.nodes)\n  File "E:\\web2py_src\\web2py\\gluon\\template.py", line 149, in <genexpr>\n    return \'\'.join(output_aux(node, blocks) for node in self.nodes)\n  File "E:\\web2py_src\\web2py\\gluon\\template.py", line 77, in output_aux\n    if isinstance(node, BlockNode) \\\n  File "E:\\web2py_src\\web2py\\gluon\\template.py", line 149, in output\n    return \'\'.join(output_aux(node, blocks) for node in self.nodes)\n  File "E:\\web2py_src\\web2py\\gluon\\template.py", line 149, in <genexpr>\n    return \'\'.join(output_aux(node, blocks) for node in self.nodes)\n  File "E:\\web2py_src\\web2py\\gluon\\template.py", line 77, in output_aux\n    if isinstance(node, BlockNode) \\\n  File "E:\\web2py_src\\web2py\\gluon\\template.py", line 149, in output\n    return \'\'.join(output_aux(node, blocks) for node in self.nodes)\n  File "E:\\web2py_src\\web2py\\gluon\\template.py", line 149, in <genexpr>\n    return \'\'.join(output_aux(node, blocks) for node in self.nodes)\n  File "E:\\web2py_src\\web2py\\gluon\\template.py", line 77, in output_aux\n    if isinstance(node, BlockNode) \\\n  File "E:\\web2py_src\\web2py\\gluon\\template.py", line 149, in output\n    return \'\'.join(output_aux(node, blocks) for node in self.nodes)\n  File "E:\\web2py_src\\web2py\\gluon\\template.py", line 149, in <genexpr>\n    return \'\'.join(output_aux(node, blocks) for node in self.nodes)\n  File "E:\\web2py_src\\web2py\\gluon\\template.py", line 77, in output_aux\n    if isinstance(node, BlockNode) \\\n  File "E:\\web2py_src\\web2py\\gluon\\template.py", line 149, in output\n    return \'\'.join(output_aux(node, blocks) for node in self.nodes)\n  File "E:\\web2py_src\\web2py\\gluon\\template.py", line 149, in <genexpr>\n    return \'\'.join(output_aux(node, blocks) for node in self.nodes)\n  File "E:\\web2py_src\\web2py\\gluon\\template.py", line 77, in output_aux\n    if isinstance(node, BlockNode) \\\n  File "E:\\web2py_src\\web2py\\gluon\\template.py", line 149, in output\n    return \'\'.join(output_aux(node, blocks) for node in self.nodes)\n  File "E:\\web2py_src\\web2py\\gluon\\template.py", line 149, in <genexpr>\n    return \'\'.join(output_aux(node, blocks) for node in self.nodes)\n  File "E:\\web2py_src\\web2py\\gluon\\template.py", line 77, in output_aux\n    if isinstance(node, BlockNode) \\\n  File "E:\\web2py_src\\web2py\\gluon\\template.py", line 149, in output\n    return \'\'.join(output_aux(node, blocks) for node in self.nodes)\n  File "E:\\web2py_src\\web2py\\gluon\\template.py", line 149, in <genexpr>\n    return \'\'.join(output_aux(node, blocks) for node in self.nodes)\n  File "E:\\web2py_src\\web2py\\gluon\\template.py", line 77, in output_aux\n    if isinstance(node, BlockNode) \\\n  File "E:\\web2py_src\\web2py\\gluon\\template.py", line 149, in output\n    return \'\'.join(output_aux(node, blocks) for node in self.nodes)\n  File "E:\\web2py_src\\web2py\\gluon\\template.py", line 149, in <genexpr>\n    return \'\'.join(output_aux(node, blocks) for node in self.nodes)\n  File "E:\\web2py_src\\web2py\\gluon\\template.py", line 77, in output_aux\n    if isinstance(node, BlockNode) \\\n  File "E:\\web2py_src\\web2py\\gluon\\template.py", line 149, in output\n    return \'\'.join(output_aux(node, blocks) for node in self.nodes)\n  File "E:\\web2py_src\\web2py\\gluon\\template.py", line 149, in <genexpr>\n    return \'\'.join(output_aux(node, blocks) for node in self.nodes)\n  File "E:\\web2py_src\\web2py\\gluon\\template.py", line 77, in output_aux\n    if isinstance(node, BlockNode) \\\n  File "E:\\web2py_src\\web2py\\gluon\\template.py", line 149, in output\n    return \'\'.join(output_aux(node, blocks) for node in self.nodes)\n  File "E:\\web2py_src\\web2py\\gluon\\template.py", line 149, in <genexpr>\n    return \'\'.join(output_aux(node, blocks) for node in self.nodes)\n  File "E:\\web2py_src\\web2py\\gluon\\template.py", line 77, in output_aux\n    if isinstance(node, BlockNode) \\\n  File "E:\\web2py_src\\web2py\\gluon\\template.py", line 149, in output\n    return \'\'.join(output_aux(node, blocks) for node in self.nodes)\n  File "E:\\web2py_src\\web2py\\gluon\\template.py", line 149, in <genexpr>\n    return \'\'.join(output_aux(node, blocks) for node in self.nodes)\n  File "E:\\web2py_src\\web2py\\gluon\\template.py", line 77, in output_aux\n    if isinstance(node, BlockNode) \\\n  File "E:\\web2py_src\\web2py\\gluon\\template.py", line 149, in output\n    return \'\'.join(output_aux(node, blocks) for node in self.nodes)\n  File "E:\\web2py_src\\web2py\\gluon\\template.py", line 149, in <genexpr>\n    return \'\'.join(output_aux(node, blocks) for node in self.nodes)\n  File "E:\\web2py_src\\web2py\\gluon\\template.py", line 77, in output_aux\n    if isinstance(node, BlockNode) \\\n  File "E:\\web2py_src\\web2py\\gluon\\template.py", line 149, in output\n    return \'\'.join(output_aux(node, blocks) for node in self.nodes)\n  File "E:\\web2py_src\\web2py\\gluon\\template.py", line 149, in <genexpr>\n    return \'\'.join(output_aux(node, blocks) for node in self.nodes)\n  File "E:\\web2py_src\\web2py\\gluon\\template.py", line 77, in output_aux\n    if isinstance(node, BlockNode) \\\n  File "E:\\web2py_src\\web2py\\gluon\\template.py", line 149, in output\n    return \'\'.join(output_aux(node, blocks) for node in self.nodes)\n  File "E:\\web2py_src\\web2py\\gluon\\template.py", line 149, in <genexpr>\n    return \'\'.join(output_aux(node, blocks) for node in self.nodes)\n  File "E:\\web2py_src\\web2py\\gluon\\template.py", line 77, in output_aux\n    if isinstance(node, BlockNode) \\\n  File "E:\\web2py_src\\web2py\\gluon\\template.py", line 149, in output\n    return \'\'.join(output_aux(node, blocks) for node in self.nodes)\n  File "E:\\web2py_src\\web2py\\gluon\\template.py", line 149, in <genexpr>\n    return \'\'.join(output_aux(node, blocks) for node in self.nodes)\n  File "E:\\web2py_src\\web2py\\gluon\\template.py", line 77, in output_aux\n    if isinstance(node, BlockNode) \\\n  File "E:\\web2py_src\\web2py\\gluon\\template.py", line 149, in output\n    return \'\'.join(output_aux(node, blocks) for node in self.nodes)\n  File "E:\\web2py_src\\web2py\\gluon\\template.py", line 149, in <genexpr>\n    return \'\'.join(output_aux(node, blocks) for node in self.nodes)\n  File "E:\\web2py_src\\web2py\\gluon\\template.py", line 77, in output_aux\n    if isinstance(node, BlockNode) \\\n  File "E:\\web2py_src\\web2py\\gluon\\template.py", line 149, in output\n    return \'\'.join(output_aux(node, blocks) for node in self.nodes)\n  File "E:\\web2py_src\\web2py\\gluon\\template.py", line 149, in <genexpr>\n    return \'\'.join(output_aux(node, blocks) for node in self.nodes)\n  File "E:\\web2py_src\\web2py\\gluon\\template.py", line 77, in output_aux\n    if isinstance(node, BlockNode) \\\n  File "E:\\web2py_src\\web2py\\gluon\\template.py", line 149, in output\n    return \'\'.join(output_aux(node, blocks) for node in self.nodes)\n  File "E:\\web2py_src\\web2py\\gluon\\template.py", line 149, in <genexpr>\n    return \'\'.join(output_aux(node, blocks) for node in self.nodes)\n  File "E:\\web2py_src\\web2py\\gluon\\template.py", line 77, in output_aux\n    if isinstance(node, BlockNode) \\\n  File "E:\\web2py_src\\web2py\\gluon\\template.py", line 149, in output\n    return \'\'.join(output_aux(node, blocks) for node in self.nodes)\n  File "E:\\web2py_src\\web2py\\gluon\\template.py", line 149, in <genexpr>\n    return \'\'.join(output_aux(node, blocks) for node in self.nodes)\n  File "E:\\web2py_src\\web2py\\gluon\\template.py", line 77, in output_aux\n    if isinstance(node, BlockNode) \\\n  File "E:\\web2py_src\\web2py\\gluon\\template.py", line 149, in output\n    return \'\'.join(output_aux(node, blocks) for node in self.nodes)\n  File "E:\\web2py_src\\web2py\\gluon\\template.py", line 149, in <genexpr>\n    return \'\'.join(output_aux(node, blocks) for node in self.nodes)\n  File "E:\\web2py_src\\web2py\\gluon\\template.py", line 77, in output_aux\n    if isinstance(node, BlockNode) \\\n  File "E:\\web2py_src\\web2py\\gluon\\template.py", line 149, in output\n    return \'\'.join(output_aux(node, blocks) for node in self.nodes)\n  File "E:\\web2py_src\\web2py\\gluon\\template.py", line 149, in <genexpr>\n    return \'\'.join(output_aux(node, blocks) for node in self.nodes)\n  File "E:\\web2py_src\\web2py\\gluon\\template.py", line 77, in output_aux\n    if isinstance(node, BlockNode) \\\n  File "E:\\web2py_src\\web2py\\gluon\\template.py", line 149, in output\n    return \'\'.join(output_aux(node, blocks) for node in self.nodes)\n  File "E:\\web2py_src\\web2py\\gluon\\template.py", line 149, in <genexpr>\n    return \'\'.join(output_aux(node, blocks) for node in self.nodes)\n  File "E:\\web2py_src\\web2py\\gluon\\template.py", line 77, in output_aux\n    if isinstance(node, BlockNode) \\\n  File "E:\\web2py_src\\web2py\\gluon\\template.py", line 149, in output\n    return \'\'.join(output_aux(node, blocks) for node in self.nodes)\n  File "E:\\web2py_src\\web2py\\gluon\\template.py", line 149, in <genexpr>\n    return \'\'.join(output_aux(node, blocks) for node in self.nodes)\n  File "E:\\web2py_src\\web2py\\gluon\\template.py", line 77, in output_aux\n    if isinstance(node, BlockNode) \\\n  File "E:\\web2py_src\\web2py\\gluon\\template.py", line 149, in output\n    return \'\'.join(output_aux(node, blocks) for node in self.nodes)\n  File "E:\\web2py_src\\web2py\\gluon\\template.py", line 149, in <genexpr>\n    return \'\'.join(output_aux(node, blocks) for node in self.nodes)\n  File "E:\\web2py_src\\web2py\\gluon\\template.py", line 77, in output_aux\n    if isinstance(node, BlockNode) \\\n  File "E:\\web2py_src\\web2py\\gluon\\template.py", line 149, in output\n    return \'\'.join(output_aux(node, blocks) for node in self.nodes)\n  File "E:\\web2py_src\\web2py\\gluon\\template.py", line 149, in <genexpr>\n    return \'\'.join(output_aux(node, blocks) for node in self.nodes)\n  File "E:\\web2py_src\\web2py\\gluon\\template.py", line 77, in output_aux\n    if isinstance(node, BlockNode) \\\n  File "E:\\web2py_src\\web2py\\gluon\\template.py", line 149, in output\n    return \'\'.join(output_aux(node, blocks) for node in self.nodes)\n  File "E:\\web2py_src\\web2py\\gluon\\template.py", line 149, in <genexpr>\n    return \'\'.join(output_aux(node, blocks) for node in self.nodes)\n  File "E:\\web2py_src\\web2py\\gluon\\template.py", line 77, in output_aux\n    if isinstance(node, BlockNode) \\\n  File "E:\\web2py_src\\web2py\\gluon\\template.py", line 149, in output\n    return \'\'.join(output_aux(node, blocks) for node in self.nodes)\n  File "E:\\web2py_src\\web2py\\gluon\\template.py", line 149, in <genexpr>\n    return \'\'.join(output_aux(node, blocks) for node in self.nodes)\n  File "E:\\web2py_src\\web2py\\gluon\\template.py", line 77, in output_aux\n    if isinstance(node, BlockNode) \\\n  File "E:\\web2py_src\\web2py\\gluon\\template.py", line 149, in output\n    return \'\'.join(output_aux(node, blocks) for node in self.nodes)\n  File "E:\\web2py_src\\web2py\\gluon\\template.py", line 149, in <genexpr>\n    return \'\'.join(output_aux(node, blocks) for node in self.nodes)\n  File "E:\\web2py_src\\web2py\\gluon\\template.py", line 77, in output_aux\n    if isinstance(node, BlockNode) \\\n  File "E:\\web2py_src\\web2py\\gluon\\template.py", line 149, in output\n    return \'\'.join(output_aux(node, blocks) for node in self.nodes)\n  File "E:\\web2py_src\\web2py\\gluon\\template.py", line 149, in <genexpr>\n    return \'\'.join(output_aux(node, blocks) for node in self.nodes)\n  File "E:\\web2py_src\\web2py\\gluon\\template.py", line 77, in output_aux\n    if isinstance(node, BlockNode) \\\n  File "E:\\web2py_src\\web2py\\gluon\\template.py", line 149, in output\n    return \'\'.join(output_aux(node, blocks) for node in self.nodes)\n  File "E:\\web2py_src\\web2py\\gluon\\template.py", line 149, in <genexpr>\n    return \'\'.join(output_aux(node, blocks) for node in self.nodes)\n  File "E:\\web2py_src\\web2py\\gluon\\template.py", line 77, in output_aux\n    if isinstance(node, BlockNode) \\\n  File "E:\\web2py_src\\web2py\\gluon\\template.py", line 149, in output\n    return \'\'.join(output_aux(node, blocks) for node in self.nodes)\n  File "E:\\web2py_src\\web2py\\gluon\\template.py", line 149, in <genexpr>\n    return \'\'.join(output_aux(node, blocks) for node in self.nodes)\n  File "E:\\web2py_src\\web2py\\gluon\\template.py", line 77, in output_aux\n    if isinstance(node, BlockNode) \\\n  File "E:\\web2py_src\\web2py\\gluon\\template.py", line 149, in output\n    return \'\'.join(output_aux(node, blocks) for node in self.nodes)\n  File "E:\\web2py_src\\web2py\\gluon\\template.py", line 149, in <genexpr>\n    return \'\'.join(output_aux(node, blocks) for node in self.nodes)\n  File "E:\\web2py_src\\web2py\\gluon\\template.py", line 77, in output_aux\n    if isinstance(node, BlockNode) \\\n  File "E:\\web2py_src\\web2py\\gluon\\template.py", line 149, in output\n    return \'\'.join(output_aux(node, blocks) for node in self.nodes)\n  File "E:\\web2py_src\\web2py\\gluon\\template.py", line 149, in <genexpr>\n    return \'\'.join(output_aux(node, blocks) for node in self.nodes)\n  File "E:\\web2py_src\\web2py\\gluon\\template.py", line 77, in output_aux\n    if isinstance(node, BlockNode) \\\n  File "E:\\web2py_src\\web2py\\gluon\\template.py", line 149, in output\n    return \'\'.join(output_aux(node, blocks) for node in self.nodes)\n  File "E:\\web2py_src\\web2py\\gluon\\template.py", line 149, in <genexpr>\n    return \'\'.join(output_aux(node, blocks) for node in self.nodes)\n  File "E:\\web2py_src\\web2py\\gluon\\template.py", line 77, in output_aux\n    if isinstance(node, BlockNode) \\\n  File "E:\\web2py_src\\web2py\\gluon\\template.py", line 149, in output\n    return \'\'.join(output_aux(node, blocks) for node in self.nodes)\n  File "E:\\web2py_src\\web2py\\gluon\\template.py", line 149, in <genexpr>\n    return \'\'.join(output_aux(node, blocks) for node in self.nodes)\n  File "E:\\web2py_src\\web2py\\gluon\\template.py", line 77, in output_aux\n    if isinstance(node, BlockNode) \\\n  File "E:\\web2py_src\\web2py\\gluon\\template.py", line 149, in output\n    return \'\'.join(output_aux(node, blocks) for node in self.nodes)\n  File "E:\\web2py_src\\web2py\\gluon\\template.py", line 149, in <genexpr>\n    return \'\'.join(output_aux(node, blocks) for node in self.nodes)\n  File "E:\\web2py_src\\web2py\\gluon\\template.py", line 77, in output_aux\n    if isinstance(node, BlockNode) \\\n  File "E:\\web2py_src\\web2py\\gluon\\template.py", line 149, in output\n    return \'\'.join(output_aux(node, blocks) for node in self.nodes)\n  File "E:\\web2py_src\\web2py\\gluon\\template.py", line 149, in <genexpr>\n    return \'\'.join(output_aux(node, blocks) for node in self.nodes)\n  File "E:\\web2py_src\\web2py\\gluon\\template.py", line 77, in output_aux\n    if isinstance(node, BlockNode) \\\n  File "E:\\web2py_src\\web2py\\gluon\\template.py", line 149, in output\n    return \'\'.join(output_aux(node, blocks) for node in self.nodes)\n  File "E:\\web2py_src\\web2py\\gluon\\template.py", line 149, in <genexpr>\n    return \'\'.join(output_aux(node, blocks) for node in self.nodes)\n  File "E:\\web2py_src\\web2py\\gluon\\template.py", line 77, in output_aux\n    if isinstance(node, BlockNode) \\\n  File "E:\\web2py_src\\web2py\\gluon\\template.py", line 149, in output\n    return \'\'.join(output_aux(node, blocks) for node in self.nodes)\n  File "E:\\web2py_src\\web2py\\gluon\\template.py", line 149, in <genexpr>\n    return \'\'.join(output_aux(node, blocks) for node in self.nodes)\n  File "E:\\web2py_src\\web2py\\gluon\\template.py", line 77, in output_aux\n    if isinstance(node, BlockNode) \\\n  File "E:\\web2py_src\\web2py\\gluon\\template.py", line 149, in output\n    return \'\'.join(output_aux(node, blocks) for node in self.nodes)\n  File "E:\\web2py_src\\web2py\\gluon\\template.py", line 149, in <genexpr>\n    return \'\'.join(output_aux(node, blocks) for node in self.nodes)\n  File "E:\\web2py_src\\web2py\\gluon\\template.py", line 77, in output_aux\n    if isinstance(node, BlockNode) \\\n  File "E:\\web2py_src\\web2py\\gluon\\template.py", line 149, in output\n    return \'\'.join(output_aux(node, blocks) for node in self.nodes)\n  File "E:\\web2py_src\\web2py\\gluon\\template.py", line 149, in <genexpr>\n    return \'\'.join(output_aux(node, blocks) for node in self.nodes)\n  File "E:\\web2py_src\\web2py\\gluon\\template.py", line 77, in output_aux\n    if isinstance(node, BlockNode) \\\n  File "E:\\web2py_src\\web2py\\gluon\\template.py", line 149, in output\n    return \'\'.join(output_aux(node, blocks) for node in self.nodes)\n  File "E:\\web2py_src\\web2py\\gluon\\template.py", line 149, in <genexpr>\n    return \'\'.join(output_aux(node, blocks) for node in self.nodes)\n  File "E:\\web2py_src\\web2py\\gluon\\template.py", line 77, in output_aux\n    if isinstance(node, BlockNode) \\\n  File "E:\\web2py_src\\web2py\\gluon\\template.py", line 149, in output\n    return \'\'.join(output_aux(node, blocks) for node in self.nodes)\n  File "E:\\web2py_src\\web2py\\gluon\\template.py", line 149, in <genexpr>\n    return \'\'.join(output_aux(node, blocks) for node in self.nodes)\n  File "E:\\web2py_src\\web2py\\gluon\\template.py", line 77, in output_aux\n    if isinstance(node, BlockNode) \\\n  File "E:\\web2py_src\\web2py\\gluon\\template.py", line 149, in output\n    return \'\'.join(output_aux(node, blocks) for node in self.nodes)\n  File "E:\\web2py_src\\web2py\\gluon\\template.py", line 149, in <genexpr>\n    return \'\'.join(output_aux(node, blocks) for node in self.nodes)\n  File "E:\\web2py_src\\web2py\\gluon\\template.py", line 77, in output_aux\n    if isinstance(node, BlockNode) \\\n  File "E:\\web2py_src\\web2py\\gluon\\template.py", line 149, in output\n    return \'\'.join(output_aux(node, blocks) for node in self.nodes)\n  File "E:\\web2py_src\\web2py\\gluon\\template.py", line 149, in <genexpr>\n    return \'\'.join(output_aux(node, blocks) for node in self.nodes)\n  File "E:\\web2py_src\\web2py\\gluon\\template.py", line 77, in output_aux\n    if isinstance(node, BlockNode) \\\n  File "E:\\web2py_src\\web2py\\gluon\\template.py", line 149, in output\n    return \'\'.join(output_aux(node, blocks) for node in self.nodes)\n  File "E:\\web2py_src\\web2py\\gluon\\template.py", line 149, in <genexpr>\n    return \'\'.join(output_aux(node, blocks) for node in self.nodes)\n  File "E:\\web2py_src\\web2py\\gluon\\template.py", line 77, in output_aux\n    if isinstance(node, BlockNode) \\\n  File "E:\\web2py_src\\web2py\\gluon\\template.py", line 149, in output\n    return \'\'.join(output_aux(node, blocks) for node in self.nodes)\n  File "E:\\web2py_src\\web2py\\gluon\\template.py", line 149, in <genexpr>\n    return \'\'.join(output_aux(node, blocks) for node in self.nodes)\n  File "E:\\web2py_src\\web2py\\gluon\\template.py", line 77, in output_aux\n    if isinstance(node, BlockNode) \\\n  File "E:\\web2py_src\\web2py\\gluon\\template.py", line 149, in output\n    return \'\'.join(output_aux(node, blocks) for node in self.nodes)\n  File "E:\\web2py_src\\web2py\\gluon\\template.py", line 149, in <genexpr>\n    return \'\'.join(output_aux(node, blocks) for node in self.nodes)\n  File "E:\\web2py_src\\web2py\\gluon\\template.py", line 77, in output_aux\n    if isinstance(node, BlockNode) \\\n  File "E:\\web2py_src\\web2py\\gluon\\template.py", line 149, in output\n    return \'\'.join(output_aux(node, blocks) for node in self.nodes)\n  File "E:\\web2py_src\\web2py\\gluon\\template.py", line 149, in <genexpr>\n    return \'\'.join(output_aux(node, blocks) for node in self.nodes)\n  File "E:\\web2py_src\\web2py\\gluon\\template.py", line 77, in output_aux\n    if isinstance(node, BlockNode) \\\n  File "E:\\web2py_src\\web2py\\gluon\\template.py", line 149, in output\n    return \'\'.join(output_aux(node, blocks) for node in self.nodes)\n  File "E:\\web2py_src\\web2py\\gluon\\template.py", line 149, in <genexpr>\n    return \'\'.join(output_aux(node, blocks) for node in self.nodes)\n  File "E:\\web2py_src\\web2py\\gluon\\template.py", line 77, in output_aux\n    if isinstance(node, BlockNode) \\\n  File "E:\\web2py_src\\web2py\\gluon\\template.py", line 149, in output\n    return \'\'.join(output_aux(node, blocks) for node in self.nodes)\n  File "E:\\web2py_src\\web2py\\gluon\\template.py", line 149, in <genexpr>\n    return \'\'.join(output_aux(node, blocks) for node in self.nodes)\n  File "E:\\web2py_src\\web2py\\gluon\\template.py", line 77, in output_aux\n    if isinstance(node, BlockNode) \\\n  File "E:\\web2py_src\\web2py\\gluon\\template.py", line 149, in output\n    return \'\'.join(output_aux(node, blocks) for node in self.nodes)\n  File "E:\\web2py_src\\web2py\\gluon\\template.py", line 149, in <genexpr>\n    return \'\'.join(output_aux(node, blocks) for node in self.nodes)\n  File "E:\\web2py_src\\web2py\\gluon\\template.py", line 77, in output_aux\n    if isinstance(node, BlockNode) \\\n  File "E:\\web2py_src\\web2py\\gluon\\template.py", line 149, in output\n    return \'\'.join(output_aux(node, blocks) for node in self.nodes)\n  File "E:\\web2py_src\\web2py\\gluon\\template.py", line 149, in <genexpr>\n    return \'\'.join(output_aux(node, blocks) for node in self.nodes)\n  File "E:\\web2py_src\\web2py\\gluon\\template.py", line 77, in output_aux\n    if isinstance(node, BlockNode) \\\n  File "E:\\web2py_src\\web2py\\gluon\\template.py", line 149, in output\n    return \'\'.join(output_aux(node, blocks) for node in self.nodes)\n  File "E:\\web2py_src\\web2py\\gluon\\template.py", line 149, in <genexpr>\n    return \'\'.join(output_aux(node, blocks) for node in self.nodes)\n  File "E:\\web2py_src\\web2py\\gluon\\template.py", line 77, in output_aux\n    if isinstance(node, BlockNode) \\\n  File "E:\\web2py_src\\web2py\\gluon\\template.py", line 149, in output\n    return \'\'.join(output_aux(node, blocks) for node in self.nodes)\n  File "E:\\web2py_src\\web2py\\gluon\\template.py", line 149, in <genexpr>\n    return \'\'.join(output_aux(node, blocks) for node in self.nodes)\n  File "E:\\web2py_src\\web2py\\gluon\\template.py", line 77, in output_aux\n    if isinstance(node, BlockNode) \\\n  File "E:\\web2py_src\\web2py\\gluon\\template.py", line 149, in output\n    return \'\'.join(output_aux(node, blocks) for node in self.nodes)\n  File "E:\\web2py_src\\web2py\\gluon\\template.py", line 149, in <genexpr>\n    return \'\'.join(output_aux(node, blocks) for node in self.nodes)\n  File "E:\\web2py_src\\web2py\\gluon\\template.py", line 77, in output_aux\n    if isinstance(node, BlockNode) \\\n  File "E:\\web2py_src\\web2py\\gluon\\template.py", line 149, in output\n    return \'\'.join(output_aux(node, blocks) for node in self.nodes)\n  File "E:\\web2py_src\\web2py\\gluon\\template.py", line 149, in <genexpr>\n    return \'\'.join(output_aux(node, blocks) for node in self.nodes)\n  File "E:\\web2py_src\\web2py\\gluon\\template.py", line 77, in output_aux\n    if isinstance(node, BlockNode) \\\n  File "E:\\web2py_src\\web2py\\gluon\\template.py", line 149, in output\n    return \'\'.join(output_aux(node, blocks) for node in self.nodes)\n  File "E:\\web2py_src\\web2py\\gluon\\template.py", line 149, in <genexpr>\n    return \'\'.join(output_aux(node, blocks) for node in self.nodes)\n  File "E:\\web2py_src\\web2py\\gluon\\template.py", line 77, in output_aux\n    if isinstance(node, BlockNode) \\\n  File "E:\\web2py_src\\web2py\\gluon\\template.py", line 149, in output\n    return \'\'.join(output_aux(node, blocks) for node in self.nodes)\n  File "E:\\web2py_src\\web2py\\gluon\\template.py", line 149, in <genexpr>\n    return \'\'.join(output_aux(node, blocks) for node in self.nodes)\n  File "E:\\web2py_src\\web2py\\gluon\\template.py", line 77, in output_aux\n    if isinstance(node, BlockNode) \\\n  File "E:\\web2py_src\\web2py\\gluon\\template.py", line 149, in output\n    return \'\'.join(output_aux(node, blocks) for node in self.nodes)\n  File "E:\\web2py_src\\web2py\\gluon\\template.py", line 149, in <genexpr>\n    return \'\'.join(output_aux(node, blocks) for node in self.nodes)\n  File "E:\\web2py_src\\web2py\\gluon\\template.py", line 77, in output_aux\n    if isinstance(node, BlockNode) \\\n  File "E:\\web2py_src\\web2py\\gluon\\template.py", line 149, in output\n    return \'\'.join(output_aux(node, blocks) for node in self.nodes)\n  File "E:\\web2py_src\\web2py\\gluon\\template.py", line 149, in <genexpr>\n    return \'\'.join(output_aux(node, blocks) for node in self.nodes)\n  File "E:\\web2py_src\\web2py\\gluon\\template.py", line 77, in output_aux\n    if isinstance(node, BlockNode) \\\n  File "E:\\web2py_src\\web2py\\gluon\\template.py", line 149, in output\n    return \'\'.join(output_aux(node, blocks) for node in self.nodes)\n  File "E:\\web2py_src\\web2py\\gluon\\template.py", line 149, in <genexpr>\n    return \'\'.join(output_aux(node, blocks) for node in self.nodes)\n  File "E:\\web2py_src\\web2py\\gluon\\template.py", line 77, in output_aux\n    if isinstance(node, BlockNode) \\\n  File "E:\\web2py_src\\web2py\\gluon\\template.py", line 149, in output\n    return \'\'.join(output_aux(node, blocks) for node in self.nodes)\n  File "E:\\web2py_src\\web2py\\gluon\\template.py", line 149, in <genexpr>\n    return \'\'.join(output_aux(node, blocks) for node in self.nodes)\n  File "E:\\web2py_src\\web2py\\gluon\\template.py", line 77, in output_aux\n    if isinstance(node, BlockNode) \\\n  File "E:\\web2py_src\\web2py\\gluon\\template.py", line 149, in output\n    return \'\'.join(output_aux(node, blocks) for node in self.nodes)\n  File "E:\\web2py_src\\web2py\\gluon\\template.py", line 149, in <genexpr>\n    return \'\'.join(output_aux(node, blocks) for node in self.nodes)\n  File "E:\\web2py_src\\web2py\\gluon\\template.py", line 77, in output_aux\n    if isinstance(node, BlockNode) \\\n  File "E:\\web2py_src\\web2py\\gluon\\template.py", line 149, in output\n    return \'\'.join(output_aux(node, blocks) for node in self.nodes)\n  File "E:\\web2py_src\\web2py\\gluon\\template.py", line 149, in <genexpr>\n    return \'\'.join(output_aux(node, blocks) for node in self.nodes)\n  File "E:\\web2py_src\\web2py\\gluon\\template.py", line 77, in output_aux\n    if isinstance(node, BlockNode) \\\n  File "E:\\web2py_src\\web2py\\gluon\\template.py", line 149, in output\n    return \'\'.join(output_aux(node, blocks) for node in self.nodes)\n  File "E:\\web2py_src\\web2py\\gluon\\template.py", line 149, in <genexpr>\n    return \'\'.join(output_aux(node, blocks) for node in self.nodes)\n  File "E:\\web2py_src\\web2py\\gluon\\template.py", line 77, in output_aux\n    if isinstance(node, BlockNode) \\\n  File "E:\\web2py_src\\web2py\\gluon\\template.py", line 149, in output\n    return \'\'.join(output_aux(node, blocks) for node in self.nodes)\n  File "E:\\web2py_src\\web2py\\gluon\\template.py", line 149, in <genexpr>\n    return \'\'.join(output_aux(node, blocks) for node in self.nodes)\n  File "E:\\web2py_src\\web2py\\gluon\\template.py", line 77, in output_aux\n    if isinstance(node, BlockNode) \\\n  File "E:\\web2py_src\\web2py\\gluon\\template.py", line 149, in output\n    return \'\'.join(output_aux(node, blocks) for node in self.nodes)\n  File "E:\\web2py_src\\web2py\\gluon\\template.py", line 149, in <genexpr>\n    return \'\'.join(output_aux(node, blocks) for node in self.nodes)\n  File "E:\\web2py_src\\web2py\\gluon\\template.py", line 77, in output_aux\n    if isinstance(node, BlockNode) \\\n  File "E:\\web2py_src\\web2py\\gluon\\template.py", line 149, in output\n    return \'\'.join(output_aux(node, blocks) for node in self.nodes)\n  File "E:\\web2py_src\\web2py\\gluon\\template.py", line 149, in <genexpr>\n    return \'\'.join(output_aux(node, blocks) for node in self.nodes)\n  File "E:\\web2py_src\\web2py\\gluon\\template.py", line 77, in output_aux\n    if isinstance(node, BlockNode) \\\n  File "E:\\web2py_src\\web2py\\gluon\\template.py", line 149, in output\n    return \'\'.join(output_aux(node, blocks) for node in self.nodes)\n  File "E:\\web2py_src\\web2py\\gluon\\template.py", line 149, in <genexpr>\n    return \'\'.join(output_aux(node, blocks) for node in self.nodes)\n  File "E:\\web2py_src\\web2py\\gluon\\template.py", line 77, in output_aux\n    if isinstance(node, BlockNode) \\\n  File "E:\\web2py_src\\web2py\\gluon\\template.py", line 149, in output\n    return \'\'.join(output_aux(node, blocks) for node in self.nodes)\n  File "E:\\web2py_src\\web2py\\gluon\\template.py", line 149, in <genexpr>\n    return \'\'.join(output_aux(node, blocks) for node in self.nodes)\n  File "E:\\web2py_src\\web2py\\gluon\\template.py", line 77, in output_aux\n    if isinstance(node, BlockNode) \\\n  File "E:\\web2py_src\\web2py\\gluon\\template.py", line 149, in output\n    return \'\'.join(output_aux(node, blocks) for node in self.nodes)\n  File "E:\\web2py_src\\web2py\\gluon\\template.py", line 149, in <genexpr>\n    return \'\'.join(output_aux(node, blocks) for node in self.nodes)\n  File "E:\\web2py_src\\web2py\\gluon\\template.py", line 77, in output_aux\n    if isinstance(node, BlockNode) \\\n  File "E:\\web2py_src\\web2py\\gluon\\template.py", line 149, in output\n    return \'\'.join(output_aux(node, blocks) for node in self.nodes)\n  File "E:\\web2py_src\\web2py\\gluon\\template.py", line 149, in <genexpr>\n    return \'\'.join(output_aux(node, blocks) for node in self.nodes)\n  File "E:\\web2py_src\\web2py\\gluon\\template.py", line 77, in output_aux\n    if isinstance(node, BlockNode) \\\n  File "E:\\web2py_src\\web2py\\gluon\\template.py", line 149, in output\n    return \'\'.join(output_aux(node, blocks) for node in self.nodes)\n  File "E:\\web2py_src\\web2py\\gluon\\template.py", line 149, in <genexpr>\n    return \'\'.join(output_aux(node, blocks) for node in self.nodes)\n  File "E:\\web2py_src\\web2py\\gluon\\template.py", line 77, in output_aux\n    if isinstance(node, BlockNode) \\\n  File "E:\\web2py_src\\web2py\\gluon\\template.py", line 149, in output\n    return \'\'.join(output_aux(node, blocks) for node in self.nodes)\n  File "E:\\web2py_src\\web2py\\gluon\\template.py", line 149, in <genexpr>\n    return \'\'.join(output_aux(node, blocks) for node in self.nodes)\n  File "E:\\web2py_src\\web2py\\gluon\\template.py", line 77, in output_aux\n    if isinstance(node, BlockNode) \\\n  File "E:\\web2py_src\\web2py\\gluon\\template.py", line 149, in output\n    return \'\'.join(output_aux(node, blocks) for node in self.nodes)\n  File "E:\\web2py_src\\web2py\\gluon\\template.py", line 149, in <genexpr>\n    return \'\'.join(output_aux(node, blocks) for node in self.nodes)\n  File "E:\\web2py_src\\web2py\\gluon\\template.py", line 77, in output_aux\n    if isinstance(node, BlockNode) \\\n  File "E:\\web2py_src\\web2py\\gluon\\template.py", line 149, in output\n    return \'\'.join(output_aux(node, blocks) for node in self.nodes)\n  File "E:\\web2py_src\\web2py\\gluon\\template.py", line 149, in <genexpr>\n    return \'\'.join(output_aux(node, blocks) for node in self.nodes)\n  File "E:\\web2py_src\\web2py\\gluon\\template.py", line 77, in output_aux\n    if isinstance(node, BlockNode) \\\n  File "E:\\web2py_src\\web2py\\gluon\\template.py", line 149, in output\n    return \'\'.join(output_aux(node, blocks) for node in self.nodes)\n  File "E:\\web2py_src\\web2py\\gluon\\template.py", line 149, in <genexpr>\n    return \'\'.join(output_aux(node, blocks) for node in self.nodes)\n  File "E:\\web2py_src\\web2py\\gluon\\template.py", line 77, in output_aux\n    if isinstance(node, BlockNode) \\\n  File "E:\\web2py_src\\web2py\\gluon\\template.py", line 149, in output\n    return \'\'.join(output_aux(node, blocks) for node in self.nodes)\n  File "E:\\web2py_src\\web2py\\gluon\\template.py", line 149, in <genexpr>\n    return \'\'.join(output_aux(node, blocks) for node in self.nodes)\n  File "E:\\web2py_src\\web2py\\gluon\\template.py", line 77, in output_aux\n    if isinstance(node, BlockNode) \\\n  File "E:\\web2py_src\\web2py\\gluon\\template.py", line 149, in output\n    return \'\'.join(output_aux(node, blocks) for node in self.nodes)\n  File "E:\\web2py_src\\web2py\\gluon\\template.py", line 149, in <genexpr>\n    return \'\'.join(output_aux(node, blocks) for node in self.nodes)\n  File "E:\\web2py_src\\web2py\\gluon\\template.py", line 77, in output_aux\n    if isinstance(node, BlockNode) \\\n  File "E:\\web2py_src\\web2py\\gluon\\template.py", line 149, in output\n    return \'\'.join(output_aux(node, blocks) for node in self.nodes)\n  File "E:\\web2py_src\\web2py\\gluon\\template.py", line 149, in <genexpr>\n    return \'\'.join(output_aux(node, blocks) for node in self.nodes)\n  File "E:\\web2py_src\\web2py\\gluon\\template.py", line 77, in output_aux\n    if isinstance(node, BlockNode) \\\n  File "E:\\web2py_src\\web2py\\gluon\\template.py", line 149, in output\n    return \'\'.join(output_aux(node, blocks) for node in self.nodes)\n  File "E:\\web2py_src\\web2py\\gluon\\template.py", line 149, in <genexpr>\n    return \'\'.join(output_aux(node, blocks) for node in self.nodes)\n  File "E:\\web2py_src\\web2py\\gluon\\template.py", line 77, in output_aux\n    if isinstance(node, BlockNode) \\\n  File "E:\\web2py_src\\web2py\\gluon\\template.py", line 149, in output\n    return \'\'.join(output_aux(node, blocks) for node in self.nodes)\n  File "E:\\web2py_src\\web2py\\gluon\\template.py", line 149, in <genexpr>\n    return \'\'.join(output_aux(node, blocks) for node in self.nodes)\n  File "E:\\web2py_src\\web2py\\gluon\\template.py", line 77, in output_aux\n    if isinstance(node, BlockNode) \\\n  File "E:\\web2py_src\\web2py\\gluon\\template.py", line 149, in output\n    return \'\'.join(output_aux(node, blocks) for node in self.nodes)\n  File "E:\\web2py_src\\web2py\\gluon\\template.py", line 149, in <genexpr>\n    return \'\'.join(output_aux(node, blocks) for node in self.nodes)\n  File "E:\\web2py_src\\web2py\\gluon\\template.py", line 77, in output_aux\n    if isinstance(node, BlockNode) \\\n  File "E:\\web2py_src\\web2py\\gluon\\template.py", line 149, in output\n    return \'\'.join(output_aux(node, blocks) for node in self.nodes)\n  File "E:\\web2py_src\\web2py\\gluon\\template.py", line 149, in <genexpr>\n    return \'\'.join(output_aux(node, blocks) for node in self.nodes)\n  File "E:\\web2py_src\\web2py\\gluon\\template.py", line 77, in output_aux\n    if isinstance(node, BlockNode) \\\n  File "E:\\web2py_src\\web2py\\gluon\\template.py", line 149, in output\n    return \'\'.join(output_aux(node, blocks) for node in self.nodes)\n  File "E:\\web2py_src\\web2py\\gluon\\template.py", line 149, in <genexpr>\n    return \'\'.join(output_aux(node, blocks) for node in self.nodes)\n  File "E:\\web2py_src\\web2py\\gluon\\template.py", line 77, in output_aux\n    if isinstance(node, BlockNode) \\\n  File "E:\\web2py_src\\web2py\\gluon\\template.py", line 149, in output\n    return \'\'.join(output_aux(node, blocks) for node in self.nodes)\n  File "E:\\web2py_src\\web2py\\gluon\\template.py", line 149, in <genexpr>\n    return \'\'.join(output_aux(node, blocks) for node in self.nodes)\n  File "E:\\web2py_src\\web2py\\gluon\\template.py", line 77, in output_aux\n    if isinstance(node, BlockNode) \\\n  File "E:\\web2py_src\\web2py\\gluon\\template.py", line 149, in output\n    return \'\'.join(output_aux(node, blocks) for node in self.nodes)\n  File "E:\\web2py_src\\web2py\\gluon\\template.py", line 149, in <genexpr>\n    return \'\'.join(output_aux(node, blocks) for node in self.nodes)\n  File "E:\\web2py_src\\web2py\\gluon\\template.py", line 77, in output_aux\n    if isinstance(node, BlockNode) \\\n  File "E:\\web2py_src\\web2py\\gluon\\template.py", line 149, in output\n    return \'\'.join(output_aux(node, blocks) for node in self.nodes)\n  File "E:\\web2py_src\\web2py\\gluon\\template.py", line 149, in <genexpr>\n    return \'\'.join(output_aux(node, blocks) for node in self.nodes)\n  File "E:\\web2py_src\\web2py\\gluon\\template.py", line 77, in output_aux\n    if isinstance(node, BlockNode) \\\n  File "E:\\web2py_src\\web2py\\gluon\\template.py", line 149, in output\n    return \'\'.join(output_aux(node, blocks) for node in self.nodes)\n  File "E:\\web2py_src\\web2py\\gluon\\template.py", line 149, in <genexpr>\n    return \'\'.join(output_aux(node, blocks) for node in self.nodes)\n  File "E:\\web2py_src\\web2py\\gluon\\template.py", line 77, in output_aux\n    if isinstance(node, BlockNode) \\\n  File "E:\\web2py_src\\web2py\\gluon\\template.py", line 149, in output\n    return \'\'.join(output_aux(node, blocks) for node in self.nodes)\n  File "E:\\web2py_src\\web2py\\gluon\\template.py", line 149, in <genexpr>\n    return \'\'.join(output_aux(node, blocks) for node in self.nodes)\n  File "E:\\web2py_src\\web2py\\gluon\\template.py", line 77, in output_aux\n    if isinstance(node, BlockNode) \\\n  File "E:\\web2py_src\\web2py\\gluon\\template.py", line 149, in output\n    return \'\'.join(output_aux(node, blocks) for node in self.nodes)\n  File "E:\\web2py_src\\web2py\\gluon\\template.py", line 149, in <genexpr>\n    return \'\'.join(output_aux(node, blocks) for node in self.nodes)\n  File "E:\\web2py_src\\web2py\\gluon\\template.py", line 77, in output_aux\n    if isinstance(node, BlockNode) \\\n  File "E:\\web2py_src\\web2py\\gluon\\template.py", line 149, in output\n    return \'\'.join(output_aux(node, blocks) for node in self.nodes)\n  File "E:\\web2py_src\\web2py\\gluon\\template.py", line 149, in <genexpr>\n    return \'\'.join(output_aux(node, blocks) for node in self.nodes)\n  File "E:\\web2py_src\\web2py\\gluon\\template.py", line 77, in output_aux\n    if isinstance(node, BlockNode) \\\n  File "E:\\web2py_src\\web2py\\gluon\\template.py", line 149, in output\n    return \'\'.join(output_aux(node, blocks) for node in self.nodes)\n  File "E:\\web2py_src\\web2py\\gluon\\template.py", line 149, in <genexpr>\n    return \'\'.join(output_aux(node, blocks) for node in self.nodes)\n  File "E:\\web2py_src\\web2py\\gluon\\template.py", line 77, in output_aux\n    if isinstance(node, BlockNode) \\\n  File "E:\\web2py_src\\web2py\\gluon\\template.py", line 149, in output\n    return \'\'.join(output_aux(node, blocks) for node in self.nodes)\n  File "E:\\web2py_src\\web2py\\gluon\\template.py", line 149, in <genexpr>\n    return \'\'.join(output_aux(node, blocks) for node in self.nodes)\n  File "E:\\web2py_src\\web2py\\gluon\\template.py", line 77, in output_aux\n    if isinstance(node, BlockNode) \\\n  File "E:\\web2py_src\\web2py\\gluon\\template.py", line 149, in output\n    return \'\'.join(output_aux(node, blocks) for node in self.nodes)\n  File "E:\\web2py_src\\web2py\\gluon\\template.py", line 149, in <genexpr>\n    return \'\'.join(output_aux(node, blocks) for node in self.nodes)\n  File "E:\\web2py_src\\web2py\\gluon\\template.py", line 77, in output_aux\n    if isinstance(node, BlockNode) \\\n  File "E:\\web2py_src\\web2py\\gluon\\template.py", line 149, in output\n    return \'\'.join(output_aux(node, blocks) for node in self.nodes)\n  File "E:\\web2py_src\\web2py\\gluon\\template.py", line 149, in <genexpr>\n    return \'\'.join(output_aux(node, blocks) for node in self.nodes)\n  File "E:\\web2py_src\\web2py\\gluon\\template.py", line 77, in output_aux\n    if isinstance(node, BlockNode) \\\n  File "E:\\web2py_src\\web2py\\gluon\\template.py", line 149, in output\n    return \'\'.join(output_aux(node, blocks) for node in self.nodes)\n  File "E:\\web2py_src\\web2py\\gluon\\template.py", line 149, in <genexpr>\n    return \'\'.join(output_aux(node, blocks) for node in self.nodes)\n  File "E:\\web2py_src\\web2py\\gluon\\template.py", line 77, in output_aux\n    if isinstance(node, BlockNode) \\\n  File "E:\\web2py_src\\web2py\\gluon\\template.py", line 149, in output\n    return \'\'.join(output_aux(node, blocks) for node in self.nodes)\n  File "E:\\web2py_src\\web2py\\gluon\\template.py", line 149, in <genexpr>\n    return \'\'.join(output_aux(node, blocks) for node in self.nodes)\n  File "E:\\web2py_src\\web2py\\gluon\\template.py", line 77, in output_aux\n    if isinstance(node, BlockNode) \\\n  File "E:\\web2py_src\\web2py\\gluon\\template.py", line 149, in output\n    return \'\'.join(output_aux(node, blocks) for node in self.nodes)\n  File "E:\\web2py_src\\web2py\\gluon\\template.py", line 149, in <genexpr>\n    return \'\'.join(output_aux(node, blocks) for node in self.nodes)\n  File "E:\\web2py_src\\web2py\\gluon\\template.py", line 77, in output_aux\n    if isinstance(node, BlockNode) \\\n  File "E:\\web2py_src\\web2py\\gluon\\template.py", line 149, in output\n    return \'\'.join(output_aux(node, blocks) for node in self.nodes)\n  File "E:\\web2py_src\\web2py\\gluon\\template.py", line 149, in <genexpr>\n    return \'\'.join(output_aux(node, blocks) for node in self.nodes)\n  File "E:\\web2py_src\\web2py\\gluon\\template.py", line 77, in output_aux\n    if isinstance(node, BlockNode) \\\n  File "E:\\web2py_src\\web2py\\gluon\\template.py", line 149, in output\n    return \'\'.join(output_aux(node, blocks) for node in self.nodes)\n  File "E:\\web2py_src\\web2py\\gluon\\template.py", line 149, in <genexpr>\n    return \'\'.join(output_aux(node, blocks) for node in self.nodes)\n  File "E:\\web2py_src\\web2py\\gluon\\template.py", line 77, in output_aux\n    if isinstance(node, BlockNode) \\\n  File "E:\\web2py_src\\web2py\\gluon\\template.py", line 149, in output\n    return \'\'.join(output_aux(node, blocks) for node in self.nodes)\n  File "E:\\web2py_src\\web2py\\gluon\\template.py", line 149, in <genexpr>\n    return \'\'.join(output_aux(node, blocks) for node in self.nodes)\n  File "E:\\web2py_src\\web2py\\gluon\\template.py", line 77, in output_aux\n    if isinstance(node, BlockNode) \\\n  File "E:\\web2py_src\\web2py\\gluon\\template.py", line 149, in output\n    return \'\'.join(output_aux(node, blocks) for node in self.nodes)\n  File "E:\\web2py_src\\web2py\\gluon\\template.py", line 149, in <genexpr>\n    return \'\'.join(output_aux(node, blocks) for node in self.nodes)\n  File "E:\\web2py_src\\web2py\\gluon\\template.py", line 77, in output_aux\n    if isinstance(node, BlockNode) \\\n  File "E:\\web2py_src\\web2py\\gluon\\template.py", line 149, in output\n    return \'\'.join(output_aux(node, blocks) for node in self.nodes)\n  File "E:\\web2py_src\\web2py\\gluon\\template.py", line 149, in <genexpr>\n    return \'\'.join(output_aux(node, blocks) for node in self.nodes)\n  File "E:\\web2py_src\\web2py\\gluon\\template.py", line 77, in output_aux\n    if isinstance(node, BlockNode) \\\n  File "E:\\web2py_src\\web2py\\gluon\\template.py", line 149, in output\n    return \'\'.join(output_aux(node, blocks) for node in self.nodes)\n  File "E:\\web2py_src\\web2py\\gluon\\template.py", line 149, in <genexpr>\n    return \'\'.join(output_aux(node, blocks) for node in self.nodes)\n  File "E:\\web2py_src\\web2py\\gluon\\template.py", line 77, in output_aux\n    if isinstance(node, BlockNode) \\\n  File "E:\\web2py_src\\web2py\\gluon\\template.py", line 149, in output\n    return \'\'.join(output_aux(node, blocks) for node in self.nodes)\n  File "E:\\web2py_src\\web2py\\gluon\\template.py", line 149, in <genexpr>\n    return \'\'.join(output_aux(node, blocks) for node in self.nodes)\n  File "E:\\web2py_src\\web2py\\gluon\\template.py", line 77, in output_aux\n    if isinstance(node, BlockNode) \\\n  File "E:\\web2py_src\\web2py\\gluon\\template.py", line 149, in output\n    return \'\'.join(output_aux(node, blocks) for node in self.nodes)\n  File "E:\\web2py_src\\web2py\\gluon\\template.py", line 149, in <genexpr>\n    return \'\'.join(output_aux(node, blocks) for node in self.nodes)\n  File "E:\\web2py_src\\web2py\\gluon\\template.py", line 77, in output_aux\n    if isinstance(node, BlockNode) \\\n  File "E:\\web2py_src\\web2py\\gluon\\template.py", line 149, in output\n    return \'\'.join(output_aux(node, blocks) for node in self.nodes)\n  File "E:\\web2py_src\\web2py\\gluon\\template.py", line 149, in <genexpr>\n    return \'\'.join(output_aux(node, blocks) for node in self.nodes)\n  File "E:\\web2py_src\\web2py\\gluon\\template.py", line 77, in output_aux\n    if isinstance(node, BlockNode) \\\n  File "E:\\web2py_src\\web2py\\gluon\\template.py", line 149, in output\n    return \'\'.join(output_aux(node, blocks) for node in self.nodes)\n  File "E:\\web2py_src\\web2py\\gluon\\template.py", line 149, in <genexpr>\n    return \'\'.join(output_aux(node, blocks) for node in self.nodes)\n  File "E:\\web2py_src\\web2py\\gluon\\template.py", line 77, in output_aux\n    if isinstance(node, BlockNode) \\\n  File "E:\\web2py_src\\web2py\\gluon\\template.py", line 149, in output\n    return \'\'.join(output_aux(node, blocks) for node in self.nodes)\n  File "E:\\web2py_src\\web2py\\gluon\\template.py", line 149, in <genexpr>\n    return \'\'.join(output_aux(node, blocks) for node in self.nodes)\n  File "E:\\web2py_src\\web2py\\gluon\\template.py", line 77, in output_aux\n    if isinstance(node, BlockNode) \\\n  File "E:\\web2py_src\\web2py\\gluon\\template.py", line 149, in output\n    return \'\'.join(output_aux(node, blocks) for node in self.nodes)\n  File "E:\\web2py_src\\web2py\\gluon\\template.py", line 149, in <genexpr>\n    return \'\'.join(output_aux(node, blocks) for node in self.nodes)\n  File "E:\\web2py_src\\web2py\\gluon\\template.py", line 77, in output_aux\n    if isinstance(node, BlockNode) \\\n  File "E:\\web2py_src\\web2py\\gluon\\template.py", line 149, in output\n    return \'\'.join(output_aux(node, blocks) for node in self.nodes)\n  File "E:\\web2py_src\\web2py\\gluon\\template.py", line 149, in <genexpr>\n    return \'\'.join(output_aux(node, blocks) for node in self.nodes)\n  File "E:\\web2py_src\\web2py\\gluon\\template.py", line 77, in output_aux\n    if isinstance(node, BlockNode) \\\n  File "E:\\web2py_src\\web2py\\gluon\\template.py", line 149, in output\n    return \'\'.join(output_aux(node, blocks) for node in self.nodes)\n  File "E:\\web2py_src\\web2py\\gluon\\template.py", line 149, in <genexpr>\n    return \'\'.join(output_aux(node, blocks) for node in self.nodes)\n  File "E:\\web2py_src\\web2py\\gluon\\template.py", line 77, in output_aux\n    if isinstance(node, BlockNode) \\\n  File "E:\\web2py_src\\web2py\\gluon\\template.py", line 149, in output\n    return \'\'.join(output_aux(node, blocks) for node in self.nodes)\n  File "E:\\web2py_src\\web2py\\gluon\\template.py", line 149, in <genexpr>\n    return \'\'.join(output_aux(node, blocks) for node in self.nodes)\n  File "E:\\web2py_src\\web2py\\gluon\\template.py", line 77, in output_aux\n    if isinstance(node, BlockNode) \\\n  File "E:\\web2py_src\\web2py\\gluon\\template.py", line 149, in output\n    return \'\'.join(output_aux(node, blocks) for node in self.nodes)\n  File "E:\\web2py_src\\web2py\\gluon\\template.py", line 149, in <genexpr>\n    return \'\'.join(output_aux(node, blocks) for node in self.nodes)\n  File "E:\\web2py_src\\web2py\\gluon\\template.py", line 77, in output_aux\n    if isinstance(node, BlockNode) \\\n  File "E:\\web2py_src\\web2py\\gluon\\template.py", line 149, in output\n    return \'\'.join(output_aux(node, blocks) for node in self.nodes)\n  File "E:\\web2py_src\\web2py\\gluon\\template.py", line 149, in <genexpr>\n    return \'\'.join(output_aux(node, blocks) for node in self.nodes)\n  File "E:\\web2py_src\\web2py\\gluon\\template.py", line 77, in output_aux\n    if isinstance(node, BlockNode) \\\n  File "E:\\web2py_src\\web2py\\gluon\\template.py", line 149, in output\n    return \'\'.join(output_aux(node, blocks) for node in self.nodes)\n  File "E:\\web2py_src\\web2py\\gluon\\template.py", line 149, in <genexpr>\n    return \'\'.join(output_aux(node, blocks) for node in self.nodes)\n  File "E:\\web2py_src\\web2py\\gluon\\template.py", line 77, in output_aux\n    if isinstance(node, BlockNode) \\\n  File "E:\\web2py_src\\web2py\\gluon\\template.py", line 149, in output\n    return \'\'.join(output_aux(node, blocks) for node in self.nodes)\n  File "E:\\web2py_src\\web2py\\gluon\\template.py", line 149, in <genexpr>\n    return \'\'.join(output_aux(node, blocks) for node in self.nodes)\n  File "E:\\web2py_src\\web2py\\gluon\\template.py", line 77, in output_aux\n    if isinstance(node, BlockNode) \\\n  File "E:\\web2py_src\\web2py\\gluon\\template.py", line 149, in output\n    return \'\'.join(output_aux(node, blocks) for node in self.nodes)\n  File "E:\\web2py_src\\web2py\\gluon\\template.py", line 149, in <genexpr>\n    return \'\'.join(output_aux(node, blocks) for node in self.nodes)\n  File "E:\\web2py_src\\web2py\\gluon\\template.py", line 77, in output_aux\n    if isinstance(node, BlockNode) \\\n  File "E:\\web2py_src\\web2py\\gluon\\template.py", line 149, in output\n    return \'\'.join(output_aux(node, blocks) for node in self.nodes)\n  File "E:\\web2py_src\\web2py\\gluon\\template.py", line 149, in <genexpr>\n    return \'\'.join(output_aux(node, blocks) for node in self.nodes)\n  File "E:\\web2py_src\\web2py\\gluon\\template.py", line 77, in output_aux\n    if isinstance(node, BlockNode) \\\n  File "E:\\web2py_src\\web2py\\gluon\\template.py", line 149, in output\n    return \'\'.join(output_aux(node, blocks) for node in self.nodes)\n  File "E:\\web2py_src\\web2py\\gluon\\template.py", line 149, in <genexpr>\n    return \'\'.join(output_aux(node, blocks) for node in self.nodes)\n  File "E:\\web2py_src\\web2py\\gluon\\template.py", line 77, in output_aux\n    if isinstance(node, BlockNode) \\\n  File "E:\\web2py_src\\web2py\\gluon\\template.py", line 149, in output\n    return \'\'.join(output_aux(node, blocks) for node in self.nodes)\n  File "E:\\web2py_src\\web2py\\gluon\\template.py", line 149, in <genexpr>\n    return \'\'.join(output_aux(node, blocks) for node in self.nodes)\n  File "E:\\web2py_src\\web2py\\gluon\\template.py", line 77, in output_aux\n    if isinstance(node, BlockNode) \\\n  File "E:\\web2py_src\\web2py\\gluon\\template.py", line 149, in output\n    return \'\'.join(output_aux(node, blocks) for node in self.nodes)\n  File "E:\\web2py_src\\web2py\\gluon\\template.py", line 149, in <genexpr>\n    return \'\'.join(output_aux(node, blocks) for node in self.nodes)\n  File "E:\\web2py_src\\web2py\\gluon\\template.py", line 77, in output_aux\n    if isinstance(node, BlockNode) \\\n  File "E:\\web2py_src\\web2py\\gluon\\template.py", line 149, in output\n    return \'\'.join(output_aux(node, blocks) for node in self.nodes)\n  File "E:\\web2py_src\\web2py\\gluon\\template.py", line 149, in <genexpr>\n    return \'\'.join(output_aux(node, blocks) for node in self.nodes)\n  File "E:\\web2py_src\\web2py\\gluon\\template.py", line 77, in output_aux\n    if isinstance(node, BlockNode) \\\n  File "E:\\web2py_src\\web2py\\gluon\\template.py", line 149, in output\n    return \'\'.join(output_aux(node, blocks) for node in self.nodes)\n  File "E:\\web2py_src\\web2py\\gluon\\template.py", line 149, in <genexpr>\n    return \'\'.join(output_aux(node, blocks) for node in self.nodes)\n  File "E:\\web2py_src\\web2py\\gluon\\template.py", line 77, in output_aux\n    if isinstance(node, BlockNode) \\\n  File "E:\\web2py_src\\web2py\\gluon\\template.py", line 149, in output\n    return \'\'.join(output_aux(node, blocks) for node in self.nodes)\n  File "E:\\web2py_src\\web2py\\gluon\\template.py", line 149, in <genexpr>\n    return \'\'.join(output_aux(node, blocks) for node in self.nodes)\n  File "E:\\web2py_src\\web2py\\gluon\\template.py", line 77, in output_aux\n    if isinstance(node, BlockNode) \\\n  File "E:\\web2py_src\\web2py\\gluon\\template.py", line 149, in output\n    return \'\'.join(output_aux(node, blocks) for node in self.nodes)\n  File "E:\\web2py_src\\web2py\\gluon\\template.py", line 149, in <genexpr>\n    return \'\'.join(output_aux(node, blocks) for node in self.nodes)\n  File "E:\\web2py_src\\web2py\\gluon\\template.py", line 77, in output_aux\n    if isinstance(node, BlockNode) \\\n  File "E:\\web2py_src\\web2py\\gluon\\template.py", line 149, in output\n    return \'\'.join(output_aux(node, blocks) for node in self.nodes)\n  File "E:\\web2py_src\\web2py\\gluon\\template.py", line 149, in <genexpr>\n    return \'\'.join(output_aux(node, blocks) for node in self.nodes)\n  File "E:\\web2py_src\\web2py\\gluon\\template.py", line 77, in output_aux\n    if isinstance(node, BlockNode) \\\n  File "E:\\web2py_src\\web2py\\gluon\\template.py", line 149, in output\n    return \'\'.join(output_aux(node, blocks) for node in self.nodes)\n  File "E:\\web2py_src\\web2py\\gluon\\template.py", line 149, in <genexpr>\n    return \'\'.join(output_aux(node, blocks) for node in self.nodes)\n  File "E:\\web2py_src\\web2py\\gluon\\template.py", line 77, in output_aux\n    if isinstance(node, BlockNode) \\\n  File "E:\\web2py_src\\web2py\\gluon\\template.py", line 149, in output\n    return \'\'.join(output_aux(node, blocks) for node in self.nodes)\n  File "E:\\web2py_src\\web2py\\gluon\\template.py", line 149, in <genexpr>\n    return \'\'.join(output_aux(node, blocks) for node in self.nodes)\n  File "E:\\web2py_src\\web2py\\gluon\\template.py", line 77, in output_aux\n    if isinstance(node, BlockNode) \\\n  File "E:\\web2py_src\\web2py\\gluon\\template.py", line 149, in output\n    return \'\'.join(output_aux(node, blocks) for node in self.nodes)\n  File "E:\\web2py_src\\web2py\\gluon\\template.py", line 149, in <genexpr>\n    return \'\'.join(output_aux(node, blocks) for node in self.nodes)\n  File "E:\\web2py_src\\web2py\\gluon\\template.py", line 77, in output_aux\n    if isinstance(node, BlockNode) \\\n  File "E:\\web2py_src\\web2py\\gluon\\template.py", line 149, in output\n    return \'\'.join(output_aux(node, blocks) for node in self.nodes)\n  File "E:\\web2py_src\\web2py\\gluon\\template.py", line 149, in <genexpr>\n    return \'\'.join(output_aux(node, blocks) for node in self.nodes)\n  File "E:\\web2py_src\\web2py\\gluon\\template.py", line 77, in output_aux\n    if isinstance(node, BlockNode) \\\n  File "E:\\web2py_src\\web2py\\gluon\\template.py", line 149, in output\n    return \'\'.join(output_aux(node, blocks) for node in self.nodes)\n  File "E:\\web2py_src\\web2py\\gluon\\template.py", line 149, in <genexpr>\n    return \'\'.join(output_aux(node, blocks) for node in self.nodes)\n  File "E:\\web2py_src\\web2py\\gluon\\template.py", line 77, in output_aux\n    if isinstance(node, BlockNode) \\\n  File "E:\\web2py_src\\web2py\\gluon\\template.py", line 149, in output\n    return \'\'.join(output_aux(node, blocks) for node in self.nodes)\n  File "E:\\web2py_src\\web2py\\gluon\\template.py", line 149, in <genexpr>\n    return \'\'.join(output_aux(node, blocks) for node in self.nodes)\n  File "E:\\web2py_src\\web2py\\gluon\\template.py", line 77, in output_aux\n    if isinstance(node, BlockNode) \\\n  File "E:\\web2py_src\\web2py\\gluon\\template.py", line 149, in output\n    return \'\'.join(output_aux(node, blocks) for node in self.nodes)\n  File "E:\\web2py_src\\web2py\\gluon\\template.py", line 149, in <genexpr>\n    return \'\'.join(output_aux(node, blocks) for node in self.nodes)\n  File "E:\\web2py_src\\web2py\\gluon\\template.py", line 77, in output_aux\n    if isinstance(node, BlockNode) \\\n  File "E:\\web2py_src\\web2py\\gluon\\template.py", line 149, in output\n    return \'\'.join(output_aux(node, blocks) for node in self.nodes)\n  File "E:\\web2py_src\\web2py\\gluon\\template.py", line 149, in <genexpr>\n    return \'\'.join(output_aux(node, blocks) for node in self.nodes)\n  File "E:\\web2py_src\\web2py\\gluon\\template.py", line 77, in output_aux\n    if isinstance(node, BlockNode) \\\n  File "E:\\web2py_src\\web2py\\gluon\\template.py", line 149, in output\n    return \'\'.join(output_aux(node, blocks) for node in self.nodes)\n  File "E:\\web2py_src\\web2py\\gluon\\template.py", line 149, in <genexpr>\n    return \'\'.join(output_aux(node, blocks) for node in self.nodes)\n  File "E:\\web2py_src\\web2py\\gluon\\template.py", line 77, in output_aux\n    if isinstance(node, BlockNode) \\\n  File "E:\\web2py_src\\web2py\\gluon\\template.py", line 149, in output\n    return \'\'.join(output_aux(node, blocks) for node in self.nodes)\n  File "E:\\web2py_src\\web2py\\gluon\\template.py", line 149, in <genexpr>\n    return \'\'.join(output_aux(node, blocks) for node in self.nodes)\n  File "E:\\web2py_src\\web2py\\gluon\\template.py", line 77, in output_aux\n    if isinstance(node, BlockNode) \\\n  File "E:\\web2py_src\\web2py\\gluon\\template.py", line 149, in output\n    return \'\'.join(output_aux(node, blocks) for node in self.nodes)\n  File "E:\\web2py_src\\web2py\\gluon\\template.py", line 149, in <genexpr>\n    return \'\'.join(output_aux(node, blocks) for node in self.nodes)\n  File "E:\\web2py_src\\web2py\\gluon\\template.py", line 77, in output_aux\n    if isinstance(node, BlockNode) \\\n  File "E:\\web2py_src\\web2py\\gluon\\template.py", line 149, in output\n    return \'\'.join(output_aux(node, blocks) for node in self.nodes)\n  File "E:\\web2py_src\\web2py\\gluon\\template.py", line 149, in <genexpr>\n    return \'\'.join(output_aux(node, blocks) for node in self.nodes)\n  File "E:\\web2py_src\\web2py\\gluon\\template.py", line 77, in output_aux\n    if isinstance(node, BlockNode) \\\n  File "E:\\web2py_src\\web2py\\gluon\\template.py", line 149, in output\n    return \'\'.join(output_aux(node, blocks) for node in self.nodes)\n  File "E:\\web2py_src\\web2py\\gluon\\template.py", line 149, in <genexpr>\n    return \'\'.join(output_aux(node, blocks) for node in self.nodes)\n  File "E:\\web2py_src\\web2py\\gluon\\template.py", line 77, in output_aux\n    if isinstance(node, BlockNode) \\\n  File "E:\\web2py_src\\web2py\\gluon\\template.py", line 149, in output\n    return \'\'.join(output_aux(node, blocks) for node in self.nodes)\n  File "E:\\web2py_src\\web2py\\gluon\\template.py", line 149, in <genexpr>\n    return \'\'.join(output_aux(node, blocks) for node in self.nodes)\n  File "E:\\web2py_src\\web2py\\gluon\\template.py", line 77, in output_aux\n    if isinstance(node, BlockNode) \\\n  File "E:\\web2py_src\\web2py\\gluon\\template.py", line 149, in output\n    return \'\'.join(output_aux(node, blocks) for node in self.nodes)\n  File "E:\\web2py_src\\web2py\\gluon\\template.py", line 149, in <genexpr>\n    return \'\'.join(output_aux(node, blocks) for node in self.nodes)\n  File "E:\\web2py_src\\web2py\\gluon\\template.py", line 77, in output_aux\n    if isinstance(node, BlockNode) \\\n  File "E:\\web2py_src\\web2py\\gluon\\template.py", line 149, in output\n    return \'\'.join(output_aux(node, blocks) for node in self.nodes)\n  File "E:\\web2py_src\\web2py\\gluon\\template.py", line 149, in <genexpr>\n    return \'\'.join(output_aux(node, blocks) for node in self.nodes)\n  File "E:\\web2py_src\\web2py\\gluon\\template.py", line 77, in output_aux\n    if isinstance(node, BlockNode) \\\n  File "E:\\web2py_src\\web2py\\gluon\\template.py", line 149, in output\n    return \'\'.join(output_aux(node, blocks) for node in self.nodes)\n  File "E:\\web2py_src\\web2py\\gluon\\template.py", line 149, in <genexpr>\n    return \'\'.join(output_aux(node, blocks) for node in self.nodes)\n  File "E:\\web2py_src\\web2py\\gluon\\template.py", line 77, in output_aux\n    if isinstance(node, BlockNode) \\\n  File "E:\\web2py_src\\web2py\\gluon\\template.py", line 149, in output\n    return \'\'.join(output_aux(node, blocks) for node in self.nodes)\n  File "E:\\web2py_src\\web2py\\gluon\\template.py", line 149, in <genexpr>\n    return \'\'.join(output_aux(node, blocks) for node in self.nodes)\n  File "E:\\web2py_src\\web2py\\gluon\\template.py", line 77, in output_aux\n    if isinstance(node, BlockNode) \\\n  File "E:\\web2py_src\\web2py\\gluon\\template.py", line 149, in output\n    return \'\'.join(output_aux(node, blocks) for node in self.nodes)\n  File "E:\\web2py_src\\web2py\\gluon\\template.py", line 149, in <genexpr>\n    return \'\'.join(output_aux(node, blocks) for node in self.nodes)\n  File "E:\\web2py_src\\web2py\\gluon\\template.py", line 77, in output_aux\n    if isinstance(node, BlockNode) \\\n  File "E:\\web2py_src\\web2py\\gluon\\template.py", line 149, in output\n    return \'\'.join(output_aux(node, blocks) for node in self.nodes)\n  File "E:\\web2py_src\\web2py\\gluon\\template.py", line 149, in <genexpr>\n    return \'\'.join(output_aux(node, blocks) for node in self.nodes)\n  File "E:\\web2py_src\\web2py\\gluon\\template.py", line 77, in output_aux\n    if isinstance(node, BlockNode) \\\n  File "E:\\web2py_src\\web2py\\gluon\\template.py", line 149, in output\n    return \'\'.join(output_aux(node, blocks) for node in self.nodes)\n  File "E:\\web2py_src\\web2py\\gluon\\template.py", line 149, in <genexpr>\n    return \'\'.join(output_aux(node, blocks) for node in self.nodes)\n  File "E:\\web2py_src\\web2py\\gluon\\template.py", line 77, in output_aux\n    if isinstance(node, BlockNode) \\\n  File "E:\\web2py_src\\web2py\\gluon\\template.py", line 149, in output\n    return \'\'.join(output_aux(node, blocks) for node in self.nodes)\n  File "E:\\web2py_src\\web2py\\gluon\\template.py", line 149, in <genexpr>\n    return \'\'.join(output_aux(node, blocks) for node in self.nodes)\n  File "E:\\web2py_src\\web2py\\gluon\\template.py", line 77, in output_aux\n    if isinstance(node, BlockNode) \\\n  File "E:\\web2py_src\\web2py\\gluon\\template.py", line 149, in output\n    return \'\'.join(output_aux(node, blocks) for node in self.nodes)\n  File "E:\\web2py_src\\web2py\\gluon\\template.py", line 149, in <genexpr>\n    return \'\'.join(output_aux(node, blocks) for node in self.nodes)\n  File "E:\\web2py_src\\web2py\\gluon\\template.py", line 77, in output_aux\n    if isinstance(node, BlockNode) \\\n  File "E:\\web2py_src\\web2py\\gluon\\template.py", line 149, in output\n    return \'\'.join(output_aux(node, blocks) for node in self.nodes)\n  File "E:\\web2py_src\\web2py\\gluon\\template.py", line 149, in <genexpr>\n    return \'\'.join(output_aux(node, blocks) for node in self.nodes)\n  File "E:\\web2py_src\\web2py\\gluon\\template.py", line 77, in output_aux\n    if isinstance(node, BlockNode) \\\n  File "E:\\web2py_src\\web2py\\gluon\\template.py", line 149, in output\n    return \'\'.join(output_aux(node, blocks) for node in self.nodes)\n  File "E:\\web2py_src\\web2py\\gluon\\template.py", line 149, in <genexpr>\n    return \'\'.join(output_aux(node, blocks) for node in self.nodes)\n  File "E:\\web2py_src\\web2py\\gluon\\template.py", line 77, in output_aux\n    if isinstance(node, BlockNode) \\\n  File "E:\\web2py_src\\web2py\\gluon\\template.py", line 149, in output\n    return \'\'.join(output_aux(node, blocks) for node in self.nodes)\n  File "E:\\web2py_src\\web2py\\gluon\\template.py", line 149, in <genexpr>\n    return \'\'.join(output_aux(node, blocks) for node in self.nodes)\n  File "E:\\web2py_src\\web2py\\gluon\\template.py", line 77, in output_aux\n    if isinstance(node, BlockNode) \\\n  File "E:\\web2py_src\\web2py\\gluon\\template.py", line 149, in output\n    return \'\'.join(output_aux(node, blocks) for node in self.nodes)\n  File "E:\\web2py_src\\web2py\\gluon\\template.py", line 149, in <genexpr>\n    return \'\'.join(output_aux(node, blocks) for node in self.nodes)\n  File "E:\\web2py_src\\web2py\\gluon\\template.py", line 77, in output_aux\n    if isinstance(node, BlockNode) \\\n  File "E:\\web2py_src\\web2py\\gluon\\template.py", line 149, in output\n    return \'\'.join(output_aux(node, blocks) for node in self.nodes)\n  File "E:\\web2py_src\\web2py\\gluon\\template.py", line 149, in <genexpr>\n    return \'\'.join(output_aux(node, blocks) for node in self.nodes)\n  File "E:\\web2py_src\\web2py\\gluon\\template.py", line 77, in output_aux\n    if isinstance(node, BlockNode) \\\n  File "E:\\web2py_src\\web2py\\gluon\\template.py", line 149, in output\n    return \'\'.join(output_aux(node, blocks) for node in self.nodes)\n  File "E:\\web2py_src\\web2py\\gluon\\template.py", line 149, in <genexpr>\n    return \'\'.join(output_aux(node, blocks) for node in self.nodes)\n  File "E:\\web2py_src\\web2py\\gluon\\template.py", line 77, in output_aux\n    if isinstance(node, BlockNode) \\\n  File "E:\\web2py_src\\web2py\\gluon\\template.py", line 149, in output\n    return \'\'.join(output_aux(node, blocks) for node in self.nodes)\n  File "E:\\web2py_src\\web2py\\gluon\\template.py", line 149, in <genexpr>\n    return \'\'.join(output_aux(node, blocks) for node in self.nodes)\n  File "E:\\web2py_src\\web2py\\gluon\\template.py", line 77, in output_aux\n    if isinstance(node, BlockNode) \\\n  File "E:\\web2py_src\\web2py\\gluon\\template.py", line 149, in output\n    return \'\'.join(output_aux(node, blocks) for node in self.nodes)\n  File "E:\\web2py_src\\web2py\\gluon\\template.py", line 149, in <genexpr>\n    return \'\'.join(output_aux(node, blocks) for node in self.nodes)\n  File "E:\\web2py_src\\web2py\\gluon\\template.py", line 77, in output_aux\n    if isinstance(node, BlockNode) \\\n  File "E:\\web2py_src\\web2py\\gluon\\template.py", line 149, in output\n    return \'\'.join(output_aux(node, blocks) for node in self.nodes)\n  File "E:\\web2py_src\\web2py\\gluon\\template.py", line 149, in <genexpr>\n    return \'\'.join(output_aux(node, blocks) for node in self.nodes)\n  File "E:\\web2py_src\\web2py\\gluon\\template.py", line 77, in output_aux\n    if isinstance(node, BlockNode) \\\n  File "E:\\web2py_src\\web2py\\gluon\\template.py", line 149, in output\n    return \'\'.join(output_aux(node, blocks) for node in self.nodes)\n  File "E:\\web2py_src\\web2py\\gluon\\template.py", line 149, in <genexpr>\n    return \'\'.join(output_aux(node, blocks) for node in self.nodes)\n  File "E:\\web2py_src\\web2py\\gluon\\template.py", line 77, in output_aux\n    if isinstance(node, BlockNode) \\\n  File "E:\\web2py_src\\web2py\\gluon\\template.py", line 149, in output\n    return \'\'.join(output_aux(node, blocks) for node in self.nodes)\n  File "E:\\web2py_src\\web2py\\gluon\\template.py", line 149, in <genexpr>\n    return \'\'.join(output_aux(node, blocks) for node in self.nodes)\n  File "E:\\web2py_src\\web2py\\gluon\\template.py", line 77, in output_aux\n    if isinstance(node, BlockNode) \\\n  File "E:\\web2py_src\\web2py\\gluon\\template.py", line 149, in output\n    return \'\'.join(output_aux(node, blocks) for node in self.nodes)\n  File "E:\\web2py_src\\web2py\\gluon\\template.py", line 149, in <genexpr>\n    return \'\'.join(output_aux(node, blocks) for node in self.nodes)\n  File "E:\\web2py_src\\web2py\\gluon\\template.py", line 77, in output_aux\n    if isinstance(node, BlockNode) \\\n  File "E:\\web2py_src\\web2py\\gluon\\template.py", line 149, in output\n    return \'\'.join(output_aux(node, blocks) for node in self.nodes)\n  File "E:\\web2py_src\\web2py\\gluon\\template.py", line 149, in <genexpr>\n    return \'\'.join(output_aux(node, blocks) for node in self.nodes)\n  File "E:\\web2py_src\\web2py\\gluon\\template.py", line 77, in output_aux\n    if isinstance(node, BlockNode) \\\n  File "E:\\web2py_src\\web2py\\gluon\\template.py", line 149, in output\n    return \'\'.join(output_aux(node, blocks) for node in self.nodes)\n  File "E:\\web2py_src\\web2py\\gluon\\template.py", line 149, in <genexpr>\n    return \'\'.join(output_aux(node, blocks) for node in self.nodes)\n  File "E:\\web2py_src\\web2py\\gluon\\template.py", line 77, in output_aux\n    if isinstance(node, BlockNode) \\\n  File "E:\\web2py_src\\web2py\\gluon\\template.py", line 149, in output\n    return \'\'.join(output_aux(node, blocks) for node in self.nodes)\n  File "E:\\web2py_src\\web2py\\gluon\\template.py", line 149, in <genexpr>\n    return \'\'.join(output_aux(node, blocks) for node in self.nodes)\n  File "E:\\web2py_src\\web2py\\gluon\\template.py", line 77, in output_aux\n    if isinstance(node, BlockNode) \\\n  File "E:\\web2py_src\\web2py\\gluon\\template.py", line 149, in output\n    return \'\'.join(output_aux(node, blocks) for node in self.nodes)\n  File "E:\\web2py_src\\web2py\\gluon\\template.py", line 149, in <genexpr>\n    return \'\'.join(output_aux(node, blocks) for node in self.nodes)\n  File "E:\\web2py_src\\web2py\\gluon\\template.py", line 77, in output_aux\n    if isinstance(node, BlockNode) \\\n  File "E:\\web2py_src\\web2py\\gluon\\template.py", line 149, in output\n    return \'\'.join(output_aux(node, blocks) for node in self.nodes)\n  File "E:\\web2py_src\\web2py\\gluon\\template.py", line 149, in <genexpr>\n    return \'\'.join(output_aux(node, blocks) for node in self.nodes)\n  File "E:\\web2py_src\\web2py\\gluon\\template.py", line 77, in output_aux\n    if isinstance(node, BlockNode) \\\n  File "E:\\web2py_src\\web2py\\gluon\\template.py", line 149, in output\n    return \'\'.join(output_aux(node, blocks) for node in self.nodes)\n  File "E:\\web2py_src\\web2py\\gluon\\template.py", line 149, in <genexpr>\n    return \'\'.join(output_aux(node, blocks) for node in self.nodes)\n  File "E:\\web2py_src\\web2py\\gluon\\template.py", line 77, in output_aux\n    if isinstance(node, BlockNode) \\\n  File "E:\\web2py_src\\web2py\\gluon\\template.py", line 149, in output\n    return \'\'.join(output_aux(node, blocks) for node in self.nodes)\n  File "E:\\web2py_src\\web2py\\gluon\\template.py", line 149, in <genexpr>\n    return \'\'.join(output_aux(node, blocks) for node in self.nodes)\n  File "E:\\web2py_src\\web2py\\gluon\\template.py", line 77, in output_aux\n    if isinstance(node, BlockNode) \\\n  File "E:\\web2py_src\\web2py\\gluon\\template.py", line 149, in output\n    return \'\'.join(output_aux(node, blocks) for node in self.nodes)\n  File "E:\\web2py_src\\web2py\\gluon\\template.py", line 149, in <genexpr>\n    return \'\'.join(output_aux(node, blocks) for node in self.nodes)\n  File "E:\\web2py_src\\web2py\\gluon\\template.py", line 77, in output_aux\n    if isinstance(node, BlockNode) \\\n  File "E:\\web2py_src\\web2py\\gluon\\template.py", line 149, in output\n    return \'\'.join(output_aux(node, blocks) for node in self.nodes)\n  File "E:\\web2py_src\\web2py\\gluon\\template.py", line 149, in <genexpr>\n    return \'\'.join(output_aux(node, blocks) for node in self.nodes)\n  File "E:\\web2py_src\\web2py\\gluon\\template.py", line 77, in output_aux\n    if isinstance(node, BlockNode) \\\n  File "E:\\web2py_src\\web2py\\gluon\\template.py", line 149, in output\n    return \'\'.join(output_aux(node, blocks) for node in self.nodes)\n  File "E:\\web2py_src\\web2py\\gluon\\template.py", line 149, in <genexpr>\n    return \'\'.join(output_aux(node, blocks) for node in self.nodes)\n  File "E:\\web2py_src\\web2py\\gluon\\template.py", line 77, in output_aux\n    if isinstance(node, BlockNode) \\\n  File "E:\\web2py_src\\web2py\\gluon\\template.py", line 149, in output\n    return \'\'.join(output_aux(node, blocks) for node in self.nodes)\n  File "E:\\web2py_src\\web2py\\gluon\\template.py", line 149, in <genexpr>\n    return \'\'.join(output_aux(node, blocks) for node in self.nodes)\n  File "E:\\web2py_src\\web2py\\gluon\\template.py", line 77, in output_aux\n    if isinstance(node, BlockNode) \\\n  File "E:\\web2py_src\\web2py\\gluon\\template.py", line 149, in output\n    return \'\'.join(output_aux(node, blocks) for node in self.nodes)\n  File "E:\\web2py_src\\web2py\\gluon\\template.py", line 149, in <genexpr>\n    return \'\'.join(output_aux(node, blocks) for node in self.nodes)\n  File "E:\\web2py_src\\web2py\\gluon\\template.py", line 77, in output_aux\n    if isinstance(node, BlockNode) \\\n  File "E:\\web2py_src\\web2py\\gluon\\template.py", line 149, in output\n    return \'\'.join(output_aux(node, blocks) for node in self.nodes)\n  File "E:\\web2py_src\\web2py\\gluon\\template.py", line 149, in <genexpr>\n    return \'\'.join(output_aux(node, blocks) for node in self.nodes)\n  File "E:\\web2py_src\\web2py\\gluon\\template.py", line 77, in output_aux\n    if isinstance(node, BlockNode) \\\n  File "E:\\web2py_src\\web2py\\gluon\\template.py", line 149, in output\n    return \'\'.join(output_aux(node, blocks) for node in self.nodes)\n  File "E:\\web2py_src\\web2py\\gluon\\template.py", line 149, in <genexpr>\n    return \'\'.join(output_aux(node, blocks) for node in self.nodes)\n  File "E:\\web2py_src\\web2py\\gluon\\template.py", line 77, in output_aux\n    if isinstance(node, BlockNode) \\\n  File "E:\\web2py_src\\web2py\\gluon\\template.py", line 149, in output\n    return \'\'.join(output_aux(node, blocks) for node in self.nodes)\n  File "E:\\web2py_src\\web2py\\gluon\\template.py", line 149, in <genexpr>\n    return \'\'.join(output_aux(node, blocks) for node in self.nodes)\n  File "E:\\web2py_src\\web2py\\gluon\\template.py", line 77, in output_aux\n    if isinstance(node, BlockNode) \\\n  File "E:\\web2py_src\\web2py\\gluon\\template.py", line 149, in output\n    return \'\'.join(output_aux(node, blocks) for node in self.nodes)\n  File "E:\\web2py_src\\web2py\\gluon\\template.py", line 149, in <genexpr>\n    return \'\'.join(output_aux(node, blocks) for node in self.nodes)\n  File "E:\\web2py_src\\web2py\\gluon\\template.py", line 77, in output_aux\n    if isinstance(node, BlockNode) \\\n  File "E:\\web2py_src\\web2py\\gluon\\template.py", line 149, in output\n    return \'\'.join(output_aux(node, blocks) for node in self.nodes)\n  File "E:\\web2py_src\\web2py\\gluon\\template.py", line 149, in <genexpr>\n    return \'\'.join(output_aux(node, blocks) for node in self.nodes)\n  File "E:\\web2py_src\\web2py\\gluon\\template.py", line 77, in output_aux\n    if isinstance(node, BlockNode) \\\n  File "E:\\web2py_src\\web2py\\gluon\\template.py", line 149, in output\n    return \'\'.join(output_aux(node, blocks) for node in self.nodes)\n  File "E:\\web2py_src\\web2py\\gluon\\template.py", line 149, in <genexpr>\n    return \'\'.join(output_aux(node, blocks) for node in self.nodes)\n  File "E:\\web2py_src\\web2py\\gluon\\template.py", line 77, in output_aux\n    if isinstance(node, BlockNode) \\\n  File "E:\\web2py_src\\web2py\\gluon\\template.py", line 149, in output\n    return \'\'.join(output_aux(node, blocks) for node in self.nodes)\n  File "E:\\web2py_src\\web2py\\gluon\\template.py", line 149, in <genexpr>\n    return \'\'.join(output_aux(node, blocks) for node in self.nodes)\n  File "E:\\web2py_src\\web2py\\gluon\\template.py", line 77, in output_aux\n    if isinstance(node, BlockNode) \\\n  File "E:\\web2py_src\\web2py\\gluon\\template.py", line 149, in output\n    return \'\'.join(output_aux(node, blocks) for node in self.nodes)\n  File "E:\\web2py_src\\web2py\\gluon\\template.py", line 149, in <genexpr>\n    return \'\'.join(output_aux(node, blocks) for node in self.nodes)\n  File "E:\\web2py_src\\web2py\\gluon\\template.py", line 77, in output_aux\n    if isinstance(node, BlockNode) \\\n  File "E:\\web2py_src\\web2py\\gluon\\template.py", line 149, in output\n    return \'\'.join(output_aux(node, blocks) for node in self.nodes)\n  File "E:\\web2py_src\\web2py\\gluon\\template.py", line 149, in <genexpr>\n    return \'\'.join(output_aux(node, blocks) for node in self.nodes)\n  File "E:\\web2py_src\\web2py\\gluon\\template.py", line 77, in output_aux\n    if isinstance(node, BlockNode) \\\n  File "E:\\web2py_src\\web2py\\gluon\\template.py", line 149, in output\n    return \'\'.join(output_aux(node, blocks) for node in self.nodes)\n  File "E:\\web2py_src\\web2py\\gluon\\template.py", line 149, in <genexpr>\n    return \'\'.join(output_aux(node, blocks) for node in self.nodes)\n  File "E:\\web2py_src\\web2py\\gluon\\template.py", line 77, in output_aux\n    if isinstance(node, BlockNode) \\\n  File "E:\\web2py_src\\web2py\\gluon\\template.py", line 149, in output\n    return \'\'.join(output_aux(node, blocks) for node in self.nodes)\n  File "E:\\web2py_src\\web2py\\gluon\\template.py", line 149, in <genexpr>\n    return \'\'.join(output_aux(node, blocks) for node in self.nodes)\n  File "E:\\web2py_src\\web2py\\gluon\\template.py", line 77, in output_aux\n    if isinstance(node, BlockNode) \\\n  File "E:\\web2py_src\\web2py\\gluon\\template.py", line 149, in output\n    return \'\'.join(output_aux(node, blocks) for node in self.nodes)\n  File "E:\\web2py_src\\web2py\\gluon\\template.py", line 149, in <genexpr>\n    return \'\'.join(output_aux(node, blocks) for node in self.nodes)\n  File "E:\\web2py_src\\web2py\\gluon\\template.py", line 77, in output_aux\n    if isinstance(node, BlockNode) \\\n  File "E:\\web2py_src\\web2py\\gluon\\template.py", line 149, in output\n    return \'\'.join(output_aux(node, blocks) for node in self.nodes)\n  File "E:\\web2py_src\\web2py\\gluon\\template.py", line 149, in <genexpr>\n    return \'\'.join(output_aux(node, blocks) for node in self.nodes)\n  File "E:\\web2py_src\\web2py\\gluon\\template.py", line 77, in output_aux\n    if isinstance(node, BlockNode) \\\n  File "E:\\web2py_src\\web2py\\gluon\\template.py", line 149, in output\n    return \'\'.join(output_aux(node, blocks) for node in self.nodes)\n  File "E:\\web2py_src\\web2py\\gluon\\template.py", line 149, in <genexpr>\n    return \'\'.join(output_aux(node, blocks) for node in self.nodes)\n  File "E:\\web2py_src\\web2py\\gluon\\template.py", line 77, in output_aux\n    if isinstance(node, BlockNode) \\\n  File "E:\\web2py_src\\web2py\\gluon\\template.py", line 149, in output\n    return \'\'.join(output_aux(node, blocks) for node in self.nodes)\n  File "E:\\web2py_src\\web2py\\gluon\\template.py", line 149, in <genexpr>\n    return \'\'.join(output_aux(node, blocks) for node in self.nodes)\n  File "E:\\web2py_src\\web2py\\gluon\\template.py", line 77, in output_aux\n    if isinstance(node, BlockNode) \\\n  File "E:\\web2py_src\\web2py\\gluon\\template.py", line 149, in output\n    return \'\'.join(output_aux(node, blocks) for node in self.nodes)\n  File "E:\\web2py_src\\web2py\\gluon\\template.py", line 149, in <genexpr>\n    return \'\'.join(output_aux(node, blocks) for node in self.nodes)\n  File "E:\\web2py_src\\web2py\\gluon\\template.py", line 77, in output_aux\n    if isinstance(node, BlockNode) \\\n  File "E:\\web2py_src\\web2py\\gluon\\template.py", line 149, in output\n    return \'\'.join(output_aux(node, blocks) for node in self.nodes)\n  File "E:\\web2py_src\\web2py\\gluon\\template.py", line 149, in <genexpr>\n    return \'\'.join(output_aux(node, blocks) for node in self.nodes)\n  File "E:\\web2py_src\\web2py\\gluon\\template.py", line 77, in output_aux\n    if isinstance(node, BlockNode) \\\n  File "E:\\web2py_src\\web2py\\gluon\\template.py", line 149, in output\n    return \'\'.join(output_aux(node, blocks) for node in self.nodes)\n  File "E:\\web2py_src\\web2py\\gluon\\template.py", line 149, in <genexpr>\n    return \'\'.join(output_aux(node, blocks) for node in self.nodes)\n  File "E:\\web2py_src\\web2py\\gluon\\template.py", line 77, in output_aux\n    if isinstance(node, BlockNode) \\\n  File "E:\\web2py_src\\web2py\\gluon\\template.py", line 149, in output\n    return \'\'.join(output_aux(node, blocks) for node in self.nodes)\n  File "E:\\web2py_src\\web2py\\gluon\\template.py", line 149, in <genexpr>\n    return \'\'.join(output_aux(node, blocks) for node in self.nodes)\n  File "E:\\web2py_src\\web2py\\gluon\\template.py", line 77, in output_aux\n    if isinstance(node, BlockNode) \\\n  File "E:\\web2py_src\\web2py\\gluon\\template.py", line 149, in output\n    return \'\'.join(output_aux(node, blocks) for node in self.nodes)\n  File "E:\\web2py_src\\web2py\\gluon\\template.py", line 149, in <genexpr>\n    return \'\'.join(output_aux(node, blocks) for node in self.nodes)\n  File "E:\\web2py_src\\web2py\\gluon\\template.py", line 77, in output_aux\n    if isinstance(node, BlockNode) \\\n  File "E:\\web2py_src\\web2py\\gluon\\template.py", line 149, in output\n    return \'\'.join(output_aux(node, blocks) for node in self.nodes)\n  File "E:\\web2py_src\\web2py\\gluon\\template.py", line 149, in <genexpr>\n    return \'\'.join(output_aux(node, blocks) for node in self.nodes)\n  File "E:\\web2py_src\\web2py\\gluon\\template.py", line 77, in output_aux\n    if isinstance(node, BlockNode) \\\n  File "E:\\web2py_src\\web2py\\gluon\\template.py", line 149, in output\n    return \'\'.join(output_aux(node, blocks) for node in self.nodes)\n  File "E:\\web2py_src\\web2py\\gluon\\template.py", line 149, in <genexpr>\n    return \'\'.join(output_aux(node, blocks) for node in self.nodes)\n  File "E:\\web2py_src\\web2py\\gluon\\template.py", line 77, in output_aux\n    if isinstance(node, BlockNode) \\\n  File "E:\\web2py_src\\web2py\\gluon\\template.py", line 149, in output\n    return \'\'.join(output_aux(node, blocks) for node in self.nodes)\n  File "E:\\web2py_src\\web2py\\gluon\\template.py", line 149, in <genexpr>\n    return \'\'.join(output_aux(node, blocks) for node in self.nodes)\n  File "E:\\web2py_src\\web2py\\gluon\\template.py", line 77, in output_aux\n    if isinstance(node, BlockNode) \\\n  File "E:\\web2py_src\\web2py\\gluon\\template.py", line 149, in output\n    return \'\'.join(output_aux(node, blocks) for node in self.nodes)\n  File "E:\\web2py_src\\web2py\\gluon\\template.py", line 149, in <genexpr>\n    return \'\'.join(output_aux(node, blocks) for node in self.nodes)\n  File "E:\\web2py_src\\web2py\\gluon\\template.py", line 77, in output_aux\n    if isinstance(node, BlockNode) \\\n  File "E:\\web2py_src\\web2py\\gluon\\template.py", line 149, in output\n    return \'\'.join(output_aux(node, blocks) for node in self.nodes)\n  File "E:\\web2py_src\\web2py\\gluon\\template.py", line 149, in <genexpr>\n    return \'\'.join(output_aux(node, blocks) for node in self.nodes)\n  File "E:\\web2py_src\\web2py\\gluon\\template.py", line 77, in output_aux\n    if isinstance(node, BlockNode) \\\n  File "E:\\web2py_src\\web2py\\gluon\\template.py", line 149, in output\n    return \'\'.join(output_aux(node, blocks) for node in self.nodes)\n  File "E:\\web2py_src\\web2py\\gluon\\template.py", line 149, in <genexpr>\n    return \'\'.join(output_aux(node, blocks) for node in self.nodes)\n  File "E:\\web2py_src\\web2py\\gluon\\template.py", line 77, in output_aux\n    if isinstance(node, BlockNode) \\\n  File "E:\\web2py_src\\web2py\\gluon\\template.py", line 149, in output\n    return \'\'.join(output_aux(node, blocks) for node in self.nodes)\n  File "E:\\web2py_src\\web2py\\gluon\\template.py", line 149, in <genexpr>\n    return \'\'.join(output_aux(node, blocks) for node in self.nodes)\n  File "E:\\web2py_src\\web2py\\gluon\\template.py", line 77, in output_aux\n    if isinstance(node, BlockNode) \\\n  File "E:\\web2py_src\\web2py\\gluon\\template.py", line 149, in output\n    return \'\'.join(output_aux(node, blocks) for node in self.nodes)\n  File "E:\\web2py_src\\web2py\\gluon\\template.py", line 149, in <genexpr>\n    return \'\'.join(output_aux(node, blocks) for node in self.nodes)\n  File "E:\\web2py_src\\web2py\\gluon\\template.py", line 77, in output_aux\n    if isinstance(node, BlockNode) \\\n  File "E:\\web2py_src\\web2py\\gluon\\template.py", line 149, in output\n    return \'\'.join(output_aux(node, blocks) for node in self.nodes)\n  File "E:\\web2py_src\\web2py\\gluon\\template.py", line 149, in <genexpr>\n    return \'\'.join(output_aux(node, blocks) for node in self.nodes)\n  File "E:\\web2py_src\\web2py\\gluon\\template.py", line 77, in output_aux\n    if isinstance(node, BlockNode) \\\n  File "E:\\web2py_src\\web2py\\gluon\\template.py", line 149, in output\n    return \'\'.join(output_aux(node, blocks) for node in self.nodes)\n  File "E:\\web2py_src\\web2py\\gluon\\template.py", line 149, in <genexpr>\n    return \'\'.join(output_aux(node, blocks) for node in self.nodes)\n  File "E:\\web2py_src\\web2py\\gluon\\template.py", line 77, in output_aux\n    if isinstance(node, BlockNode) \\\n  File "E:\\web2py_src\\web2py\\gluon\\template.py", line 149, in output\n    return \'\'.join(output_aux(node, blocks) for node in self.nodes)\n  File "E:\\web2py_src\\web2py\\gluon\\template.py", line 149, in <genexpr>\n    return \'\'.join(output_aux(node, blocks) for node in self.nodes)\n  File "E:\\web2py_src\\web2py\\gluon\\template.py", line 77, in output_aux\n    if isinstance(node, BlockNode) \\\n  File "E:\\web2py_src\\web2py\\gluon\\template.py", line 149, in output\n    return \'\'.join(output_aux(node, blocks) for node in self.nodes)\n  File "E:\\web2py_src\\web2py\\gluon\\template.py", line 149, in <genexpr>\n    return \'\'.join(output_aux(node, blocks) for node in self.nodes)\n  File "E:\\web2py_src\\web2py\\gluon\\template.py", line 77, in output_aux\n    if isinstance(node, BlockNode) \\\n  File "E:\\web2py_src\\web2py\\gluon\\template.py", line 149, in output\n    return \'\'.join(output_aux(node, blocks) for node in self.nodes)\n  File "E:\\web2py_src\\web2py\\gluon\\template.py", line 149, in <genexpr>\n    return \'\'.join(output_aux(node, blocks) for node in self.nodes)\n  File "E:\\web2py_src\\web2py\\gluon\\template.py", line 77, in output_aux\n    if isinstance(node, BlockNode) \\\n  File "E:\\web2py_src\\web2py\\gluon\\template.py", line 149, in output\n    return \'\'.join(output_aux(node, blocks) for node in self.nodes)\n  File "E:\\web2py_src\\web2py\\gluon\\template.py", line 149, in <genexpr>\n    return \'\'.join(output_aux(node, blocks) for node in self.nodes)\n  File "E:\\web2py_src\\web2py\\gluon\\template.py", line 77, in output_aux\n    if isinstance(node, BlockNode) \\\n  File "E:\\web2py_src\\web2py\\gluon\\template.py", line 149, in output\n    return \'\'.join(output_aux(node, blocks) for node in self.nodes)\n  File "E:\\web2py_src\\web2py\\gluon\\template.py", line 149, in <genexpr>\n    return \'\'.join(output_aux(node, blocks) for node in self.nodes)\n  File "E:\\web2py_src\\web2py\\gluon\\template.py", line 77, in output_aux\n    if isinstance(node, BlockNode) \\\n  File "E:\\web2py_src\\web2py\\gluon\\template.py", line 149, in output\n    return \'\'.join(output_aux(node, blocks) for node in self.nodes)\n  File "E:\\web2py_src\\web2py\\gluon\\template.py", line 149, in <genexpr>\n    return \'\'.join(output_aux(node, blocks) for node in self.nodes)\n  File "E:\\web2py_src\\web2py\\gluon\\template.py", line 77, in output_aux\n    if isinstance(node, BlockNode) \\\n  File "E:\\web2py_src\\web2py\\gluon\\template.py", line 149, in output\n    return \'\'.join(output_aux(node, blocks) for node in self.nodes)\n  File "E:\\web2py_src\\web2py\\gluon\\template.py", line 149, in <genexpr>\n    return \'\'.join(output_aux(node, blocks) for node in self.nodes)\n  File "E:\\web2py_src\\web2py\\gluon\\template.py", line 77, in output_aux\n    if isinstance(node, BlockNode) \\\n  File "E:\\web2py_src\\web2py\\gluon\\template.py", line 149, in output\n    return \'\'.join(output_aux(node, blocks) for node in self.nodes)\n  File "E:\\web2py_src\\web2py\\gluon\\template.py", line 149, in <genexpr>\n    return \'\'.join(output_aux(node, blocks) for node in self.nodes)\n  File "E:\\web2py_src\\web2py\\gluon\\template.py", line 77, in output_aux\n    if isinstance(node, BlockNode) \\\n  File "E:\\web2py_src\\web2py\\gluon\\template.py", line 149, in output\n    return \'\'.join(output_aux(node, blocks) for node in self.nodes)\n  File "E:\\web2py_src\\web2py\\gluon\\template.py", line 149, in <genexpr>\n    return \'\'.join(output_aux(node, blocks) for node in self.nodes)\n  File "E:\\web2py_src\\web2py\\gluon\\template.py", line 77, in output_aux\n    if isinstance(node, BlockNode) \\\n  File "E:\\web2py_src\\web2py\\gluon\\template.py", line 149, in output\n    return \'\'.join(output_aux(node, blocks) for node in self.nodes)\n  File "E:\\web2py_src\\web2py\\gluon\\template.py", line 149, in <genexpr>\n    return \'\'.join(output_aux(node, blocks) for node in self.nodes)\n  File "E:\\web2py_src\\web2py\\gluon\\template.py", line 77, in output_aux\n    if isinstance(node, BlockNode) \\\n  File "E:\\web2py_src\\web2py\\gluon\\template.py", line 149, in output\n    return \'\'.join(output_aux(node, blocks) for node in self.nodes)\n  File "E:\\web2py_src\\web2py\\gluon\\template.py", line 149, in <genexpr>\n    return \'\'.join(output_aux(node, blocks) for node in self.nodes)\n  File "E:\\web2py_src\\web2py\\gluon\\template.py", line 77, in output_aux\n    if isinstance(node, BlockNode) \\\n  File "E:\\web2py_src\\web2py\\gluon\\template.py", line 149, in output\n    return \'\'.join(output_aux(node, blocks) for node in self.nodes)\n  File "E:\\web2py_src\\web2py\\gluon\\template.py", line 149, in <genexpr>\n    return \'\'.join(output_aux(node, blocks) for node in self.nodes)\n  File "E:\\web2py_src\\web2py\\gluon\\template.py", line 77, in output_aux\n    if isinstance(node, BlockNode) \\\n  File "E:\\web2py_src\\web2py\\gluon\\template.py", line 149, in output\n    return \'\'.join(output_aux(node, blocks) for node in self.nodes)\n  File "E:\\web2py_src\\web2py\\gluon\\template.py", line 149, in <genexpr>\n    return \'\'.join(output_aux(node, blocks) for node in self.nodes)\n  File "E:\\web2py_src\\web2py\\gluon\\template.py", line 77, in output_aux\n    if isinstance(node, BlockNode) \\\n  File "E:\\web2py_src\\web2py\\gluon\\template.py", line 149, in output\n    return \'\'.join(output_aux(node, blocks) for node in self.nodes)\n  File "E:\\web2py_src\\web2py\\gluon\\template.py", line 149, in <genexpr>\n    return \'\'.join(output_aux(node, blocks) for node in self.nodes)\n  File "E:\\web2py_src\\web2py\\gluon\\template.py", line 77, in output_aux\n    if isinstance(node, BlockNode) \\\n  File "E:\\web2py_src\\web2py\\gluon\\template.py", line 149, in output\n    return \'\'.join(output_aux(node, blocks) for node in self.nodes)\n  File "E:\\web2py_src\\web2py\\gluon\\template.py", line 149, in <genexpr>\n    return \'\'.join(output_aux(node, blocks) for node in self.nodes)\n  File "E:\\web2py_src\\web2py\\gluon\\template.py", line 77, in output_aux\n    if isinstance(node, BlockNode) \\\n  File "E:\\web2py_src\\web2py\\gluon\\template.py", line 149, in output\n    return \'\'.join(output_aux(node, blocks) for node in self.nodes)\n  File "E:\\web2py_src\\web2py\\gluon\\template.py", line 149, in <genexpr>\n    return \'\'.join(output_aux(node, blocks) for node in self.nodes)\n  File "E:\\web2py_src\\web2py\\gluon\\template.py", line 77, in output_aux\n    if isinstance(node, BlockNode) \\\n  File "E:\\web2py_src\\web2py\\gluon\\template.py", line 149, in output\n    return \'\'.join(output_aux(node, blocks) for node in self.nodes)\n  File "E:\\web2py_src\\web2py\\gluon\\template.py", line 149, in <genexpr>\n    return \'\'.join(output_aux(node, blocks) for node in self.nodes)\n  File "E:\\web2py_src\\web2py\\gluon\\template.py", line 77, in output_aux\n    if isinstance(node, BlockNode) \\\n  File "E:\\web2py_src\\web2py\\gluon\\template.py", line 149, in output\n    return \'\'.join(output_aux(node, blocks) for node in self.nodes)\n  File "E:\\web2py_src\\web2py\\gluon\\template.py", line 149, in <genexpr>\n    return \'\'.join(output_aux(node, blocks) for node in self.nodes)\n  File "E:\\web2py_src\\web2py\\gluon\\template.py", line 77, in output_aux\n    if isinstance(node, BlockNode) \\\n  File "E:\\web2py_src\\web2py\\gluon\\template.py", line 149, in output\n    return \'\'.join(output_aux(node, blocks) for node in self.nodes)\n  File "E:\\web2py_src\\web2py\\gluon\\template.py", line 149, in <genexpr>\n    return \'\'.join(output_aux(node, blocks) for node in self.nodes)\n  File "E:\\web2py_src\\web2py\\gluon\\template.py", line 77, in output_aux\n    if isinstance(node, BlockNode) \\\n  File "E:\\web2py_src\\web2py\\gluon\\template.py", line 149, in output\n    return \'\'.join(output_aux(node, blocks) for node in self.nodes)\n  File "E:\\web2py_src\\web2py\\gluon\\template.py", line 149, in <genexpr>\n    return \'\'.join(output_aux(node, blocks) for node in self.nodes)\n  File "E:\\web2py_src\\web2py\\gluon\\template.py", line 77, in output_aux\n    if isinstance(node, BlockNode) \\\n  File "E:\\web2py_src\\web2py\\gluon\\template.py", line 149, in output\n    return \'\'.join(output_aux(node, blocks) for node in self.nodes)\n  File "E:\\web2py_src\\web2py\\gluon\\template.py", line 149, in <genexpr>\n    return \'\'.join(output_aux(node, blocks) for node in self.nodes)\n  File "E:\\web2py_src\\web2py\\gluon\\template.py", line 77, in output_aux\n    if isinstance(node, BlockNode) \\\n  File "E:\\web2py_src\\web2py\\gluon\\template.py", line 149, in output\n    return \'\'.join(output_aux(node, blocks) for node in self.nodes)\n  File "E:\\web2py_src\\web2py\\gluon\\template.py", line 149, in <genexpr>\n    return \'\'.join(output_aux(node, blocks) for node in self.nodes)\n  File "E:\\web2py_src\\web2py\\gluon\\template.py", line 77, in output_aux\n    if isinstance(node, BlockNode) \\\n  File "E:\\web2py_src\\web2py\\gluon\\template.py", line 149, in output\n    return \'\'.join(output_aux(node, blocks) for node in self.nodes)\n  File "E:\\web2py_src\\web2py\\gluon\\template.py", line 149, in <genexpr>\n    return \'\'.join(output_aux(node, blocks) for node in self.nodes)\n  File "E:\\web2py_src\\web2py\\gluon\\template.py", line 77, in output_aux\n    if isinstance(node, BlockNode) \\\n  File "E:\\web2py_src\\web2py\\gluon\\template.py", line 149, in output\n    return \'\'.join(output_aux(node, blocks) for node in self.nodes)\n  File "E:\\web2py_src\\web2py\\gluon\\template.py", line 149, in <genexpr>\n    return \'\'.join(output_aux(node, blocks) for node in self.nodes)\n  File "E:\\web2py_src\\web2py\\gluon\\template.py", line 77, in output_aux\n    if isinstance(node, BlockNode) \\\n  File "E:\\web2py_src\\web2py\\gluon\\template.py", line 149, in output\n    return \'\'.join(output_aux(node, blocks) for node in self.nodes)\n  File "E:\\web2py_src\\web2py\\gluon\\template.py", line 149, in <genexpr>\n    return \'\'.join(output_aux(node, blocks) for node in self.nodes)\n  File "E:\\web2py_src\\web2py\\gluon\\template.py", line 77, in output_aux\n    if isinstance(node, BlockNode) \\\n  File "E:\\web2py_src\\web2py\\gluon\\template.py", line 149, in output\n    return \'\'.join(output_aux(node, blocks) for node in self.nodes)\n  File "E:\\web2py_src\\web2py\\gluon\\template.py", line 149, in <genexpr>\n    return \'\'.join(output_aux(node, blocks) for node in self.nodes)\n  File "E:\\web2py_src\\web2py\\gluon\\template.py", line 77, in output_aux\n    if isinstance(node, BlockNode) \\\n  File "E:\\web2py_src\\web2py\\gluon\\template.py", line 149, in output\n    return \'\'.join(output_aux(node, blocks) for node in self.nodes)\n  File "E:\\web2py_src\\web2py\\gluon\\template.py", line 149, in <genexpr>\n    return \'\'.join(output_aux(node, blocks) for node in self.nodes)\n  File "E:\\web2py_src\\web2py\\gluon\\template.py", line 77, in output_aux\n    if isinstance(node, BlockNode) \\\n  File "E:\\web2py_src\\web2py\\gluon\\template.py", line 149, in output\n    return \'\'.join(output_aux(node, blocks) for node in self.nodes)\n  File "E:\\web2py_src\\web2py\\gluon\\template.py", line 149, in <genexpr>\n    return \'\'.join(output_aux(node, blocks) for node in self.nodes)\n  File "E:\\web2py_src\\web2py\\gluon\\template.py", line 78, in output_aux\n    else str(node)\n  File "E:\\web2py_src\\web2py\\gluon\\template.py", line 47, in __str__\n    def __str__(self):\n  File "E:\\web2py_src\\web2py\\gluon\\contrib\\qdb.py", line 91, in trace_dispatch\n    return self.dispatch_call(frame, arg)\n  File "C:\\Python27\\lib\\bdb.py", line 76, in dispatch_call\n    if not (self.stop_here(frame) or self.break_anywhere(frame)):\n  File "C:\\Python27\\lib\\bdb.py", line 147, in break_anywhere\n    return self.canonic(frame.f_code.co_filename) in self.breaks\nRuntimeError: maximum recursion depth exceeded\n'
p9
s.