(dp1
S'output'
p2
S"<type 'exceptions.NameError'> name 'posts' is not defined"
p3
sS'layer'
p4
S'E:\\web2py_src\\web2py\\applications\\Amplify\\views\\news/social.html'
p5
sS'code'
p6
S'response.write(\'<!--[if HTML5]><![endif]-->\\r\\n<!DOCTYPE html>\\r\\n<!-- paulirish.com/2008/conditional-stylesheets-vs-css-hacks-answer-neither/ -->\\r\\n<!--[if lt IE 7]><html class="ie ie6 ie-lte9 ie-lte8 ie-lte7 no-js" lang="\', escape=False)\nresponse.write(T.accepted_language or \'en\')\nresponse.write(\'"> <![endif]-->\\r\\n<!--[if IE 7]><html class="ie ie7 ie-lte9 ie-lte8 ie-lte7 no-js" lang="\', escape=False)\nresponse.write(T.accepted_language or \'en\')\nresponse.write(\'"> <![endif]-->\\r\\n<!--[if IE 8]><html class="ie ie8 ie-lte9 ie-lte8 no-js" lang="\', escape=False)\nresponse.write(T.accepted_language or \'en\')\nresponse.write(\'"> <![endif]-->\\r\\n<!--[if IE 9]><html class="ie9 ie-lte9 no-js" lang="\', escape=False)\nresponse.write(T.accepted_language or \'en\')\nresponse.write(\'"> <![endif]-->\\r\\n<!--[if (gt IE 9)|!(IE)]><!--> <html class="no-js" lang="\', escape=False)\nresponse.write(T.accepted_language or \'en\')\nresponse.write(\'"> <!--<![endif]-->\\r\\n<head>\\r\\n<title>\', escape=False)\nresponse.write(response.title or request.application)\nresponse.write(\'</title>\\r\\n  <!--[if !HTML5]>\\r\\n      <meta http-equiv="X-UA-Compatible" content="IE=edge\', escape=False)\nresponse.write(not request.is_local and \',chrome=1\' or \'\')\nresponse.write(\'">\\r\\n  <![endif]-->\\r\\n  <!-- www.phpied.com/conditional-comments-block-downloads/ -->\\r\\n  <!-- Always force latest IE rendering engine\\r\\n       (even in intranet) & Chrome Frame\\r\\n       Remove this if you use the .htaccess -->\\r\\n\\r\\n  <meta charset="utf-8" />\\r\\n  <!--url(\', escape=False)\nresponse.write(URL(\'static\',\'img/brushed.png\'))\nresponse.write(\') repeat;-->\\r\\n  \\r\\n  <!-- http://dev.w3.org/html5/markup/meta.name.html -->\\r\\n  <meta name="application-name" content="\', escape=False)\nresponse.write(request.application)\nresponse.write(\'" />\\r\\n\\r\\n  <!--  Mobile Viewport Fix\\r\\n        j.mp/mobileviewport & davidbcalhoun.com/2010/viewport-metatag\\r\\n        device-width: Occupy full width of the screen in its current orientation\\r\\n        initial-scale = 1.0 retains dimensions instead of zooming out if page height > device height\\r\\n        user-scalable = yes allows the user to zoom in -->\\r\\n  <meta name="viewport" content="width=device-width, initial-scale=1.0" />\\r\\n\\r\\n  <link rel="shortcut icon" href="\', escape=False)\nresponse.write(URL(\'static\',\'images/favicon.ico\'))\nresponse.write(\'" type="image/x-icon">\\r\\n  <link rel="apple-touch-icon" href="\', escape=False)\nresponse.write(URL(\'static\',\'images/favicon.png\'))\nresponse.write(\'">\\r\\n\\r\\n  <!-- All JavaScript at the bottom, except for Modernizr which enables\\r\\n       HTML5 elements & feature detects -->\\r\\n  <script src="\', escape=False)\nresponse.write(URL(\'static\',\'js/modernizr.custom.js\'))\nresponse.write(\'"></script>\\r\\n\\r\\n  <!-- include stylesheets -->\\r\\n  \', escape=False)\n#response.files.append(URL(\'static\',\'css/web2py.css\'))\nresponse.files.append(URL(\'static\',\'css/bootstrap.min.css\'))\nresponse.files.append(URL(\'static\',\'css/bootstrap-responsive.min.css\'))\n#response.files.append(URL(\'static\',\'css/web2py_bootstrap.css\'))\nresponse.files.append(URL(\'static\',\'css/flat-ui.css\'))\nresponse.write(\'\\r\\n \\r\\n\', escape=False)\nresponse.write(\'<script type="text/javascript"><!--\\n    // These variables are used by the web2py_ajax_init function in web2py_ajax.js (which is loaded below).\\n    var w2p_ajax_confirm_message = "\', escape=False)\nresponse.write(T(\'Are you sure you want to delete this object?\'))\nresponse.write(\'";\\n    var w2p_ajax_date_format = "\', escape=False)\nresponse.write(T(\'%Y-%m-%d\'))\nresponse.write(\'";\\n    var w2p_ajax_datetime_format = "\', escape=False)\nresponse.write(T(\'%Y-%m-%d %H:%M:%S\'))\nresponse.write(\'";\\n    var ajax_error_500 = \\\'\', escape=False)\nresponse.write(XML(T(\'An error occured, please %s the page\') % A(T(\'reload\'), _href=URL(args=request.args, vars=request.get_vars))))\nresponse.write("\'\\n    //--></script>\\n", escape=False)\nresponse.files.insert(0,URL(\'static\',\'js/jquery.js\'))\nresponse.files.insert(1,URL(\'static\',\'css/calendar.css\'))\nresponse.files.insert(2,URL(\'static\',\'js/calendar.js\'))\nresponse.files.insert(3,URL(\'static\',\'js/web2py.js\'))\nresponse.include_meta()\nresponse.include_files()\nresponse.write(\'\\n\', escape=False)\nresponse.write(\'\\r\\n  <noscript><link href="\', escape=False)\nresponse.write(URL(\'static\', \'css/web2py_bootstrap_nojs.css\'))\nresponse.write(\'" rel="stylesheet" type="text/css" /></noscript>\\r\\n</head>\\r\\n<body>\\r\\n<!--background-color : #f1f0ee;-->\\r\\n<style>\\r\\nbody{\\r\\n         padding:100px;\\r\\n         \\r\\n         \\r\\n     }\\r\\n</style>\\r\\n<div class="navbar navbar-fixed-top" >\\r\\n\\t<div class="navbar-inner">\\r\\n        <ul class="nav"><li><a href=\', escape=False)\nresponse.write(URL(\'index\'))\nresponse.write(\' style="font-size:25px;">\', escape=False)\nresponse.write(str(response.title))\nresponse.write(\'</a></li></ul>\\r\\n        <ul id="navbar" class="nav pull-right" style="color:white;">\', escape=False)\nresponse.write(\'auth\' in globals() and auth.navbar(mode="dropdown") or \'\')\nresponse.write(\'</ul>\\r\\n    </div>\\r\\n</div>\\r\\n    \', escape=False)\nresponse.write(\'\\r\\n<style>\\r\\n\\t.navbar-inner{\\r\\n        background:rgba(255, 255, 255, 1);    \\r\\n    }\\r\\n\\t.navbar .nav > li > a {\\r\\n        <!color: #FFFFFF;-->\\r\\n    }    \\r\\n    .navbar{\\r\\n        border-bottom: 4px solid rgba(46, 204, 113, 1);\\r\\n    }\\r\\n</style>\\r\\n\', escape=False)\nnewsbar_enabled = False\nresponse.write(\'\\r\\n<h1>News For You</h1>\\r\\n\\r\\n<script>\\r\\n    $(document).ready(function (){\\r\\n    \\t$(\\\'#post\\\').click(function(){\\r\\n    \\t\\tvar des = $(\\\'#description\\\').val();\\r\\n    \\t\\tvar link = $(\\\'#link\\\').val();\\r\\n            if (link==\\\'\\\'){ alert("url cannot be empty");}\\r\\n            else{\\r\\n            $.ajax({\\r\\n      \\t    \\turl : \\\'post_news\\\',\\r\\n                data : { \\\'des\\\' : des, \\\'link\\\':link},\\r\\n            \\tcontext: document.body\\r\\n\\r\\n            }).done(function(){\\r\\n                alert("done");\\r\\n                $(\\\'#description\\\').val(\\\'\\\');\\r\\n                $(\\\'#link\\\').val(\\\'\\\');\\r\\n                });\\r\\n            }\\r\\n    \\t\\t\\r\\n    \\t});\\r\\n        $(\\\'.like\\\').click(function(){\\r\\n            var id = $(this).attr("postid");\\r\\n           $.ajax({\\r\\n               url:\\\'like\\\', \\r\\n               data : {\\\'id\\\':id}\\r\\n            }).done(function(){alert("done");}); \\r\\n            \\r\\n        });\\r\\n    });\\r\\n</script>\\r\\n\', escape=False)\n#if login:\nresponse.write(\'\\r\\n\', escape=False)\nnewsbar_enabled = True\nresponse.write(\'\\r\\n\', escape=False)\n#pass\nresponse.write(\'\\r\\n\\r\\n\', escape=False)\n#if newsbar_enabled:\nresponse.write(\'\\r\\n\', escape=False)\nresponse.write(\'\\r\\n<div id=\\\'create_news\\\'>\\r\\n    <textarea id = "description" placeholder="what\\\'s on your mind?"></textarea>\\r\\n    <textarea id = "link" placeholder="url"></textarea>\\r\\n    <button id="post" type="submit" style="padding-left:30px;padding-right:30px;">Post!</button>\\r\\n</div>\\r\\n<div id="news_stream">\\r\\n    \', escape=False)\nfor post in posts:\n    response.write(\'\\r\\n    \', escape=False)\n    response.write(post[0])\n    response.write(\'<br>\\r\\n    \', escape=False)\n    response.write(A(_href = post[1]))\n    response.write(\'<br>\\r\\n    \', escape=False)\n    response.write(post[2])\n    response.write(\'<br>\\r\\n\\t<button type=\\\'submit\\\' class="like" postid=\', escape=False)\n    response.write(post[-2])\n    response.write(\'>Like</button><br>\\r\\n    \', escape=False)\n    pass\nresponse.write(\'\\r\\n    <p></p>\\r\\n\\r\\n</div>\\r\\n\', escape=False)\nresponse.write(\'\\r\\n\', escape=False)\n#pass\nresponse.write(\'\\r\\n\', escape=False)\n#if not login :\nresponse.write(\'\\r\\n\', escape=False)\n#=message\nresponse.write(\'\\r\\n\', escape=False)\n#pass\nresponse.write(\'\\r\\n\', escape=False)\nresponse.write(\'\\r\\n\\r\\n  <!-- The javascript =============================================\\r\\n       (Placed at the end of the document so the pages load faster) -->\\r\\n  <script src="\', escape=False)\nresponse.write(URL(\'static\',\'js/bootstrap.min.js\'))\nresponse.write(\'"></script>\\r\\n  <script src="\', escape=False)\nresponse.write(URL(\'static\',\'js/web2py_bootstrap.js\'))\nresponse.write(\'"></script>\\r\\n  <script src="\', escape=False)\nresponse.write(URL(\'static\',\'js/less.js\'))\nresponse.write(\'"></script>\\r\\n  <!--[if lt IE 7 ]>\\r\\n      <script src="\', escape=False)\nresponse.write(URL(\'static\',\'js/dd_belatedpng.js\'))\nresponse.write(\'"></script>\\r\\n      <script> DD_belatedPNG.fix(\\\'img, .png_bg\\\'); //fix any <img> or .png_bg background-images </script>\\r\\n      <![endif]-->\\r\\n\\r\\n  \', escape=False)\nif response.google_analytics_id:\n    response.write(\'\\r\\n  <script src="\', escape=False)\n    response.write(URL(\'static\',\'js/analytics.min.js\'))\n    response.write(\'"></script>\\r\\n  <script type="text/javascript">\\r\\n  analytics.initialize({\\r\\n    \\\'Google Analytics\\\':{trackingId:\\\'\', escape=False)\n    response.write(response.google_analytics_id)\n    response.write("\'}\\r\\n  });</script>\\r\\n  ", escape=False)\n    pass\nresponse.write(\'\\r\\n  \\r\\n    <script src="\', escape=False)\nresponse.write(URL(\'static\',\'js/share.js\',vars=dict(static=URL(\'static\',\'img\'))))\nresponse.write(\'"></script>\\r\\n</body>\\r\\n</html>\\r\\n\', escape=False)'
p7
sS'snapshot'
p8
(dp9
sS'traceback'
p10
S'Traceback (most recent call last):\n  File "E:\\web2py_src\\web2py\\gluon\\restricted.py", line 212, in restricted\n    exec ccode in environment\n  File "E:\\web2py_src\\web2py\\applications\\Amplify\\views\\news/social.html", line 69, in <module>\n    {{#if not login :}}\nNameError: name \'posts\' is not defined\n'
p11
s.