(dp1
S'output'
p2
S"<type 'exceptions.RuntimeError'> maximum recursion depth exceeded while calling a Python object"
p3
sS'layer'
p4
S'/Users/josyulakrishna/Documents/web2py_src/web2py/applications/Amplify/controllers/default.py'
p5
sS'code'
p6
S'# -*- coding: utf-8 -*-\n# this file is released under public domain and you can use without limitations\n\n#########################################################################\n## This is a sample controller\n## - index is the default action of any application\n## - user is required for authentication and authorization\n## - download is for downloading files uploaded in the db (does streaming)\n## - call exposes all registered services (none by default)\n#########################################################################\n\ndef index():\n    """\n    example action using the internationalization operator T and flash\n    rendered by views/default/index.html or views/generic.html\n\n    if you need a simple wiki simple replace the two lines below with:\n    return auth.wiki()\n\n    """\n    #drone_posts()\n    #create_drones()\n    #create_news()\n    #make_clusters()\n    \n    if auth.is_logged_in():\n        name  = db.auth_user[auth.user_id].first_name\n    else:\n        name  = "Guest"\n    return locals()\n\ndef userprofile():\n     print "userprofile"\n     user = db.auth_user(username=request.args(0)) or redirect(URL(\'error\'))\n     print "getting username"\n     name=user.first_name+" "+user.last_name\n     if name=="":\n         name = user[\'username\']\n     posts = db(db.user_post.posted_by_user==user).select()\n     print posts\n     return locals()\n\ndef news():\n    redirect(URL(c="news",f="social"))\n    \ndef user():\n    if request.args(0) == \'profile\':\n        posts = db(db.user_post.posted_by_user==user).select()\n        response.view = \'default/profile.html\'\n        return locals()\n        \n\n    if request.args(0) == \'register\':\n        for field in [\'first_name\', \'last_name\', \'email\']:\n            db.auth_user[field].readable = db.auth_user[field].writable = False\n    return dict(form=auth())\n\n@cache.action()\ndef download():\n    """\n    allows downloading of uploaded files\n    http://..../[app]/default/download/[filename]\n    """\n    return response.download(request, db)\n\n\ndef call():\n    """\n    exposes services. for example:\n    http://..../[app]/default/call/jsonrpc\n    decorate with @services.jsonrpc the functions to expose\n    supports xml, json, xmlrpc, jsonrpc, amfrpc, rss, csv\n    """\n    return service()\n\n\n@auth.requires_signature()\ndef data():\n    """\n    http://..../[app]/default/data/tables\n    http://..../[app]/default/data/create/[table]\n    http://..../[app]/default/data/read/[table]/[id]\n    http://..../[app]/default/data/update/[table]/[id]\n    http://..../[app]/default/data/delete/[table]/[id]\n    http://..../[app]/default/data/select/[table]\n    http://..../[app]/default/data/search/[table]\n    but URLs must be signed, i.e. linked with\n      A(\'table\',_href=URL(\'data/tables\',user_signature=True))\n    or with the signed load operator\n      LOAD(\'default\',\'data.load\',args=\'tables\',ajax=True,user_signature=True)\n    """\n    return dict(form=crud())\n\ndef profile():\n    return locals()\n\n@auth.requires_login()    \ndef interests():\n    row = db(db.user_interests.user_id == auth.user_id).select()\n    field_list = [\'Science\', \'Arts\', \'Bussiness and Economy\', \'Computers and Techonology\', \'Health\', \'Home and Domestic Life\', \'News\',\'Recreation Activities\', \'Reference Education\', \'Shopping\', \'Society\', \'Sports\']\n    filled_interests = dict()\n    if row:\n        for i,word in enumerate(db.user_interests.fields[2:]):\n            filled_interests[field_list[i]] = row[0][word]\n        print filled_interests\n    else:\n        noInterest = \'none\'\n    return locals()\n\ndef set_interests():\n    print "in set interest"\n    print(auth.user_id)\n    field_list = [\'Science\', \'Arts\', \'Bussiness and Economy\', \'Computers and Techonology\', \'Health\', \'Home and Domestic Life\', \'News\',\'Recreation Activities\', \'Reference Education\', \'Shopping\', \'Society\', \'Sports\']\n    for interest in request.vars.values()[0]:\n        if interest in field_list:\n            field_list[field_list.index(interest)] = True\n    for index,interest in enumerate(field_list):\n        if interest!=True:\n            field_list[index] = False\n    fieldDict = dict(zip(db.user_interests.fields[2:], field_list))\n    fieldDict[\'user_id\']  = auth.user_id\n    print fieldDict\n    row = db(db.user_interests.user_id==auth.user_id).select()\n    print row\n    row = db(db.user_interests.user_id==auth.user_id).count()\n    print row\n    if row:\n        print "if"\n        db(db.user_interests.user_id==auth.user_id).update(**fieldDict)\n        if db(db.user_clusters.id > 0).count() > 100: \n            print "calling knn select"\n            knnSelect(auth.user_id)\n        else:\n            print "calling make_clusters"\n            make_clusters()\n    else:\n        print "in else"\n        db.user_interests.insert(**fieldDict)\n        if db(db.user_clusters.id > 0).count() > 100: \n            print "calling knn select"\n            knnSelect(auth.user_id)\n        else:\n            print "calling make_clusters"\n            make_clusters()\n\n    \n    #db.user_interests.insert(user_id = auth.user_id , *field_list)\n    return True\n\n#Getting posts for the user\ndef get_posts(): \n    #user id of the user\n     userid = auth.user_id\n     row = db(db.user_clusters.user_id == userid).select().first()\n     clusterid =  int(row.cluster_id)\n     #getting users in the cluster\n     rows = db(db.user_clusters.cluster_id == clusterid).select()\n\n     #users in the cluster\n     users = []\n     for row in rows: \n        users.append(row.user_id)\n      \n    #getting the user posts\n     posts ={}\n     for user in users: \n        for post in db(db.user_post.posted_by_user == user).select(): # selecting the user posts\n            posts.setdefault(user, []).append((post.description, post.url, post.liked_by_user))\n     return posts\n\nresponse._vars=response._caller(user)\n'
p7
sS'snapshot'
p8
(dp9
sS'traceback'
p10
S'Traceback (most recent call last):\n  File "/Users/josyulakrishna/Documents/web2py_src/web2py/gluon/restricted.py", line 212, in restricted\n    exec ccode in environment\n  File "/Users/josyulakrishna/Documents/web2py_src/web2py/applications/Amplify/controllers/default.py", line 171, in <module>\n  File "/Users/josyulakrishna/Documents/web2py_src/web2py/gluon/globals.py", line 194, in <lambda>\n    self._caller = lambda f: f()\n  File "/Users/josyulakrishna/Documents/web2py_src/web2py/applications/Amplify/controllers/default.py", line 48, in user\n    posts = db(db.user_post.posted_by_user==user).select()\n  File "/Users/josyulakrishna/Documents/web2py_src/web2py/gluon/dal.py", line 9958, in select\n    return adapter.select(self.query,fields,attributes)\n  File "/Users/josyulakrishna/Documents/web2py_src/web2py/gluon/dal.py", line 2245, in select\n    return super(SQLiteAdapter, self).select(query, fields, attributes)\n  File "/Users/josyulakrishna/Documents/web2py_src/web2py/gluon/dal.py", line 1691, in select\n    sql = self._select(query, fields, attributes)\n  File "/Users/josyulakrishna/Documents/web2py_src/web2py/gluon/dal.py", line 1601, in _select\n    sql_w = \' WHERE \' + self.expand(query) if query else \'\'\n  File "/Users/josyulakrishna/Documents/web2py_src/web2py/gluon/dal.py", line 1366, in expand\n    return op(first, second, **optional_args)\n  File "/Users/josyulakrishna/Documents/web2py_src/web2py/gluon/dal.py", line 1276, in EQ\n    self.expand(second, first.type))\n  File "/Users/josyulakrishna/Documents/web2py_src/web2py/gluon/dal.py", line 1376, in expand\n    return str(self.represent(expression,field_type))\n  File "/Users/josyulakrishna/Documents/web2py_src/web2py/gluon/dal.py", line 1789, in represent\n    obj = obj()\n  File "/Users/josyulakrishna/Documents/web2py_src/web2py/applications/Amplify/controllers/default.py", line 48, in user\n    posts = db(db.user_post.posted_by_user==user).select()\n  File "/Users/josyulakrishna/Documents/web2py_src/web2py/gluon/dal.py", line 9958, in select\n    return adapter.select(self.query,fields,attributes)\n  File "/Users/josyulakrishna/Documents/web2py_src/web2py/gluon/dal.py", line 2245, in select\n    return super(SQLiteAdapter, self).select(query, fields, attributes)\n  File "/Users/josyulakrishna/Documents/web2py_src/web2py/gluon/dal.py", line 1691, in select\n    sql = self._select(query, fields, attributes)\n  File "/Users/josyulakrishna/Documents/web2py_src/web2py/gluon/dal.py", line 1601, in _select\n    sql_w = \' WHERE \' + self.expand(query) if query else \'\'\n  File "/Users/josyulakrishna/Documents/web2py_src/web2py/gluon/dal.py", line 1366, in expand\n    return op(first, second, **optional_args)\n  File "/Users/josyulakrishna/Documents/web2py_src/web2py/gluon/dal.py", line 1276, in EQ\n    self.expand(second, first.type))\n  File "/Users/josyulakrishna/Documents/web2py_src/web2py/gluon/dal.py", line 1376, in expand\n    return str(self.represent(expression,field_type))\n  File "/Users/josyulakrishna/Documents/web2py_src/web2py/gluon/dal.py", line 1789, in represent\n    obj = obj()\n  File "/Users/josyulakrishna/Documents/web2py_src/web2py/applications/Amplify/controllers/default.py", line 48, in user\n    posts = db(db.user_post.posted_by_user==user).select()\n  File "/Users/josyulakrishna/Documents/web2py_src/web2py/gluon/dal.py", line 9958, in select\n    return adapter.select(self.query,fields,attributes)\n  File "/Users/josyulakrishna/Documents/web2py_src/web2py/gluon/dal.py", line 2245, in select\n    return super(SQLiteAdapter, self).select(query, fields, attributes)\n  File "/Users/josyulakrishna/Documents/web2py_src/web2py/gluon/dal.py", line 1691, in select\n    sql = self._select(query, fields, attributes)\n  File "/Users/josyulakrishna/Documents/web2py_src/web2py/gluon/dal.py", line 1601, in _select\n    sql_w = \' WHERE \' + self.expand(query) if query else \'\'\n  File "/Users/josyulakrishna/Documents/web2py_src/web2py/gluon/dal.py", line 1366, in expand\n    return op(first, second, **optional_args)\n  File "/Users/josyulakrishna/Documents/web2py_src/web2py/gluon/dal.py", line 1276, in EQ\n    self.expand(second, first.type))\n  File "/Users/josyulakrishna/Documents/web2py_src/web2py/gluon/dal.py", line 1376, in expand\n    return str(self.represent(expression,field_type))\n  File "/Users/josyulakrishna/Documents/web2py_src/web2py/gluon/dal.py", line 1789, in represent\n    obj = obj()\n  File "/Users/josyulakrishna/Documents/web2py_src/web2py/applications/Amplify/controllers/default.py", line 48, in user\n    posts = db(db.user_post.posted_by_user==user).select()\n  File "/Users/josyulakrishna/Documents/web2py_src/web2py/gluon/dal.py", line 9958, in select\n    return adapter.select(self.query,fields,attributes)\n  File "/Users/josyulakrishna/Documents/web2py_src/web2py/gluon/dal.py", line 2245, in select\n    return super(SQLiteAdapter, self).select(query, fields, attributes)\n  File "/Users/josyulakrishna/Documents/web2py_src/web2py/gluon/dal.py", line 1691, in select\n    sql = self._select(query, fields, attributes)\n  File "/Users/josyulakrishna/Documents/web2py_src/web2py/gluon/dal.py", line 1601, in _select\n    sql_w = \' WHERE \' + self.expand(query) if query else \'\'\n  File "/Users/josyulakrishna/Documents/web2py_src/web2py/gluon/dal.py", line 1366, in expand\n    return op(first, second, **optional_args)\n  File "/Users/josyulakrishna/Documents/web2py_src/web2py/gluon/dal.py", line 1276, in EQ\n    self.expand(second, first.type))\n  File "/Users/josyulakrishna/Documents/web2py_src/web2py/gluon/dal.py", line 1376, in expand\n    return str(self.represent(expression,field_type))\n  File "/Users/josyulakrishna/Documents/web2py_src/web2py/gluon/dal.py", line 1789, in represent\n    obj = obj()\n  File "/Users/josyulakrishna/Documents/web2py_src/web2py/applications/Amplify/controllers/default.py", line 48, in user\n    posts = db(db.user_post.posted_by_user==user).select()\n  File "/Users/josyulakrishna/Documents/web2py_src/web2py/gluon/dal.py", line 9958, in select\n    return adapter.select(self.query,fields,attributes)\n  File "/Users/josyulakrishna/Documents/web2py_src/web2py/gluon/dal.py", line 2245, in select\n    return super(SQLiteAdapter, self).select(query, fields, attributes)\n  File "/Users/josyulakrishna/Documents/web2py_src/web2py/gluon/dal.py", line 1691, in select\n    sql = self._select(query, fields, attributes)\n  File "/Users/josyulakrishna/Documents/web2py_src/web2py/gluon/dal.py", line 1601, in _select\n    sql_w = \' WHERE \' + self.expand(query) if query else \'\'\n  File "/Users/josyulakrishna/Documents/web2py_src/web2py/gluon/dal.py", line 1366, in expand\n    return op(first, second, **optional_args)\n  File "/Users/josyulakrishna/Documents/web2py_src/web2py/gluon/dal.py", line 1276, in EQ\n    self.expand(second, first.type))\n  File "/Users/josyulakrishna/Documents/web2py_src/web2py/gluon/dal.py", line 1376, in expand\n    return str(self.represent(expression,field_type))\n  File "/Users/josyulakrishna/Documents/web2py_src/web2py/gluon/dal.py", line 1789, in represent\n    obj = obj()\n  File "/Users/josyulakrishna/Documents/web2py_src/web2py/applications/Amplify/controllers/default.py", line 48, in user\n    posts = db(db.user_post.posted_by_user==user).select()\n  File "/Users/josyulakrishna/Documents/web2py_src/web2py/gluon/dal.py", line 9958, in select\n    return adapter.select(self.query,fields,attributes)\n  File "/Users/josyulakrishna/Documents/web2py_src/web2py/gluon/dal.py", line 2245, in select\n    return super(SQLiteAdapter, self).select(query, fields, attributes)\n  File "/Users/josyulakrishna/Documents/web2py_src/web2py/gluon/dal.py", line 1691, in select\n    sql = self._select(query, fields, attributes)\n  File "/Users/josyulakrishna/Documents/web2py_src/web2py/gluon/dal.py", line 1601, in _select\n    sql_w = \' WHERE \' + self.expand(query) if query else \'\'\n  File "/Users/josyulakrishna/Documents/web2py_src/web2py/gluon/dal.py", line 1366, in expand\n    return op(first, second, **optional_args)\n  File "/Users/josyulakrishna/Documents/web2py_src/web2py/gluon/dal.py", line 1276, in EQ\n    self.expand(second, first.type))\n  File "/Users/josyulakrishna/Documents/web2py_src/web2py/gluon/dal.py", line 1376, in expand\n    return str(self.represent(expression,field_type))\n  File "/Users/josyulakrishna/Documents/web2py_src/web2py/gluon/dal.py", line 1789, in represent\n    obj = obj()\n  File "/Users/josyulakrishna/Documents/web2py_src/web2py/applications/Amplify/controllers/default.py", line 48, in user\n    posts = db(db.user_post.posted_by_user==user).select()\n  File "/Users/josyulakrishna/Documents/web2py_src/web2py/gluon/dal.py", line 9958, in select\n    return adapter.select(self.query,fields,attributes)\n  File "/Users/josyulakrishna/Documents/web2py_src/web2py/gluon/dal.py", line 2245, in select\n    return super(SQLiteAdapter, self).select(query, fields, attributes)\n  File "/Users/josyulakrishna/Documents/web2py_src/web2py/gluon/dal.py", line 1691, in select\n    sql = self._select(query, fields, attributes)\n  File "/Users/josyulakrishna/Documents/web2py_src/web2py/gluon/dal.py", line 1601, in _select\n    sql_w = \' WHERE \' + self.expand(query) if query else \'\'\n  File "/Users/josyulakrishna/Documents/web2py_src/web2py/gluon/dal.py", line 1366, in expand\n    return op(first, second, **optional_args)\n  File "/Users/josyulakrishna/Documents/web2py_src/web2py/gluon/dal.py", line 1276, in EQ\n    self.expand(second, first.type))\n  File "/Users/josyulakrishna/Documents/web2py_src/web2py/gluon/dal.py", line 1376, in expand\n    return str(self.represent(expression,field_type))\n  File "/Users/josyulakrishna/Documents/web2py_src/web2py/gluon/dal.py", line 1789, in represent\n    obj = obj()\n  File "/Users/josyulakrishna/Documents/web2py_src/web2py/applications/Amplify/controllers/default.py", line 48, in user\n    posts = db(db.user_post.posted_by_user==user).select()\n  File "/Users/josyulakrishna/Documents/web2py_src/web2py/gluon/dal.py", line 9958, in select\n    return adapter.select(self.query,fields,attributes)\n  File "/Users/josyulakrishna/Documents/web2py_src/web2py/gluon/dal.py", line 2245, in select\n    return super(SQLiteAdapter, self).select(query, fields, attributes)\n  File "/Users/josyulakrishna/Documents/web2py_src/web2py/gluon/dal.py", line 1691, in select\n    sql = self._select(query, fields, attributes)\n  File "/Users/josyulakrishna/Documents/web2py_src/web2py/gluon/dal.py", line 1601, in _select\n    sql_w = \' WHERE \' + self.expand(query) if query else \'\'\n  File "/Users/josyulakrishna/Documents/web2py_src/web2py/gluon/dal.py", line 1366, in expand\n    return op(first, second, **optional_args)\n  File "/Users/josyulakrishna/Documents/web2py_src/web2py/gluon/dal.py", line 1276, in EQ\n    self.expand(second, first.type))\n  File "/Users/josyulakrishna/Documents/web2py_src/web2py/gluon/dal.py", line 1376, in expand\n    return str(self.represent(expression,field_type))\n  File "/Users/josyulakrishna/Documents/web2py_src/web2py/gluon/dal.py", line 1789, in represent\n    obj = obj()\n  File "/Users/josyulakrishna/Documents/web2py_src/web2py/applications/Amplify/controllers/default.py", line 48, in user\n    posts = db(db.user_post.posted_by_user==user).select()\n  File "/Users/josyulakrishna/Documents/web2py_src/web2py/gluon/dal.py", line 9958, in select\n    return adapter.select(self.query,fields,attributes)\n  File "/Users/josyulakrishna/Documents/web2py_src/web2py/gluon/dal.py", line 2245, in select\n    return super(SQLiteAdapter, self).select(query, fields, attributes)\n  File "/Users/josyulakrishna/Documents/web2py_src/web2py/gluon/dal.py", line 1691, in select\n    sql = self._select(query, fields, attributes)\n  File "/Users/josyulakrishna/Documents/web2py_src/web2py/gluon/dal.py", line 1601, in _select\n    sql_w = \' WHERE \' + self.expand(query) if query else \'\'\n  File "/Users/josyulakrishna/Documents/web2py_src/web2py/gluon/dal.py", line 1366, in expand\n    return op(first, second, **optional_args)\n  File "/Users/josyulakrishna/Documents/web2py_src/web2py/gluon/dal.py", line 1276, in EQ\n    self.expand(second, first.type))\n  File "/Users/josyulakrishna/Documents/web2py_src/web2py/gluon/dal.py", line 1376, in expand\n    return str(self.represent(expression,field_type))\n  File "/Users/josyulakrishna/Documents/web2py_src/web2py/gluon/dal.py", line 1789, in represent\n    obj = obj()\n  File "/Users/josyulakrishna/Documents/web2py_src/web2py/applications/Amplify/controllers/default.py", line 48, in user\n    posts = db(db.user_post.posted_by_user==user).select()\n  File "/Users/josyulakrishna/Documents/web2py_src/web2py/gluon/dal.py", line 9958, in select\n    return adapter.select(self.query,fields,attributes)\n  File "/Users/josyulakrishna/Documents/web2py_src/web2py/gluon/dal.py", line 2245, in select\n    return super(SQLiteAdapter, self).select(query, fields, attributes)\n  File "/Users/josyulakrishna/Documents/web2py_src/web2py/gluon/dal.py", line 1691, in select\n    sql = self._select(query, fields, attributes)\n  File "/Users/josyulakrishna/Documents/web2py_src/web2py/gluon/dal.py", line 1601, in _select\n    sql_w = \' WHERE \' + self.expand(query) if query else \'\'\n  File "/Users/josyulakrishna/Documents/web2py_src/web2py/gluon/dal.py", line 1366, in expand\n    return op(first, second, **optional_args)\n  File "/Users/josyulakrishna/Documents/web2py_src/web2py/gluon/dal.py", line 1276, in EQ\n    self.expand(second, first.type))\n  File "/Users/josyulakrishna/Documents/web2py_src/web2py/gluon/dal.py", line 1376, in expand\n    return str(self.represent(expression,field_type))\n  File "/Users/josyulakrishna/Documents/web2py_src/web2py/gluon/dal.py", line 1789, in represent\n    obj = obj()\n  File "/Users/josyulakrishna/Documents/web2py_src/web2py/applications/Amplify/controllers/default.py", line 48, in user\n    posts = db(db.user_post.posted_by_user==user).select()\n  File "/Users/josyulakrishna/Documents/web2py_src/web2py/gluon/dal.py", line 9958, in select\n    return adapter.select(self.query,fields,attributes)\n  File "/Users/josyulakrishna/Documents/web2py_src/web2py/gluon/dal.py", line 2245, in select\n    return super(SQLiteAdapter, self).select(query, fields, attributes)\n  File "/Users/josyulakrishna/Documents/web2py_src/web2py/gluon/dal.py", line 1691, in select\n    sql = self._select(query, fields, attributes)\n  File "/Users/josyulakrishna/Documents/web2py_src/web2py/gluon/dal.py", line 1601, in _select\n    sql_w = \' WHERE \' + self.expand(query) if query else \'\'\n  File "/Users/josyulakrishna/Documents/web2py_src/web2py/gluon/dal.py", line 1366, in expand\n    return op(first, second, **optional_args)\n  File "/Users/josyulakrishna/Documents/web2py_src/web2py/gluon/dal.py", line 1276, in EQ\n    self.expand(second, first.type))\n  File "/Users/josyulakrishna/Documents/web2py_src/web2py/gluon/dal.py", line 1376, in expand\n    return str(self.represent(expression,field_type))\n  File "/Users/josyulakrishna/Documents/web2py_src/web2py/gluon/dal.py", line 1789, in represent\n    obj = obj()\n  File "/Users/josyulakrishna/Documents/web2py_src/web2py/applications/Amplify/controllers/default.py", line 48, in user\n    posts = db(db.user_post.posted_by_user==user).select()\n  File "/Users/josyulakrishna/Documents/web2py_src/web2py/gluon/dal.py", line 9958, in select\n    return adapter.select(self.query,fields,attributes)\n  File "/Users/josyulakrishna/Documents/web2py_src/web2py/gluon/dal.py", line 2245, in select\n    return super(SQLiteAdapter, self).select(query, fields, attributes)\n  File "/Users/josyulakrishna/Documents/web2py_src/web2py/gluon/dal.py", line 1691, in select\n    sql = self._select(query, fields, attributes)\n  File "/Users/josyulakrishna/Documents/web2py_src/web2py/gluon/dal.py", line 1601, in _select\n    sql_w = \' WHERE \' + self.expand(query) if query else \'\'\n  File "/Users/josyulakrishna/Documents/web2py_src/web2py/gluon/dal.py", line 1366, in expand\n    return op(first, second, **optional_args)\n  File "/Users/josyulakrishna/Documents/web2py_src/web2py/gluon/dal.py", line 1276, in EQ\n    self.expand(second, first.type))\n  File "/Users/josyulakrishna/Documents/web2py_src/web2py/gluon/dal.py", line 1376, in expand\n    return str(self.represent(expression,field_type))\n  File "/Users/josyulakrishna/Documents/web2py_src/web2py/gluon/dal.py", line 1789, in represent\n    obj = obj()\n  File "/Users/josyulakrishna/Documents/web2py_src/web2py/applications/Amplify/controllers/default.py", line 48, in user\n    posts = db(db.user_post.posted_by_user==user).select()\n  File "/Users/josyulakrishna/Documents/web2py_src/web2py/gluon/dal.py", line 9958, in select\n    return adapter.select(self.query,fields,attributes)\n  File "/Users/josyulakrishna/Documents/web2py_src/web2py/gluon/dal.py", line 2245, in select\n    return super(SQLiteAdapter, self).select(query, fields, attributes)\n  File "/Users/josyulakrishna/Documents/web2py_src/web2py/gluon/dal.py", line 1691, in select\n    sql = self._select(query, fields, attributes)\n  File "/Users/josyulakrishna/Documents/web2py_src/web2py/gluon/dal.py", line 1601, in _select\n    sql_w = \' WHERE \' + self.expand(query) if query else \'\'\n  File "/Users/josyulakrishna/Documents/web2py_src/web2py/gluon/dal.py", line 1366, in expand\n    return op(first, second, **optional_args)\n  File "/Users/josyulakrishna/Documents/web2py_src/web2py/gluon/dal.py", line 1276, in EQ\n    self.expand(second, first.type))\n  File "/Users/josyulakrishna/Documents/web2py_src/web2py/gluon/dal.py", line 1376, in expand\n    return str(self.represent(expression,field_type))\n  File "/Users/josyulakrishna/Documents/web2py_src/web2py/gluon/dal.py", line 1789, in represent\n    obj = obj()\n  File "/Users/josyulakrishna/Documents/web2py_src/web2py/applications/Amplify/controllers/default.py", line 48, in user\n    posts = db(db.user_post.posted_by_user==user).select()\n  File "/Users/josyulakrishna/Documents/web2py_src/web2py/gluon/dal.py", line 9958, in select\n    return adapter.select(self.query,fields,attributes)\n  File "/Users/josyulakrishna/Documents/web2py_src/web2py/gluon/dal.py", line 2245, in select\n    return super(SQLiteAdapter, self).select(query, fields, attributes)\n  File "/Users/josyulakrishna/Documents/web2py_src/web2py/gluon/dal.py", line 1691, in select\n    sql = self._select(query, fields, attributes)\n  File "/Users/josyulakrishna/Documents/web2py_src/web2py/gluon/dal.py", line 1601, in _select\n    sql_w = \' WHERE \' + self.expand(query) if query else \'\'\n  File "/Users/josyulakrishna/Documents/web2py_src/web2py/gluon/dal.py", line 1366, in expand\n    return op(first, second, **optional_args)\n  File "/Users/josyulakrishna/Documents/web2py_src/web2py/gluon/dal.py", line 1276, in EQ\n    self.expand(second, first.type))\n  File "/Users/josyulakrishna/Documents/web2py_src/web2py/gluon/dal.py", line 1376, in expand\n    return str(self.represent(expression,field_type))\n  File "/Users/josyulakrishna/Documents/web2py_src/web2py/gluon/dal.py", line 1789, in represent\n    obj = obj()\n  File "/Users/josyulakrishna/Documents/web2py_src/web2py/applications/Amplify/controllers/default.py", line 48, in user\n    posts = db(db.user_post.posted_by_user==user).select()\n  File "/Users/josyulakrishna/Documents/web2py_src/web2py/gluon/dal.py", line 9958, in select\n    return adapter.select(self.query,fields,attributes)\n  File "/Users/josyulakrishna/Documents/web2py_src/web2py/gluon/dal.py", line 2245, in select\n    return super(SQLiteAdapter, self).select(query, fields, attributes)\n  File "/Users/josyulakrishna/Documents/web2py_src/web2py/gluon/dal.py", line 1691, in select\n    sql = self._select(query, fields, attributes)\n  File "/Users/josyulakrishna/Documents/web2py_src/web2py/gluon/dal.py", line 1601, in _select\n    sql_w = \' WHERE \' + self.expand(query) if query else \'\'\n  File "/Users/josyulakrishna/Documents/web2py_src/web2py/gluon/dal.py", line 1366, in expand\n    return op(first, second, **optional_args)\n  File "/Users/josyulakrishna/Documents/web2py_src/web2py/gluon/dal.py", line 1276, in EQ\n    self.expand(second, first.type))\n  File "/Users/josyulakrishna/Documents/web2py_src/web2py/gluon/dal.py", line 1376, in expand\n    return str(self.represent(expression,field_type))\n  File "/Users/josyulakrishna/Documents/web2py_src/web2py/gluon/dal.py", line 1789, in represent\n    obj = obj()\n  File "/Users/josyulakrishna/Documents/web2py_src/web2py/applications/Amplify/controllers/default.py", line 48, in user\n    posts = db(db.user_post.posted_by_user==user).select()\n  File "/Users/josyulakrishna/Documents/web2py_src/web2py/gluon/dal.py", line 9958, in select\n    return adapter.select(self.query,fields,attributes)\n  File "/Users/josyulakrishna/Documents/web2py_src/web2py/gluon/dal.py", line 2245, in select\n    return super(SQLiteAdapter, self).select(query, fields, attributes)\n  File "/Users/josyulakrishna/Documents/web2py_src/web2py/gluon/dal.py", line 1691, in select\n    sql = self._select(query, fields, attributes)\n  File "/Users/josyulakrishna/Documents/web2py_src/web2py/gluon/dal.py", line 1601, in _select\n    sql_w = \' WHERE \' + self.expand(query) if query else \'\'\n  File "/Users/josyulakrishna/Documents/web2py_src/web2py/gluon/dal.py", line 1366, in expand\n    return op(first, second, **optional_args)\n  File "/Users/josyulakrishna/Documents/web2py_src/web2py/gluon/dal.py", line 1276, in EQ\n    self.expand(second, first.type))\n  File "/Users/josyulakrishna/Documents/web2py_src/web2py/gluon/dal.py", line 1376, in expand\n    return str(self.represent(expression,field_type))\n  File "/Users/josyulakrishna/Documents/web2py_src/web2py/gluon/dal.py", line 1789, in represent\n    obj = obj()\n  File "/Users/josyulakrishna/Documents/web2py_src/web2py/applications/Amplify/controllers/default.py", line 48, in user\n    posts = db(db.user_post.posted_by_user==user).select()\n  File "/Users/josyulakrishna/Documents/web2py_src/web2py/gluon/dal.py", line 9958, in select\n    return adapter.select(self.query,fields,attributes)\n  File "/Users/josyulakrishna/Documents/web2py_src/web2py/gluon/dal.py", line 2245, in select\n    return super(SQLiteAdapter, self).select(query, fields, attributes)\n  File "/Users/josyulakrishna/Documents/web2py_src/web2py/gluon/dal.py", line 1691, in select\n    sql = self._select(query, fields, attributes)\n  File "/Users/josyulakrishna/Documents/web2py_src/web2py/gluon/dal.py", line 1601, in _select\n    sql_w = \' WHERE \' + self.expand(query) if query else \'\'\n  File "/Users/josyulakrishna/Documents/web2py_src/web2py/gluon/dal.py", line 1366, in expand\n    return op(first, second, **optional_args)\n  File "/Users/josyulakrishna/Documents/web2py_src/web2py/gluon/dal.py", line 1276, in EQ\n    self.expand(second, first.type))\n  File "/Users/josyulakrishna/Documents/web2py_src/web2py/gluon/dal.py", line 1376, in expand\n    return str(self.represent(expression,field_type))\n  File "/Users/josyulakrishna/Documents/web2py_src/web2py/gluon/dal.py", line 1789, in represent\n    obj = obj()\n  File "/Users/josyulakrishna/Documents/web2py_src/web2py/applications/Amplify/controllers/default.py", line 48, in user\n    posts = db(db.user_post.posted_by_user==user).select()\n  File "/Users/josyulakrishna/Documents/web2py_src/web2py/gluon/dal.py", line 9958, in select\n    return adapter.select(self.query,fields,attributes)\n  File "/Users/josyulakrishna/Documents/web2py_src/web2py/gluon/dal.py", line 2245, in select\n    return super(SQLiteAdapter, self).select(query, fields, attributes)\n  File "/Users/josyulakrishna/Documents/web2py_src/web2py/gluon/dal.py", line 1691, in select\n    sql = self._select(query, fields, attributes)\n  File "/Users/josyulakrishna/Documents/web2py_src/web2py/gluon/dal.py", line 1601, in _select\n    sql_w = \' WHERE \' + self.expand(query) if query else \'\'\n  File "/Users/josyulakrishna/Documents/web2py_src/web2py/gluon/dal.py", line 1366, in expand\n    return op(first, second, **optional_args)\n  File "/Users/josyulakrishna/Documents/web2py_src/web2py/gluon/dal.py", line 1276, in EQ\n    self.expand(second, first.type))\n  File "/Users/josyulakrishna/Documents/web2py_src/web2py/gluon/dal.py", line 1376, in expand\n    return str(self.represent(expression,field_type))\n  File "/Users/josyulakrishna/Documents/web2py_src/web2py/gluon/dal.py", line 1789, in represent\n    obj = obj()\n  File "/Users/josyulakrishna/Documents/web2py_src/web2py/applications/Amplify/controllers/default.py", line 48, in user\n    posts = db(db.user_post.posted_by_user==user).select()\n  File "/Users/josyulakrishna/Documents/web2py_src/web2py/gluon/dal.py", line 9958, in select\n    return adapter.select(self.query,fields,attributes)\n  File "/Users/josyulakrishna/Documents/web2py_src/web2py/gluon/dal.py", line 2245, in select\n    return super(SQLiteAdapter, self).select(query, fields, attributes)\n  File "/Users/josyulakrishna/Documents/web2py_src/web2py/gluon/dal.py", line 1691, in select\n    sql = self._select(query, fields, attributes)\n  File "/Users/josyulakrishna/Documents/web2py_src/web2py/gluon/dal.py", line 1601, in _select\n    sql_w = \' WHERE \' + self.expand(query) if query else \'\'\n  File "/Users/josyulakrishna/Documents/web2py_src/web2py/gluon/dal.py", line 1366, in expand\n    return op(first, second, **optional_args)\n  File "/Users/josyulakrishna/Documents/web2py_src/web2py/gluon/dal.py", line 1276, in EQ\n    self.expand(second, first.type))\n  File "/Users/josyulakrishna/Documents/web2py_src/web2py/gluon/dal.py", line 1376, in expand\n    return str(self.represent(expression,field_type))\n  File "/Users/josyulakrishna/Documents/web2py_src/web2py/gluon/dal.py", line 1789, in represent\n    obj = obj()\n  File "/Users/josyulakrishna/Documents/web2py_src/web2py/applications/Amplify/controllers/default.py", line 48, in user\n    posts = db(db.user_post.posted_by_user==user).select()\n  File "/Users/josyulakrishna/Documents/web2py_src/web2py/gluon/dal.py", line 9958, in select\n    return adapter.select(self.query,fields,attributes)\n  File "/Users/josyulakrishna/Documents/web2py_src/web2py/gluon/dal.py", line 2245, in select\n    return super(SQLiteAdapter, self).select(query, fields, attributes)\n  File "/Users/josyulakrishna/Documents/web2py_src/web2py/gluon/dal.py", line 1691, in select\n    sql = self._select(query, fields, attributes)\n  File "/Users/josyulakrishna/Documents/web2py_src/web2py/gluon/dal.py", line 1601, in _select\n    sql_w = \' WHERE \' + self.expand(query) if query else \'\'\n  File "/Users/josyulakrishna/Documents/web2py_src/web2py/gluon/dal.py", line 1366, in expand\n    return op(first, second, **optional_args)\n  File "/Users/josyulakrishna/Documents/web2py_src/web2py/gluon/dal.py", line 1276, in EQ\n    self.expand(second, first.type))\n  File "/Users/josyulakrishna/Documents/web2py_src/web2py/gluon/dal.py", line 1376, in expand\n    return str(self.represent(expression,field_type))\n  File "/Users/josyulakrishna/Documents/web2py_src/web2py/gluon/dal.py", line 1789, in represent\n    obj = obj()\n  File "/Users/josyulakrishna/Documents/web2py_src/web2py/applications/Amplify/controllers/default.py", line 48, in user\n    posts = db(db.user_post.posted_by_user==user).select()\n  File "/Users/josyulakrishna/Documents/web2py_src/web2py/gluon/dal.py", line 9958, in select\n    return adapter.select(self.query,fields,attributes)\n  File "/Users/josyulakrishna/Documents/web2py_src/web2py/gluon/dal.py", line 2245, in select\n    return super(SQLiteAdapter, self).select(query, fields, attributes)\n  File "/Users/josyulakrishna/Documents/web2py_src/web2py/gluon/dal.py", line 1691, in select\n    sql = self._select(query, fields, attributes)\n  File "/Users/josyulakrishna/Documents/web2py_src/web2py/gluon/dal.py", line 1601, in _select\n    sql_w = \' WHERE \' + self.expand(query) if query else \'\'\n  File "/Users/josyulakrishna/Documents/web2py_src/web2py/gluon/dal.py", line 1366, in expand\n    return op(first, second, **optional_args)\n  File "/Users/josyulakrishna/Documents/web2py_src/web2py/gluon/dal.py", line 1276, in EQ\n    self.expand(second, first.type))\n  File "/Users/josyulakrishna/Documents/web2py_src/web2py/gluon/dal.py", line 1376, in expand\n    return str(self.represent(expression,field_type))\n  File "/Users/josyulakrishna/Documents/web2py_src/web2py/gluon/dal.py", line 1789, in represent\n    obj = obj()\n  File "/Users/josyulakrishna/Documents/web2py_src/web2py/applications/Amplify/controllers/default.py", line 48, in user\n    posts = db(db.user_post.posted_by_user==user).select()\n  File "/Users/josyulakrishna/Documents/web2py_src/web2py/gluon/dal.py", line 9958, in select\n    return adapter.select(self.query,fields,attributes)\n  File "/Users/josyulakrishna/Documents/web2py_src/web2py/gluon/dal.py", line 2245, in select\n    return super(SQLiteAdapter, self).select(query, fields, attributes)\n  File "/Users/josyulakrishna/Documents/web2py_src/web2py/gluon/dal.py", line 1691, in select\n    sql = self._select(query, fields, attributes)\n  File "/Users/josyulakrishna/Documents/web2py_src/web2py/gluon/dal.py", line 1601, in _select\n    sql_w = \' WHERE \' + self.expand(query) if query else \'\'\n  File "/Users/josyulakrishna/Documents/web2py_src/web2py/gluon/dal.py", line 1366, in expand\n    return op(first, second, **optional_args)\n  File "/Users/josyulakrishna/Documents/web2py_src/web2py/gluon/dal.py", line 1276, in EQ\n    self.expand(second, first.type))\n  File "/Users/josyulakrishna/Documents/web2py_src/web2py/gluon/dal.py", line 1376, in expand\n    return str(self.represent(expression,field_type))\n  File "/Users/josyulakrishna/Documents/web2py_src/web2py/gluon/dal.py", line 1789, in represent\n    obj = obj()\n  File "/Users/josyulakrishna/Documents/web2py_src/web2py/applications/Amplify/controllers/default.py", line 48, in user\n    posts = db(db.user_post.posted_by_user==user).select()\n  File "/Users/josyulakrishna/Documents/web2py_src/web2py/gluon/dal.py", line 9958, in select\n    return adapter.select(self.query,fields,attributes)\n  File "/Users/josyulakrishna/Documents/web2py_src/web2py/gluon/dal.py", line 2245, in select\n    return super(SQLiteAdapter, self).select(query, fields, attributes)\n  File "/Users/josyulakrishna/Documents/web2py_src/web2py/gluon/dal.py", line 1691, in select\n    sql = self._select(query, fields, attributes)\n  File "/Users/josyulakrishna/Documents/web2py_src/web2py/gluon/dal.py", line 1601, in _select\n    sql_w = \' WHERE \' + self.expand(query) if query else \'\'\n  File "/Users/josyulakrishna/Documents/web2py_src/web2py/gluon/dal.py", line 1366, in expand\n    return op(first, second, **optional_args)\n  File "/Users/josyulakrishna/Documents/web2py_src/web2py/gluon/dal.py", line 1276, in EQ\n    self.expand(second, first.type))\n  File "/Users/josyulakrishna/Documents/web2py_src/web2py/gluon/dal.py", line 1376, in expand\n    return str(self.represent(expression,field_type))\n  File "/Users/josyulakrishna/Documents/web2py_src/web2py/gluon/dal.py", line 1789, in represent\n    obj = obj()\n  File "/Users/josyulakrishna/Documents/web2py_src/web2py/applications/Amplify/controllers/default.py", line 48, in user\n    posts = db(db.user_post.posted_by_user==user).select()\n  File "/Users/josyulakrishna/Documents/web2py_src/web2py/gluon/dal.py", line 9958, in select\n    return adapter.select(self.query,fields,attributes)\n  File "/Users/josyulakrishna/Documents/web2py_src/web2py/gluon/dal.py", line 2245, in select\n    return super(SQLiteAdapter, self).select(query, fields, attributes)\n  File "/Users/josyulakrishna/Documents/web2py_src/web2py/gluon/dal.py", line 1691, in select\n    sql = self._select(query, fields, attributes)\n  File "/Users/josyulakrishna/Documents/web2py_src/web2py/gluon/dal.py", line 1601, in _select\n    sql_w = \' WHERE \' + self.expand(query) if query else \'\'\n  File "/Users/josyulakrishna/Documents/web2py_src/web2py/gluon/dal.py", line 1366, in expand\n    return op(first, second, **optional_args)\n  File "/Users/josyulakrishna/Documents/web2py_src/web2py/gluon/dal.py", line 1276, in EQ\n    self.expand(second, first.type))\n  File "/Users/josyulakrishna/Documents/web2py_src/web2py/gluon/dal.py", line 1376, in expand\n    return str(self.represent(expression,field_type))\n  File "/Users/josyulakrishna/Documents/web2py_src/web2py/gluon/dal.py", line 1789, in represent\n    obj = obj()\n  File "/Users/josyulakrishna/Documents/web2py_src/web2py/applications/Amplify/controllers/default.py", line 48, in user\n    posts = db(db.user_post.posted_by_user==user).select()\n  File "/Users/josyulakrishna/Documents/web2py_src/web2py/gluon/dal.py", line 9958, in select\n    return adapter.select(self.query,fields,attributes)\n  File "/Users/josyulakrishna/Documents/web2py_src/web2py/gluon/dal.py", line 2245, in select\n    return super(SQLiteAdapter, self).select(query, fields, attributes)\n  File "/Users/josyulakrishna/Documents/web2py_src/web2py/gluon/dal.py", line 1691, in select\n    sql = self._select(query, fields, attributes)\n  File "/Users/josyulakrishna/Documents/web2py_src/web2py/gluon/dal.py", line 1601, in _select\n    sql_w = \' WHERE \' + self.expand(query) if query else \'\'\n  File "/Users/josyulakrishna/Documents/web2py_src/web2py/gluon/dal.py", line 1366, in expand\n    return op(first, second, **optional_args)\n  File "/Users/josyulakrishna/Documents/web2py_src/web2py/gluon/dal.py", line 1276, in EQ\n    self.expand(second, first.type))\n  File "/Users/josyulakrishna/Documents/web2py_src/web2py/gluon/dal.py", line 1376, in expand\n    return str(self.represent(expression,field_type))\n  File "/Users/josyulakrishna/Documents/web2py_src/web2py/gluon/dal.py", line 1789, in represent\n    obj = obj()\n  File "/Users/josyulakrishna/Documents/web2py_src/web2py/applications/Amplify/controllers/default.py", line 48, in user\n    posts = db(db.user_post.posted_by_user==user).select()\n  File "/Users/josyulakrishna/Documents/web2py_src/web2py/gluon/dal.py", line 9958, in select\n    return adapter.select(self.query,fields,attributes)\n  File "/Users/josyulakrishna/Documents/web2py_src/web2py/gluon/dal.py", line 2245, in select\n    return super(SQLiteAdapter, self).select(query, fields, attributes)\n  File "/Users/josyulakrishna/Documents/web2py_src/web2py/gluon/dal.py", line 1691, in select\n    sql = self._select(query, fields, attributes)\n  File "/Users/josyulakrishna/Documents/web2py_src/web2py/gluon/dal.py", line 1601, in _select\n    sql_w = \' WHERE \' + self.expand(query) if query else \'\'\n  File "/Users/josyulakrishna/Documents/web2py_src/web2py/gluon/dal.py", line 1366, in expand\n    return op(first, second, **optional_args)\n  File "/Users/josyulakrishna/Documents/web2py_src/web2py/gluon/dal.py", line 1276, in EQ\n    self.expand(second, first.type))\n  File "/Users/josyulakrishna/Documents/web2py_src/web2py/gluon/dal.py", line 1376, in expand\n    return str(self.represent(expression,field_type))\n  File "/Users/josyulakrishna/Documents/web2py_src/web2py/gluon/dal.py", line 1789, in represent\n    obj = obj()\n  File "/Users/josyulakrishna/Documents/web2py_src/web2py/applications/Amplify/controllers/default.py", line 48, in user\n    posts = db(db.user_post.posted_by_user==user).select()\n  File "/Users/josyulakrishna/Documents/web2py_src/web2py/gluon/dal.py", line 9958, in select\n    return adapter.select(self.query,fields,attributes)\n  File "/Users/josyulakrishna/Documents/web2py_src/web2py/gluon/dal.py", line 2245, in select\n    return super(SQLiteAdapter, self).select(query, fields, attributes)\n  File "/Users/josyulakrishna/Documents/web2py_src/web2py/gluon/dal.py", line 1691, in select\n    sql = self._select(query, fields, attributes)\n  File "/Users/josyulakrishna/Documents/web2py_src/web2py/gluon/dal.py", line 1601, in _select\n    sql_w = \' WHERE \' + self.expand(query) if query else \'\'\n  File "/Users/josyulakrishna/Documents/web2py_src/web2py/gluon/dal.py", line 1366, in expand\n    return op(first, second, **optional_args)\n  File "/Users/josyulakrishna/Documents/web2py_src/web2py/gluon/dal.py", line 1276, in EQ\n    self.expand(second, first.type))\n  File "/Users/josyulakrishna/Documents/web2py_src/web2py/gluon/dal.py", line 1376, in expand\n    return str(self.represent(expression,field_type))\n  File "/Users/josyulakrishna/Documents/web2py_src/web2py/gluon/dal.py", line 1789, in represent\n    obj = obj()\n  File "/Users/josyulakrishna/Documents/web2py_src/web2py/applications/Amplify/controllers/default.py", line 48, in user\n    posts = db(db.user_post.posted_by_user==user).select()\n  File "/Users/josyulakrishna/Documents/web2py_src/web2py/gluon/dal.py", line 9958, in select\n    return adapter.select(self.query,fields,attributes)\n  File "/Users/josyulakrishna/Documents/web2py_src/web2py/gluon/dal.py", line 2245, in select\n    return super(SQLiteAdapter, self).select(query, fields, attributes)\n  File "/Users/josyulakrishna/Documents/web2py_src/web2py/gluon/dal.py", line 1691, in select\n    sql = self._select(query, fields, attributes)\n  File "/Users/josyulakrishna/Documents/web2py_src/web2py/gluon/dal.py", line 1601, in _select\n    sql_w = \' WHERE \' + self.expand(query) if query else \'\'\n  File "/Users/josyulakrishna/Documents/web2py_src/web2py/gluon/dal.py", line 1366, in expand\n    return op(first, second, **optional_args)\n  File "/Users/josyulakrishna/Documents/web2py_src/web2py/gluon/dal.py", line 1276, in EQ\n    self.expand(second, first.type))\n  File "/Users/josyulakrishna/Documents/web2py_src/web2py/gluon/dal.py", line 1376, in expand\n    return str(self.represent(expression,field_type))\n  File "/Users/josyulakrishna/Documents/web2py_src/web2py/gluon/dal.py", line 1789, in represent\n    obj = obj()\n  File "/Users/josyulakrishna/Documents/web2py_src/web2py/applications/Amplify/controllers/default.py", line 48, in user\n    posts = db(db.user_post.posted_by_user==user).select()\n  File "/Users/josyulakrishna/Documents/web2py_src/web2py/gluon/dal.py", line 9958, in select\n    return adapter.select(self.query,fields,attributes)\n  File "/Users/josyulakrishna/Documents/web2py_src/web2py/gluon/dal.py", line 2245, in select\n    return super(SQLiteAdapter, self).select(query, fields, attributes)\n  File "/Users/josyulakrishna/Documents/web2py_src/web2py/gluon/dal.py", line 1691, in select\n    sql = self._select(query, fields, attributes)\n  File "/Users/josyulakrishna/Documents/web2py_src/web2py/gluon/dal.py", line 1601, in _select\n    sql_w = \' WHERE \' + self.expand(query) if query else \'\'\n  File "/Users/josyulakrishna/Documents/web2py_src/web2py/gluon/dal.py", line 1366, in expand\n    return op(first, second, **optional_args)\n  File "/Users/josyulakrishna/Documents/web2py_src/web2py/gluon/dal.py", line 1276, in EQ\n    self.expand(second, first.type))\n  File "/Users/josyulakrishna/Documents/web2py_src/web2py/gluon/dal.py", line 1376, in expand\n    return str(self.represent(expression,field_type))\n  File "/Users/josyulakrishna/Documents/web2py_src/web2py/gluon/dal.py", line 1789, in represent\n    obj = obj()\n  File "/Users/josyulakrishna/Documents/web2py_src/web2py/applications/Amplify/controllers/default.py", line 48, in user\n    posts = db(db.user_post.posted_by_user==user).select()\n  File "/Users/josyulakrishna/Documents/web2py_src/web2py/gluon/dal.py", line 9958, in select\n    return adapter.select(self.query,fields,attributes)\n  File "/Users/josyulakrishna/Documents/web2py_src/web2py/gluon/dal.py", line 2245, in select\n    return super(SQLiteAdapter, self).select(query, fields, attributes)\n  File "/Users/josyulakrishna/Documents/web2py_src/web2py/gluon/dal.py", line 1691, in select\n    sql = self._select(query, fields, attributes)\n  File "/Users/josyulakrishna/Documents/web2py_src/web2py/gluon/dal.py", line 1601, in _select\n    sql_w = \' WHERE \' + self.expand(query) if query else \'\'\n  File "/Users/josyulakrishna/Documents/web2py_src/web2py/gluon/dal.py", line 1366, in expand\n    return op(first, second, **optional_args)\n  File "/Users/josyulakrishna/Documents/web2py_src/web2py/gluon/dal.py", line 1276, in EQ\n    self.expand(second, first.type))\n  File "/Users/josyulakrishna/Documents/web2py_src/web2py/gluon/dal.py", line 1376, in expand\n    return str(self.represent(expression,field_type))\n  File "/Users/josyulakrishna/Documents/web2py_src/web2py/gluon/dal.py", line 1789, in represent\n    obj = obj()\n  File "/Users/josyulakrishna/Documents/web2py_src/web2py/applications/Amplify/controllers/default.py", line 48, in user\n    posts = db(db.user_post.posted_by_user==user).select()\n  File "/Users/josyulakrishna/Documents/web2py_src/web2py/gluon/dal.py", line 9958, in select\n    return adapter.select(self.query,fields,attributes)\n  File "/Users/josyulakrishna/Documents/web2py_src/web2py/gluon/dal.py", line 2245, in select\n    return super(SQLiteAdapter, self).select(query, fields, attributes)\n  File "/Users/josyulakrishna/Documents/web2py_src/web2py/gluon/dal.py", line 1691, in select\n    sql = self._select(query, fields, attributes)\n  File "/Users/josyulakrishna/Documents/web2py_src/web2py/gluon/dal.py", line 1601, in _select\n    sql_w = \' WHERE \' + self.expand(query) if query else \'\'\n  File "/Users/josyulakrishna/Documents/web2py_src/web2py/gluon/dal.py", line 1366, in expand\n    return op(first, second, **optional_args)\n  File "/Users/josyulakrishna/Documents/web2py_src/web2py/gluon/dal.py", line 1276, in EQ\n    self.expand(second, first.type))\n  File "/Users/josyulakrishna/Documents/web2py_src/web2py/gluon/dal.py", line 1376, in expand\n    return str(self.represent(expression,field_type))\n  File "/Users/josyulakrishna/Documents/web2py_src/web2py/gluon/dal.py", line 1789, in represent\n    obj = obj()\n  File "/Users/josyulakrishna/Documents/web2py_src/web2py/applications/Amplify/controllers/default.py", line 48, in user\n    posts = db(db.user_post.posted_by_user==user).select()\n  File "/Users/josyulakrishna/Documents/web2py_src/web2py/gluon/dal.py", line 9958, in select\n    return adapter.select(self.query,fields,attributes)\n  File "/Users/josyulakrishna/Documents/web2py_src/web2py/gluon/dal.py", line 2245, in select\n    return super(SQLiteAdapter, self).select(query, fields, attributes)\n  File "/Users/josyulakrishna/Documents/web2py_src/web2py/gluon/dal.py", line 1691, in select\n    sql = self._select(query, fields, attributes)\n  File "/Users/josyulakrishna/Documents/web2py_src/web2py/gluon/dal.py", line 1601, in _select\n    sql_w = \' WHERE \' + self.expand(query) if query else \'\'\n  File "/Users/josyulakrishna/Documents/web2py_src/web2py/gluon/dal.py", line 1366, in expand\n    return op(first, second, **optional_args)\n  File "/Users/josyulakrishna/Documents/web2py_src/web2py/gluon/dal.py", line 1276, in EQ\n    self.expand(second, first.type))\n  File "/Users/josyulakrishna/Documents/web2py_src/web2py/gluon/dal.py", line 1376, in expand\n    return str(self.represent(expression,field_type))\n  File "/Users/josyulakrishna/Documents/web2py_src/web2py/gluon/dal.py", line 1789, in represent\n    obj = obj()\n  File "/Users/josyulakrishna/Documents/web2py_src/web2py/applications/Amplify/controllers/default.py", line 48, in user\n    posts = db(db.user_post.posted_by_user==user).select()\n  File "/Users/josyulakrishna/Documents/web2py_src/web2py/gluon/dal.py", line 9958, in select\n    return adapter.select(self.query,fields,attributes)\n  File "/Users/josyulakrishna/Documents/web2py_src/web2py/gluon/dal.py", line 2245, in select\n    return super(SQLiteAdapter, self).select(query, fields, attributes)\n  File "/Users/josyulakrishna/Documents/web2py_src/web2py/gluon/dal.py", line 1691, in select\n    sql = self._select(query, fields, attributes)\n  File "/Users/josyulakrishna/Documents/web2py_src/web2py/gluon/dal.py", line 1601, in _select\n    sql_w = \' WHERE \' + self.expand(query) if query else \'\'\n  File "/Users/josyulakrishna/Documents/web2py_src/web2py/gluon/dal.py", line 1366, in expand\n    return op(first, second, **optional_args)\n  File "/Users/josyulakrishna/Documents/web2py_src/web2py/gluon/dal.py", line 1276, in EQ\n    self.expand(second, first.type))\n  File "/Users/josyulakrishna/Documents/web2py_src/web2py/gluon/dal.py", line 1376, in expand\n    return str(self.represent(expression,field_type))\n  File "/Users/josyulakrishna/Documents/web2py_src/web2py/gluon/dal.py", line 1789, in represent\n    obj = obj()\n  File "/Users/josyulakrishna/Documents/web2py_src/web2py/applications/Amplify/controllers/default.py", line 48, in user\n    posts = db(db.user_post.posted_by_user==user).select()\n  File "/Users/josyulakrishna/Documents/web2py_src/web2py/gluon/dal.py", line 9958, in select\n    return adapter.select(self.query,fields,attributes)\n  File "/Users/josyulakrishna/Documents/web2py_src/web2py/gluon/dal.py", line 2245, in select\n    return super(SQLiteAdapter, self).select(query, fields, attributes)\n  File "/Users/josyulakrishna/Documents/web2py_src/web2py/gluon/dal.py", line 1691, in select\n    sql = self._select(query, fields, attributes)\n  File "/Users/josyulakrishna/Documents/web2py_src/web2py/gluon/dal.py", line 1601, in _select\n    sql_w = \' WHERE \' + self.expand(query) if query else \'\'\n  File "/Users/josyulakrishna/Documents/web2py_src/web2py/gluon/dal.py", line 1366, in expand\n    return op(first, second, **optional_args)\n  File "/Users/josyulakrishna/Documents/web2py_src/web2py/gluon/dal.py", line 1276, in EQ\n    self.expand(second, first.type))\n  File "/Users/josyulakrishna/Documents/web2py_src/web2py/gluon/dal.py", line 1376, in expand\n    return str(self.represent(expression,field_type))\n  File "/Users/josyulakrishna/Documents/web2py_src/web2py/gluon/dal.py", line 1789, in represent\n    obj = obj()\n  File "/Users/josyulakrishna/Documents/web2py_src/web2py/applications/Amplify/controllers/default.py", line 48, in user\n    posts = db(db.user_post.posted_by_user==user).select()\n  File "/Users/josyulakrishna/Documents/web2py_src/web2py/gluon/dal.py", line 9958, in select\n    return adapter.select(self.query,fields,attributes)\n  File "/Users/josyulakrishna/Documents/web2py_src/web2py/gluon/dal.py", line 2245, in select\n    return super(SQLiteAdapter, self).select(query, fields, attributes)\n  File "/Users/josyulakrishna/Documents/web2py_src/web2py/gluon/dal.py", line 1691, in select\n    sql = self._select(query, fields, attributes)\n  File "/Users/josyulakrishna/Documents/web2py_src/web2py/gluon/dal.py", line 1601, in _select\n    sql_w = \' WHERE \' + self.expand(query) if query else \'\'\n  File "/Users/josyulakrishna/Documents/web2py_src/web2py/gluon/dal.py", line 1366, in expand\n    return op(first, second, **optional_args)\n  File "/Users/josyulakrishna/Documents/web2py_src/web2py/gluon/dal.py", line 1276, in EQ\n    self.expand(second, first.type))\n  File "/Users/josyulakrishna/Documents/web2py_src/web2py/gluon/dal.py", line 1376, in expand\n    return str(self.represent(expression,field_type))\n  File "/Users/josyulakrishna/Documents/web2py_src/web2py/gluon/dal.py", line 1789, in represent\n    obj = obj()\n  File "/Users/josyulakrishna/Documents/web2py_src/web2py/applications/Amplify/controllers/default.py", line 48, in user\n    posts = db(db.user_post.posted_by_user==user).select()\n  File "/Users/josyulakrishna/Documents/web2py_src/web2py/gluon/dal.py", line 9958, in select\n    return adapter.select(self.query,fields,attributes)\n  File "/Users/josyulakrishna/Documents/web2py_src/web2py/gluon/dal.py", line 2245, in select\n    return super(SQLiteAdapter, self).select(query, fields, attributes)\n  File "/Users/josyulakrishna/Documents/web2py_src/web2py/gluon/dal.py", line 1691, in select\n    sql = self._select(query, fields, attributes)\n  File "/Users/josyulakrishna/Documents/web2py_src/web2py/gluon/dal.py", line 1601, in _select\n    sql_w = \' WHERE \' + self.expand(query) if query else \'\'\n  File "/Users/josyulakrishna/Documents/web2py_src/web2py/gluon/dal.py", line 1366, in expand\n    return op(first, second, **optional_args)\n  File "/Users/josyulakrishna/Documents/web2py_src/web2py/gluon/dal.py", line 1276, in EQ\n    self.expand(second, first.type))\n  File "/Users/josyulakrishna/Documents/web2py_src/web2py/gluon/dal.py", line 1376, in expand\n    return str(self.represent(expression,field_type))\n  File "/Users/josyulakrishna/Documents/web2py_src/web2py/gluon/dal.py", line 1789, in represent\n    obj = obj()\n  File "/Users/josyulakrishna/Documents/web2py_src/web2py/applications/Amplify/controllers/default.py", line 48, in user\n    posts = db(db.user_post.posted_by_user==user).select()\n  File "/Users/josyulakrishna/Documents/web2py_src/web2py/gluon/dal.py", line 9958, in select\n    return adapter.select(self.query,fields,attributes)\n  File "/Users/josyulakrishna/Documents/web2py_src/web2py/gluon/dal.py", line 2245, in select\n    return super(SQLiteAdapter, self).select(query, fields, attributes)\n  File "/Users/josyulakrishna/Documents/web2py_src/web2py/gluon/dal.py", line 1691, in select\n    sql = self._select(query, fields, attributes)\n  File "/Users/josyulakrishna/Documents/web2py_src/web2py/gluon/dal.py", line 1601, in _select\n    sql_w = \' WHERE \' + self.expand(query) if query else \'\'\n  File "/Users/josyulakrishna/Documents/web2py_src/web2py/gluon/dal.py", line 1366, in expand\n    return op(first, second, **optional_args)\n  File "/Users/josyulakrishna/Documents/web2py_src/web2py/gluon/dal.py", line 1276, in EQ\n    self.expand(second, first.type))\n  File "/Users/josyulakrishna/Documents/web2py_src/web2py/gluon/dal.py", line 1376, in expand\n    return str(self.represent(expression,field_type))\n  File "/Users/josyulakrishna/Documents/web2py_src/web2py/gluon/dal.py", line 1789, in represent\n    obj = obj()\n  File "/Users/josyulakrishna/Documents/web2py_src/web2py/applications/Amplify/controllers/default.py", line 48, in user\n    posts = db(db.user_post.posted_by_user==user).select()\n  File "/Users/josyulakrishna/Documents/web2py_src/web2py/gluon/dal.py", line 9958, in select\n    return adapter.select(self.query,fields,attributes)\n  File "/Users/josyulakrishna/Documents/web2py_src/web2py/gluon/dal.py", line 2245, in select\n    return super(SQLiteAdapter, self).select(query, fields, attributes)\n  File "/Users/josyulakrishna/Documents/web2py_src/web2py/gluon/dal.py", line 1691, in select\n    sql = self._select(query, fields, attributes)\n  File "/Users/josyulakrishna/Documents/web2py_src/web2py/gluon/dal.py", line 1601, in _select\n    sql_w = \' WHERE \' + self.expand(query) if query else \'\'\n  File "/Users/josyulakrishna/Documents/web2py_src/web2py/gluon/dal.py", line 1366, in expand\n    return op(first, second, **optional_args)\n  File "/Users/josyulakrishna/Documents/web2py_src/web2py/gluon/dal.py", line 1276, in EQ\n    self.expand(second, first.type))\n  File "/Users/josyulakrishna/Documents/web2py_src/web2py/gluon/dal.py", line 1376, in expand\n    return str(self.represent(expression,field_type))\n  File "/Users/josyulakrishna/Documents/web2py_src/web2py/gluon/dal.py", line 1789, in represent\n    obj = obj()\n  File "/Users/josyulakrishna/Documents/web2py_src/web2py/applications/Amplify/controllers/default.py", line 48, in user\n    posts = db(db.user_post.posted_by_user==user).select()\n  File "/Users/josyulakrishna/Documents/web2py_src/web2py/gluon/dal.py", line 9958, in select\n    return adapter.select(self.query,fields,attributes)\n  File "/Users/josyulakrishna/Documents/web2py_src/web2py/gluon/dal.py", line 2245, in select\n    return super(SQLiteAdapter, self).select(query, fields, attributes)\n  File "/Users/josyulakrishna/Documents/web2py_src/web2py/gluon/dal.py", line 1691, in select\n    sql = self._select(query, fields, attributes)\n  File "/Users/josyulakrishna/Documents/web2py_src/web2py/gluon/dal.py", line 1601, in _select\n    sql_w = \' WHERE \' + self.expand(query) if query else \'\'\n  File "/Users/josyulakrishna/Documents/web2py_src/web2py/gluon/dal.py", line 1366, in expand\n    return op(first, second, **optional_args)\n  File "/Users/josyulakrishna/Documents/web2py_src/web2py/gluon/dal.py", line 1276, in EQ\n    self.expand(second, first.type))\n  File "/Users/josyulakrishna/Documents/web2py_src/web2py/gluon/dal.py", line 1376, in expand\n    return str(self.represent(expression,field_type))\n  File "/Users/josyulakrishna/Documents/web2py_src/web2py/gluon/dal.py", line 1789, in represent\n    obj = obj()\n  File "/Users/josyulakrishna/Documents/web2py_src/web2py/applications/Amplify/controllers/default.py", line 48, in user\n    posts = db(db.user_post.posted_by_user==user).select()\n  File "/Users/josyulakrishna/Documents/web2py_src/web2py/gluon/dal.py", line 9958, in select\n    return adapter.select(self.query,fields,attributes)\n  File "/Users/josyulakrishna/Documents/web2py_src/web2py/gluon/dal.py", line 2245, in select\n    return super(SQLiteAdapter, self).select(query, fields, attributes)\n  File "/Users/josyulakrishna/Documents/web2py_src/web2py/gluon/dal.py", line 1691, in select\n    sql = self._select(query, fields, attributes)\n  File "/Users/josyulakrishna/Documents/web2py_src/web2py/gluon/dal.py", line 1601, in _select\n    sql_w = \' WHERE \' + self.expand(query) if query else \'\'\n  File "/Users/josyulakrishna/Documents/web2py_src/web2py/gluon/dal.py", line 1366, in expand\n    return op(first, second, **optional_args)\n  File "/Users/josyulakrishna/Documents/web2py_src/web2py/gluon/dal.py", line 1276, in EQ\n    self.expand(second, first.type))\n  File "/Users/josyulakrishna/Documents/web2py_src/web2py/gluon/dal.py", line 1376, in expand\n    return str(self.represent(expression,field_type))\n  File "/Users/josyulakrishna/Documents/web2py_src/web2py/gluon/dal.py", line 1789, in represent\n    obj = obj()\n  File "/Users/josyulakrishna/Documents/web2py_src/web2py/applications/Amplify/controllers/default.py", line 48, in user\n    posts = db(db.user_post.posted_by_user==user).select()\n  File "/Users/josyulakrishna/Documents/web2py_src/web2py/gluon/dal.py", line 9958, in select\n    return adapter.select(self.query,fields,attributes)\n  File "/Users/josyulakrishna/Documents/web2py_src/web2py/gluon/dal.py", line 2245, in select\n    return super(SQLiteAdapter, self).select(query, fields, attributes)\n  File "/Users/josyulakrishna/Documents/web2py_src/web2py/gluon/dal.py", line 1691, in select\n    sql = self._select(query, fields, attributes)\n  File "/Users/josyulakrishna/Documents/web2py_src/web2py/gluon/dal.py", line 1601, in _select\n    sql_w = \' WHERE \' + self.expand(query) if query else \'\'\n  File "/Users/josyulakrishna/Documents/web2py_src/web2py/gluon/dal.py", line 1366, in expand\n    return op(first, second, **optional_args)\n  File "/Users/josyulakrishna/Documents/web2py_src/web2py/gluon/dal.py", line 1276, in EQ\n    self.expand(second, first.type))\n  File "/Users/josyulakrishna/Documents/web2py_src/web2py/gluon/dal.py", line 1376, in expand\n    return str(self.represent(expression,field_type))\n  File "/Users/josyulakrishna/Documents/web2py_src/web2py/gluon/dal.py", line 1789, in represent\n    obj = obj()\n  File "/Users/josyulakrishna/Documents/web2py_src/web2py/applications/Amplify/controllers/default.py", line 48, in user\n    posts = db(db.user_post.posted_by_user==user).select()\n  File "/Users/josyulakrishna/Documents/web2py_src/web2py/gluon/dal.py", line 9958, in select\n    return adapter.select(self.query,fields,attributes)\n  File "/Users/josyulakrishna/Documents/web2py_src/web2py/gluon/dal.py", line 2245, in select\n    return super(SQLiteAdapter, self).select(query, fields, attributes)\n  File "/Users/josyulakrishna/Documents/web2py_src/web2py/gluon/dal.py", line 1691, in select\n    sql = self._select(query, fields, attributes)\n  File "/Users/josyulakrishna/Documents/web2py_src/web2py/gluon/dal.py", line 1601, in _select\n    sql_w = \' WHERE \' + self.expand(query) if query else \'\'\n  File "/Users/josyulakrishna/Documents/web2py_src/web2py/gluon/dal.py", line 1366, in expand\n    return op(first, second, **optional_args)\n  File "/Users/josyulakrishna/Documents/web2py_src/web2py/gluon/dal.py", line 1276, in EQ\n    self.expand(second, first.type))\n  File "/Users/josyulakrishna/Documents/web2py_src/web2py/gluon/dal.py", line 1376, in expand\n    return str(self.represent(expression,field_type))\n  File "/Users/josyulakrishna/Documents/web2py_src/web2py/gluon/dal.py", line 1789, in represent\n    obj = obj()\n  File "/Users/josyulakrishna/Documents/web2py_src/web2py/applications/Amplify/controllers/default.py", line 48, in user\n    posts = db(db.user_post.posted_by_user==user).select()\n  File "/Users/josyulakrishna/Documents/web2py_src/web2py/gluon/dal.py", line 9958, in select\n    return adapter.select(self.query,fields,attributes)\n  File "/Users/josyulakrishna/Documents/web2py_src/web2py/gluon/dal.py", line 2245, in select\n    return super(SQLiteAdapter, self).select(query, fields, attributes)\n  File "/Users/josyulakrishna/Documents/web2py_src/web2py/gluon/dal.py", line 1691, in select\n    sql = self._select(query, fields, attributes)\n  File "/Users/josyulakrishna/Documents/web2py_src/web2py/gluon/dal.py", line 1601, in _select\n    sql_w = \' WHERE \' + self.expand(query) if query else \'\'\n  File "/Users/josyulakrishna/Documents/web2py_src/web2py/gluon/dal.py", line 1366, in expand\n    return op(first, second, **optional_args)\n  File "/Users/josyulakrishna/Documents/web2py_src/web2py/gluon/dal.py", line 1276, in EQ\n    self.expand(second, first.type))\n  File "/Users/josyulakrishna/Documents/web2py_src/web2py/gluon/dal.py", line 1376, in expand\n    return str(self.represent(expression,field_type))\n  File "/Users/josyulakrishna/Documents/web2py_src/web2py/gluon/dal.py", line 1789, in represent\n    obj = obj()\n  File "/Users/josyulakrishna/Documents/web2py_src/web2py/applications/Amplify/controllers/default.py", line 48, in user\n    posts = db(db.user_post.posted_by_user==user).select()\n  File "/Users/josyulakrishna/Documents/web2py_src/web2py/gluon/dal.py", line 9958, in select\n    return adapter.select(self.query,fields,attributes)\n  File "/Users/josyulakrishna/Documents/web2py_src/web2py/gluon/dal.py", line 2245, in select\n    return super(SQLiteAdapter, self).select(query, fields, attributes)\n  File "/Users/josyulakrishna/Documents/web2py_src/web2py/gluon/dal.py", line 1691, in select\n    sql = self._select(query, fields, attributes)\n  File "/Users/josyulakrishna/Documents/web2py_src/web2py/gluon/dal.py", line 1601, in _select\n    sql_w = \' WHERE \' + self.expand(query) if query else \'\'\n  File "/Users/josyulakrishna/Documents/web2py_src/web2py/gluon/dal.py", line 1366, in expand\n    return op(first, second, **optional_args)\n  File "/Users/josyulakrishna/Documents/web2py_src/web2py/gluon/dal.py", line 1276, in EQ\n    self.expand(second, first.type))\n  File "/Users/josyulakrishna/Documents/web2py_src/web2py/gluon/dal.py", line 1376, in expand\n    return str(self.represent(expression,field_type))\n  File "/Users/josyulakrishna/Documents/web2py_src/web2py/gluon/dal.py", line 1789, in represent\n    obj = obj()\n  File "/Users/josyulakrishna/Documents/web2py_src/web2py/applications/Amplify/controllers/default.py", line 48, in user\n    posts = db(db.user_post.posted_by_user==user).select()\n  File "/Users/josyulakrishna/Documents/web2py_src/web2py/gluon/dal.py", line 9958, in select\n    return adapter.select(self.query,fields,attributes)\n  File "/Users/josyulakrishna/Documents/web2py_src/web2py/gluon/dal.py", line 2245, in select\n    return super(SQLiteAdapter, self).select(query, fields, attributes)\n  File "/Users/josyulakrishna/Documents/web2py_src/web2py/gluon/dal.py", line 1691, in select\n    sql = self._select(query, fields, attributes)\n  File "/Users/josyulakrishna/Documents/web2py_src/web2py/gluon/dal.py", line 1601, in _select\n    sql_w = \' WHERE \' + self.expand(query) if query else \'\'\n  File "/Users/josyulakrishna/Documents/web2py_src/web2py/gluon/dal.py", line 1366, in expand\n    return op(first, second, **optional_args)\n  File "/Users/josyulakrishna/Documents/web2py_src/web2py/gluon/dal.py", line 1276, in EQ\n    self.expand(second, first.type))\n  File "/Users/josyulakrishna/Documents/web2py_src/web2py/gluon/dal.py", line 1376, in expand\n    return str(self.represent(expression,field_type))\n  File "/Users/josyulakrishna/Documents/web2py_src/web2py/gluon/dal.py", line 1789, in represent\n    obj = obj()\n  File "/Users/josyulakrishna/Documents/web2py_src/web2py/applications/Amplify/controllers/default.py", line 48, in user\n    posts = db(db.user_post.posted_by_user==user).select()\n  File "/Users/josyulakrishna/Documents/web2py_src/web2py/gluon/dal.py", line 9958, in select\n    return adapter.select(self.query,fields,attributes)\n  File "/Users/josyulakrishna/Documents/web2py_src/web2py/gluon/dal.py", line 2245, in select\n    return super(SQLiteAdapter, self).select(query, fields, attributes)\n  File "/Users/josyulakrishna/Documents/web2py_src/web2py/gluon/dal.py", line 1691, in select\n    sql = self._select(query, fields, attributes)\n  File "/Users/josyulakrishna/Documents/web2py_src/web2py/gluon/dal.py", line 1601, in _select\n    sql_w = \' WHERE \' + self.expand(query) if query else \'\'\n  File "/Users/josyulakrishna/Documents/web2py_src/web2py/gluon/dal.py", line 1366, in expand\n    return op(first, second, **optional_args)\n  File "/Users/josyulakrishna/Documents/web2py_src/web2py/gluon/dal.py", line 1276, in EQ\n    self.expand(second, first.type))\n  File "/Users/josyulakrishna/Documents/web2py_src/web2py/gluon/dal.py", line 1376, in expand\n    return str(self.represent(expression,field_type))\n  File "/Users/josyulakrishna/Documents/web2py_src/web2py/gluon/dal.py", line 1789, in represent\n    obj = obj()\n  File "/Users/josyulakrishna/Documents/web2py_src/web2py/applications/Amplify/controllers/default.py", line 48, in user\n    posts = db(db.user_post.posted_by_user==user).select()\n  File "/Users/josyulakrishna/Documents/web2py_src/web2py/gluon/dal.py", line 9958, in select\n    return adapter.select(self.query,fields,attributes)\n  File "/Users/josyulakrishna/Documents/web2py_src/web2py/gluon/dal.py", line 2245, in select\n    return super(SQLiteAdapter, self).select(query, fields, attributes)\n  File "/Users/josyulakrishna/Documents/web2py_src/web2py/gluon/dal.py", line 1691, in select\n    sql = self._select(query, fields, attributes)\n  File "/Users/josyulakrishna/Documents/web2py_src/web2py/gluon/dal.py", line 1601, in _select\n    sql_w = \' WHERE \' + self.expand(query) if query else \'\'\n  File "/Users/josyulakrishna/Documents/web2py_src/web2py/gluon/dal.py", line 1366, in expand\n    return op(first, second, **optional_args)\n  File "/Users/josyulakrishna/Documents/web2py_src/web2py/gluon/dal.py", line 1276, in EQ\n    self.expand(second, first.type))\n  File "/Users/josyulakrishna/Documents/web2py_src/web2py/gluon/dal.py", line 1376, in expand\n    return str(self.represent(expression,field_type))\n  File "/Users/josyulakrishna/Documents/web2py_src/web2py/gluon/dal.py", line 1789, in represent\n    obj = obj()\n  File "/Users/josyulakrishna/Documents/web2py_src/web2py/applications/Amplify/controllers/default.py", line 48, in user\n    posts = db(db.user_post.posted_by_user==user).select()\n  File "/Users/josyulakrishna/Documents/web2py_src/web2py/gluon/dal.py", line 9958, in select\n    return adapter.select(self.query,fields,attributes)\n  File "/Users/josyulakrishna/Documents/web2py_src/web2py/gluon/dal.py", line 2245, in select\n    return super(SQLiteAdapter, self).select(query, fields, attributes)\n  File "/Users/josyulakrishna/Documents/web2py_src/web2py/gluon/dal.py", line 1691, in select\n    sql = self._select(query, fields, attributes)\n  File "/Users/josyulakrishna/Documents/web2py_src/web2py/gluon/dal.py", line 1601, in _select\n    sql_w = \' WHERE \' + self.expand(query) if query else \'\'\n  File "/Users/josyulakrishna/Documents/web2py_src/web2py/gluon/dal.py", line 1366, in expand\n    return op(first, second, **optional_args)\n  File "/Users/josyulakrishna/Documents/web2py_src/web2py/gluon/dal.py", line 1276, in EQ\n    self.expand(second, first.type))\n  File "/Users/josyulakrishna/Documents/web2py_src/web2py/gluon/dal.py", line 1376, in expand\n    return str(self.represent(expression,field_type))\n  File "/Users/josyulakrishna/Documents/web2py_src/web2py/gluon/dal.py", line 1789, in represent\n    obj = obj()\n  File "/Users/josyulakrishna/Documents/web2py_src/web2py/applications/Amplify/controllers/default.py", line 48, in user\n    posts = db(db.user_post.posted_by_user==user).select()\n  File "/Users/josyulakrishna/Documents/web2py_src/web2py/gluon/dal.py", line 9958, in select\n    return adapter.select(self.query,fields,attributes)\n  File "/Users/josyulakrishna/Documents/web2py_src/web2py/gluon/dal.py", line 2245, in select\n    return super(SQLiteAdapter, self).select(query, fields, attributes)\n  File "/Users/josyulakrishna/Documents/web2py_src/web2py/gluon/dal.py", line 1691, in select\n    sql = self._select(query, fields, attributes)\n  File "/Users/josyulakrishna/Documents/web2py_src/web2py/gluon/dal.py", line 1601, in _select\n    sql_w = \' WHERE \' + self.expand(query) if query else \'\'\n  File "/Users/josyulakrishna/Documents/web2py_src/web2py/gluon/dal.py", line 1366, in expand\n    return op(first, second, **optional_args)\n  File "/Users/josyulakrishna/Documents/web2py_src/web2py/gluon/dal.py", line 1276, in EQ\n    self.expand(second, first.type))\n  File "/Users/josyulakrishna/Documents/web2py_src/web2py/gluon/dal.py", line 1376, in expand\n    return str(self.represent(expression,field_type))\n  File "/Users/josyulakrishna/Documents/web2py_src/web2py/gluon/dal.py", line 1789, in represent\n    obj = obj()\n  File "/Users/josyulakrishna/Documents/web2py_src/web2py/applications/Amplify/controllers/default.py", line 48, in user\n    posts = db(db.user_post.posted_by_user==user).select()\n  File "/Users/josyulakrishna/Documents/web2py_src/web2py/gluon/dal.py", line 9958, in select\n    return adapter.select(self.query,fields,attributes)\n  File "/Users/josyulakrishna/Documents/web2py_src/web2py/gluon/dal.py", line 2245, in select\n    return super(SQLiteAdapter, self).select(query, fields, attributes)\n  File "/Users/josyulakrishna/Documents/web2py_src/web2py/gluon/dal.py", line 1691, in select\n    sql = self._select(query, fields, attributes)\n  File "/Users/josyulakrishna/Documents/web2py_src/web2py/gluon/dal.py", line 1601, in _select\n    sql_w = \' WHERE \' + self.expand(query) if query else \'\'\n  File "/Users/josyulakrishna/Documents/web2py_src/web2py/gluon/dal.py", line 1366, in expand\n    return op(first, second, **optional_args)\n  File "/Users/josyulakrishna/Documents/web2py_src/web2py/gluon/dal.py", line 1276, in EQ\n    self.expand(second, first.type))\n  File "/Users/josyulakrishna/Documents/web2py_src/web2py/gluon/dal.py", line 1376, in expand\n    return str(self.represent(expression,field_type))\n  File "/Users/josyulakrishna/Documents/web2py_src/web2py/gluon/dal.py", line 1789, in represent\n    obj = obj()\n  File "/Users/josyulakrishna/Documents/web2py_src/web2py/applications/Amplify/controllers/default.py", line 48, in user\n    posts = db(db.user_post.posted_by_user==user).select()\n  File "/Users/josyulakrishna/Documents/web2py_src/web2py/gluon/dal.py", line 9958, in select\n    return adapter.select(self.query,fields,attributes)\n  File "/Users/josyulakrishna/Documents/web2py_src/web2py/gluon/dal.py", line 2245, in select\n    return super(SQLiteAdapter, self).select(query, fields, attributes)\n  File "/Users/josyulakrishna/Documents/web2py_src/web2py/gluon/dal.py", line 1691, in select\n    sql = self._select(query, fields, attributes)\n  File "/Users/josyulakrishna/Documents/web2py_src/web2py/gluon/dal.py", line 1601, in _select\n    sql_w = \' WHERE \' + self.expand(query) if query else \'\'\n  File "/Users/josyulakrishna/Documents/web2py_src/web2py/gluon/dal.py", line 1366, in expand\n    return op(first, second, **optional_args)\n  File "/Users/josyulakrishna/Documents/web2py_src/web2py/gluon/dal.py", line 1276, in EQ\n    self.expand(second, first.type))\n  File "/Users/josyulakrishna/Documents/web2py_src/web2py/gluon/dal.py", line 1376, in expand\n    return str(self.represent(expression,field_type))\n  File "/Users/josyulakrishna/Documents/web2py_src/web2py/gluon/dal.py", line 1789, in represent\n    obj = obj()\n  File "/Users/josyulakrishna/Documents/web2py_src/web2py/applications/Amplify/controllers/default.py", line 48, in user\n    posts = db(db.user_post.posted_by_user==user).select()\n  File "/Users/josyulakrishna/Documents/web2py_src/web2py/gluon/dal.py", line 9958, in select\n    return adapter.select(self.query,fields,attributes)\n  File "/Users/josyulakrishna/Documents/web2py_src/web2py/gluon/dal.py", line 2245, in select\n    return super(SQLiteAdapter, self).select(query, fields, attributes)\n  File "/Users/josyulakrishna/Documents/web2py_src/web2py/gluon/dal.py", line 1691, in select\n    sql = self._select(query, fields, attributes)\n  File "/Users/josyulakrishna/Documents/web2py_src/web2py/gluon/dal.py", line 1601, in _select\n    sql_w = \' WHERE \' + self.expand(query) if query else \'\'\n  File "/Users/josyulakrishna/Documents/web2py_src/web2py/gluon/dal.py", line 1366, in expand\n    return op(first, second, **optional_args)\n  File "/Users/josyulakrishna/Documents/web2py_src/web2py/gluon/dal.py", line 1276, in EQ\n    self.expand(second, first.type))\n  File "/Users/josyulakrishna/Documents/web2py_src/web2py/gluon/dal.py", line 1376, in expand\n    return str(self.represent(expression,field_type))\n  File "/Users/josyulakrishna/Documents/web2py_src/web2py/gluon/dal.py", line 1789, in represent\n    obj = obj()\n  File "/Users/josyulakrishna/Documents/web2py_src/web2py/applications/Amplify/controllers/default.py", line 48, in user\n    posts = db(db.user_post.posted_by_user==user).select()\n  File "/Users/josyulakrishna/Documents/web2py_src/web2py/gluon/dal.py", line 9958, in select\n    return adapter.select(self.query,fields,attributes)\n  File "/Users/josyulakrishna/Documents/web2py_src/web2py/gluon/dal.py", line 2245, in select\n    return super(SQLiteAdapter, self).select(query, fields, attributes)\n  File "/Users/josyulakrishna/Documents/web2py_src/web2py/gluon/dal.py", line 1691, in select\n    sql = self._select(query, fields, attributes)\n  File "/Users/josyulakrishna/Documents/web2py_src/web2py/gluon/dal.py", line 1601, in _select\n    sql_w = \' WHERE \' + self.expand(query) if query else \'\'\n  File "/Users/josyulakrishna/Documents/web2py_src/web2py/gluon/dal.py", line 1366, in expand\n    return op(first, second, **optional_args)\n  File "/Users/josyulakrishna/Documents/web2py_src/web2py/gluon/dal.py", line 1276, in EQ\n    self.expand(second, first.type))\n  File "/Users/josyulakrishna/Documents/web2py_src/web2py/gluon/dal.py", line 1376, in expand\n    return str(self.represent(expression,field_type))\n  File "/Users/josyulakrishna/Documents/web2py_src/web2py/gluon/dal.py", line 1789, in represent\n    obj = obj()\n  File "/Users/josyulakrishna/Documents/web2py_src/web2py/applications/Amplify/controllers/default.py", line 48, in user\n    posts = db(db.user_post.posted_by_user==user).select()\n  File "/Users/josyulakrishna/Documents/web2py_src/web2py/gluon/dal.py", line 9958, in select\n    return adapter.select(self.query,fields,attributes)\n  File "/Users/josyulakrishna/Documents/web2py_src/web2py/gluon/dal.py", line 2245, in select\n    return super(SQLiteAdapter, self).select(query, fields, attributes)\n  File "/Users/josyulakrishna/Documents/web2py_src/web2py/gluon/dal.py", line 1691, in select\n    sql = self._select(query, fields, attributes)\n  File "/Users/josyulakrishna/Documents/web2py_src/web2py/gluon/dal.py", line 1601, in _select\n    sql_w = \' WHERE \' + self.expand(query) if query else \'\'\n  File "/Users/josyulakrishna/Documents/web2py_src/web2py/gluon/dal.py", line 1366, in expand\n    return op(first, second, **optional_args)\n  File "/Users/josyulakrishna/Documents/web2py_src/web2py/gluon/dal.py", line 1276, in EQ\n    self.expand(second, first.type))\n  File "/Users/josyulakrishna/Documents/web2py_src/web2py/gluon/dal.py", line 1376, in expand\n    return str(self.represent(expression,field_type))\n  File "/Users/josyulakrishna/Documents/web2py_src/web2py/gluon/dal.py", line 1789, in represent\n    obj = obj()\n  File "/Users/josyulakrishna/Documents/web2py_src/web2py/applications/Amplify/controllers/default.py", line 48, in user\n    posts = db(db.user_post.posted_by_user==user).select()\n  File "/Users/josyulakrishna/Documents/web2py_src/web2py/gluon/dal.py", line 9958, in select\n    return adapter.select(self.query,fields,attributes)\n  File "/Users/josyulakrishna/Documents/web2py_src/web2py/gluon/dal.py", line 2245, in select\n    return super(SQLiteAdapter, self).select(query, fields, attributes)\n  File "/Users/josyulakrishna/Documents/web2py_src/web2py/gluon/dal.py", line 1691, in select\n    sql = self._select(query, fields, attributes)\n  File "/Users/josyulakrishna/Documents/web2py_src/web2py/gluon/dal.py", line 1601, in _select\n    sql_w = \' WHERE \' + self.expand(query) if query else \'\'\n  File "/Users/josyulakrishna/Documents/web2py_src/web2py/gluon/dal.py", line 1366, in expand\n    return op(first, second, **optional_args)\n  File "/Users/josyulakrishna/Documents/web2py_src/web2py/gluon/dal.py", line 1276, in EQ\n    self.expand(second, first.type))\n  File "/Users/josyulakrishna/Documents/web2py_src/web2py/gluon/dal.py", line 1376, in expand\n    return str(self.represent(expression,field_type))\n  File "/Users/josyulakrishna/Documents/web2py_src/web2py/gluon/dal.py", line 1789, in represent\n    obj = obj()\n  File "/Users/josyulakrishna/Documents/web2py_src/web2py/applications/Amplify/controllers/default.py", line 48, in user\n    posts = db(db.user_post.posted_by_user==user).select()\n  File "/Users/josyulakrishna/Documents/web2py_src/web2py/gluon/dal.py", line 9958, in select\n    return adapter.select(self.query,fields,attributes)\n  File "/Users/josyulakrishna/Documents/web2py_src/web2py/gluon/dal.py", line 2245, in select\n    return super(SQLiteAdapter, self).select(query, fields, attributes)\n  File "/Users/josyulakrishna/Documents/web2py_src/web2py/gluon/dal.py", line 1691, in select\n    sql = self._select(query, fields, attributes)\n  File "/Users/josyulakrishna/Documents/web2py_src/web2py/gluon/dal.py", line 1601, in _select\n    sql_w = \' WHERE \' + self.expand(query) if query else \'\'\n  File "/Users/josyulakrishna/Documents/web2py_src/web2py/gluon/dal.py", line 1366, in expand\n    return op(first, second, **optional_args)\n  File "/Users/josyulakrishna/Documents/web2py_src/web2py/gluon/dal.py", line 1276, in EQ\n    self.expand(second, first.type))\n  File "/Users/josyulakrishna/Documents/web2py_src/web2py/gluon/dal.py", line 1376, in expand\n    return str(self.represent(expression,field_type))\n  File "/Users/josyulakrishna/Documents/web2py_src/web2py/gluon/dal.py", line 1789, in represent\n    obj = obj()\n  File "/Users/josyulakrishna/Documents/web2py_src/web2py/applications/Amplify/controllers/default.py", line 48, in user\n    posts = db(db.user_post.posted_by_user==user).select()\n  File "/Users/josyulakrishna/Documents/web2py_src/web2py/gluon/dal.py", line 9958, in select\n    return adapter.select(self.query,fields,attributes)\n  File "/Users/josyulakrishna/Documents/web2py_src/web2py/gluon/dal.py", line 2245, in select\n    return super(SQLiteAdapter, self).select(query, fields, attributes)\n  File "/Users/josyulakrishna/Documents/web2py_src/web2py/gluon/dal.py", line 1691, in select\n    sql = self._select(query, fields, attributes)\n  File "/Users/josyulakrishna/Documents/web2py_src/web2py/gluon/dal.py", line 1601, in _select\n    sql_w = \' WHERE \' + self.expand(query) if query else \'\'\n  File "/Users/josyulakrishna/Documents/web2py_src/web2py/gluon/dal.py", line 1366, in expand\n    return op(first, second, **optional_args)\n  File "/Users/josyulakrishna/Documents/web2py_src/web2py/gluon/dal.py", line 1276, in EQ\n    self.expand(second, first.type))\n  File "/Users/josyulakrishna/Documents/web2py_src/web2py/gluon/dal.py", line 1376, in expand\n    return str(self.represent(expression,field_type))\n  File "/Users/josyulakrishna/Documents/web2py_src/web2py/gluon/dal.py", line 1789, in represent\n    obj = obj()\n  File "/Users/josyulakrishna/Documents/web2py_src/web2py/applications/Amplify/controllers/default.py", line 48, in user\n    posts = db(db.user_post.posted_by_user==user).select()\n  File "/Users/josyulakrishna/Documents/web2py_src/web2py/gluon/dal.py", line 9958, in select\n    return adapter.select(self.query,fields,attributes)\n  File "/Users/josyulakrishna/Documents/web2py_src/web2py/gluon/dal.py", line 2245, in select\n    return super(SQLiteAdapter, self).select(query, fields, attributes)\n  File "/Users/josyulakrishna/Documents/web2py_src/web2py/gluon/dal.py", line 1691, in select\n    sql = self._select(query, fields, attributes)\n  File "/Users/josyulakrishna/Documents/web2py_src/web2py/gluon/dal.py", line 1601, in _select\n    sql_w = \' WHERE \' + self.expand(query) if query else \'\'\n  File "/Users/josyulakrishna/Documents/web2py_src/web2py/gluon/dal.py", line 1366, in expand\n    return op(first, second, **optional_args)\n  File "/Users/josyulakrishna/Documents/web2py_src/web2py/gluon/dal.py", line 1276, in EQ\n    self.expand(second, first.type))\n  File "/Users/josyulakrishna/Documents/web2py_src/web2py/gluon/dal.py", line 1376, in expand\n    return str(self.represent(expression,field_type))\n  File "/Users/josyulakrishna/Documents/web2py_src/web2py/gluon/dal.py", line 1789, in represent\n    obj = obj()\n  File "/Users/josyulakrishna/Documents/web2py_src/web2py/applications/Amplify/controllers/default.py", line 48, in user\n    posts = db(db.user_post.posted_by_user==user).select()\n  File "/Users/josyulakrishna/Documents/web2py_src/web2py/gluon/dal.py", line 9958, in select\n    return adapter.select(self.query,fields,attributes)\n  File "/Users/josyulakrishna/Documents/web2py_src/web2py/gluon/dal.py", line 2245, in select\n    return super(SQLiteAdapter, self).select(query, fields, attributes)\n  File "/Users/josyulakrishna/Documents/web2py_src/web2py/gluon/dal.py", line 1691, in select\n    sql = self._select(query, fields, attributes)\n  File "/Users/josyulakrishna/Documents/web2py_src/web2py/gluon/dal.py", line 1601, in _select\n    sql_w = \' WHERE \' + self.expand(query) if query else \'\'\n  File "/Users/josyulakrishna/Documents/web2py_src/web2py/gluon/dal.py", line 1366, in expand\n    return op(first, second, **optional_args)\n  File "/Users/josyulakrishna/Documents/web2py_src/web2py/gluon/dal.py", line 1276, in EQ\n    self.expand(second, first.type))\n  File "/Users/josyulakrishna/Documents/web2py_src/web2py/gluon/dal.py", line 1376, in expand\n    return str(self.represent(expression,field_type))\n  File "/Users/josyulakrishna/Documents/web2py_src/web2py/gluon/dal.py", line 1789, in represent\n    obj = obj()\n  File "/Users/josyulakrishna/Documents/web2py_src/web2py/applications/Amplify/controllers/default.py", line 48, in user\n    posts = db(db.user_post.posted_by_user==user).select()\n  File "/Users/josyulakrishna/Documents/web2py_src/web2py/gluon/dal.py", line 9958, in select\n    return adapter.select(self.query,fields,attributes)\n  File "/Users/josyulakrishna/Documents/web2py_src/web2py/gluon/dal.py", line 2245, in select\n    return super(SQLiteAdapter, self).select(query, fields, attributes)\n  File "/Users/josyulakrishna/Documents/web2py_src/web2py/gluon/dal.py", line 1691, in select\n    sql = self._select(query, fields, attributes)\n  File "/Users/josyulakrishna/Documents/web2py_src/web2py/gluon/dal.py", line 1601, in _select\n    sql_w = \' WHERE \' + self.expand(query) if query else \'\'\n  File "/Users/josyulakrishna/Documents/web2py_src/web2py/gluon/dal.py", line 1366, in expand\n    return op(first, second, **optional_args)\n  File "/Users/josyulakrishna/Documents/web2py_src/web2py/gluon/dal.py", line 1276, in EQ\n    self.expand(second, first.type))\n  File "/Users/josyulakrishna/Documents/web2py_src/web2py/gluon/dal.py", line 1376, in expand\n    return str(self.represent(expression,field_type))\n  File "/Users/josyulakrishna/Documents/web2py_src/web2py/gluon/dal.py", line 1789, in represent\n    obj = obj()\n  File "/Users/josyulakrishna/Documents/web2py_src/web2py/applications/Amplify/controllers/default.py", line 48, in user\n    posts = db(db.user_post.posted_by_user==user).select()\n  File "/Users/josyulakrishna/Documents/web2py_src/web2py/gluon/dal.py", line 9958, in select\n    return adapter.select(self.query,fields,attributes)\n  File "/Users/josyulakrishna/Documents/web2py_src/web2py/gluon/dal.py", line 2245, in select\n    return super(SQLiteAdapter, self).select(query, fields, attributes)\n  File "/Users/josyulakrishna/Documents/web2py_src/web2py/gluon/dal.py", line 1691, in select\n    sql = self._select(query, fields, attributes)\n  File "/Users/josyulakrishna/Documents/web2py_src/web2py/gluon/dal.py", line 1601, in _select\n    sql_w = \' WHERE \' + self.expand(query) if query else \'\'\n  File "/Users/josyulakrishna/Documents/web2py_src/web2py/gluon/dal.py", line 1366, in expand\n    return op(first, second, **optional_args)\n  File "/Users/josyulakrishna/Documents/web2py_src/web2py/gluon/dal.py", line 1276, in EQ\n    self.expand(second, first.type))\n  File "/Users/josyulakrishna/Documents/web2py_src/web2py/gluon/dal.py", line 1376, in expand\n    return str(self.represent(expression,field_type))\n  File "/Users/josyulakrishna/Documents/web2py_src/web2py/gluon/dal.py", line 1789, in represent\n    obj = obj()\n  File "/Users/josyulakrishna/Documents/web2py_src/web2py/applications/Amplify/controllers/default.py", line 48, in user\n    posts = db(db.user_post.posted_by_user==user).select()\n  File "/Users/josyulakrishna/Documents/web2py_src/web2py/gluon/dal.py", line 9958, in select\n    return adapter.select(self.query,fields,attributes)\n  File "/Users/josyulakrishna/Documents/web2py_src/web2py/gluon/dal.py", line 2245, in select\n    return super(SQLiteAdapter, self).select(query, fields, attributes)\n  File "/Users/josyulakrishna/Documents/web2py_src/web2py/gluon/dal.py", line 1691, in select\n    sql = self._select(query, fields, attributes)\n  File "/Users/josyulakrishna/Documents/web2py_src/web2py/gluon/dal.py", line 1601, in _select\n    sql_w = \' WHERE \' + self.expand(query) if query else \'\'\n  File "/Users/josyulakrishna/Documents/web2py_src/web2py/gluon/dal.py", line 1366, in expand\n    return op(first, second, **optional_args)\n  File "/Users/josyulakrishna/Documents/web2py_src/web2py/gluon/dal.py", line 1276, in EQ\n    self.expand(second, first.type))\n  File "/Users/josyulakrishna/Documents/web2py_src/web2py/gluon/dal.py", line 1376, in expand\n    return str(self.represent(expression,field_type))\n  File "/Users/josyulakrishna/Documents/web2py_src/web2py/gluon/dal.py", line 1789, in represent\n    obj = obj()\n  File "/Users/josyulakrishna/Documents/web2py_src/web2py/applications/Amplify/controllers/default.py", line 48, in user\n    posts = db(db.user_post.posted_by_user==user).select()\n  File "/Users/josyulakrishna/Documents/web2py_src/web2py/gluon/dal.py", line 9958, in select\n    return adapter.select(self.query,fields,attributes)\n  File "/Users/josyulakrishna/Documents/web2py_src/web2py/gluon/dal.py", line 2245, in select\n    return super(SQLiteAdapter, self).select(query, fields, attributes)\n  File "/Users/josyulakrishna/Documents/web2py_src/web2py/gluon/dal.py", line 1691, in select\n    sql = self._select(query, fields, attributes)\n  File "/Users/josyulakrishna/Documents/web2py_src/web2py/gluon/dal.py", line 1601, in _select\n    sql_w = \' WHERE \' + self.expand(query) if query else \'\'\n  File "/Users/josyulakrishna/Documents/web2py_src/web2py/gluon/dal.py", line 1366, in expand\n    return op(first, second, **optional_args)\n  File "/Users/josyulakrishna/Documents/web2py_src/web2py/gluon/dal.py", line 1276, in EQ\n    self.expand(second, first.type))\n  File "/Users/josyulakrishna/Documents/web2py_src/web2py/gluon/dal.py", line 1376, in expand\n    return str(self.represent(expression,field_type))\n  File "/Users/josyulakrishna/Documents/web2py_src/web2py/gluon/dal.py", line 1789, in represent\n    obj = obj()\n  File "/Users/josyulakrishna/Documents/web2py_src/web2py/applications/Amplify/controllers/default.py", line 48, in user\n    posts = db(db.user_post.posted_by_user==user).select()\n  File "/Users/josyulakrishna/Documents/web2py_src/web2py/gluon/dal.py", line 9958, in select\n    return adapter.select(self.query,fields,attributes)\n  File "/Users/josyulakrishna/Documents/web2py_src/web2py/gluon/dal.py", line 2245, in select\n    return super(SQLiteAdapter, self).select(query, fields, attributes)\n  File "/Users/josyulakrishna/Documents/web2py_src/web2py/gluon/dal.py", line 1691, in select\n    sql = self._select(query, fields, attributes)\n  File "/Users/josyulakrishna/Documents/web2py_src/web2py/gluon/dal.py", line 1601, in _select\n    sql_w = \' WHERE \' + self.expand(query) if query else \'\'\n  File "/Users/josyulakrishna/Documents/web2py_src/web2py/gluon/dal.py", line 1366, in expand\n    return op(first, second, **optional_args)\n  File "/Users/josyulakrishna/Documents/web2py_src/web2py/gluon/dal.py", line 1276, in EQ\n    self.expand(second, first.type))\n  File "/Users/josyulakrishna/Documents/web2py_src/web2py/gluon/dal.py", line 1376, in expand\n    return str(self.represent(expression,field_type))\n  File "/Users/josyulakrishna/Documents/web2py_src/web2py/gluon/dal.py", line 1789, in represent\n    obj = obj()\n  File "/Users/josyulakrishna/Documents/web2py_src/web2py/applications/Amplify/controllers/default.py", line 48, in user\n    posts = db(db.user_post.posted_by_user==user).select()\n  File "/Users/josyulakrishna/Documents/web2py_src/web2py/gluon/dal.py", line 9958, in select\n    return adapter.select(self.query,fields,attributes)\n  File "/Users/josyulakrishna/Documents/web2py_src/web2py/gluon/dal.py", line 2245, in select\n    return super(SQLiteAdapter, self).select(query, fields, attributes)\n  File "/Users/josyulakrishna/Documents/web2py_src/web2py/gluon/dal.py", line 1691, in select\n    sql = self._select(query, fields, attributes)\n  File "/Users/josyulakrishna/Documents/web2py_src/web2py/gluon/dal.py", line 1601, in _select\n    sql_w = \' WHERE \' + self.expand(query) if query else \'\'\n  File "/Users/josyulakrishna/Documents/web2py_src/web2py/gluon/dal.py", line 1366, in expand\n    return op(first, second, **optional_args)\n  File "/Users/josyulakrishna/Documents/web2py_src/web2py/gluon/dal.py", line 1276, in EQ\n    self.expand(second, first.type))\n  File "/Users/josyulakrishna/Documents/web2py_src/web2py/gluon/dal.py", line 1376, in expand\n    return str(self.represent(expression,field_type))\n  File "/Users/josyulakrishna/Documents/web2py_src/web2py/gluon/dal.py", line 1789, in represent\n    obj = obj()\n  File "/Users/josyulakrishna/Documents/web2py_src/web2py/applications/Amplify/controllers/default.py", line 48, in user\n    posts = db(db.user_post.posted_by_user==user).select()\n  File "/Users/josyulakrishna/Documents/web2py_src/web2py/gluon/dal.py", line 9958, in select\n    return adapter.select(self.query,fields,attributes)\n  File "/Users/josyulakrishna/Documents/web2py_src/web2py/gluon/dal.py", line 2245, in select\n    return super(SQLiteAdapter, self).select(query, fields, attributes)\n  File "/Users/josyulakrishna/Documents/web2py_src/web2py/gluon/dal.py", line 1691, in select\n    sql = self._select(query, fields, attributes)\n  File "/Users/josyulakrishna/Documents/web2py_src/web2py/gluon/dal.py", line 1601, in _select\n    sql_w = \' WHERE \' + self.expand(query) if query else \'\'\n  File "/Users/josyulakrishna/Documents/web2py_src/web2py/gluon/dal.py", line 1366, in expand\n    return op(first, second, **optional_args)\n  File "/Users/josyulakrishna/Documents/web2py_src/web2py/gluon/dal.py", line 1276, in EQ\n    self.expand(second, first.type))\n  File "/Users/josyulakrishna/Documents/web2py_src/web2py/gluon/dal.py", line 1376, in expand\n    return str(self.represent(expression,field_type))\n  File "/Users/josyulakrishna/Documents/web2py_src/web2py/gluon/dal.py", line 1789, in represent\n    obj = obj()\n  File "/Users/josyulakrishna/Documents/web2py_src/web2py/applications/Amplify/controllers/default.py", line 48, in user\n    posts = db(db.user_post.posted_by_user==user).select()\n  File "/Users/josyulakrishna/Documents/web2py_src/web2py/gluon/dal.py", line 9958, in select\n    return adapter.select(self.query,fields,attributes)\n  File "/Users/josyulakrishna/Documents/web2py_src/web2py/gluon/dal.py", line 2245, in select\n    return super(SQLiteAdapter, self).select(query, fields, attributes)\n  File "/Users/josyulakrishna/Documents/web2py_src/web2py/gluon/dal.py", line 1691, in select\n    sql = self._select(query, fields, attributes)\n  File "/Users/josyulakrishna/Documents/web2py_src/web2py/gluon/dal.py", line 1601, in _select\n    sql_w = \' WHERE \' + self.expand(query) if query else \'\'\n  File "/Users/josyulakrishna/Documents/web2py_src/web2py/gluon/dal.py", line 1366, in expand\n    return op(first, second, **optional_args)\n  File "/Users/josyulakrishna/Documents/web2py_src/web2py/gluon/dal.py", line 1276, in EQ\n    self.expand(second, first.type))\n  File "/Users/josyulakrishna/Documents/web2py_src/web2py/gluon/dal.py", line 1376, in expand\n    return str(self.represent(expression,field_type))\n  File "/Users/josyulakrishna/Documents/web2py_src/web2py/gluon/dal.py", line 1789, in represent\n    obj = obj()\n  File "/Users/josyulakrishna/Documents/web2py_src/web2py/applications/Amplify/controllers/default.py", line 48, in user\n    posts = db(db.user_post.posted_by_user==user).select()\n  File "/Users/josyulakrishna/Documents/web2py_src/web2py/gluon/dal.py", line 9958, in select\n    return adapter.select(self.query,fields,attributes)\n  File "/Users/josyulakrishna/Documents/web2py_src/web2py/gluon/dal.py", line 2245, in select\n    return super(SQLiteAdapter, self).select(query, fields, attributes)\n  File "/Users/josyulakrishna/Documents/web2py_src/web2py/gluon/dal.py", line 1691, in select\n    sql = self._select(query, fields, attributes)\n  File "/Users/josyulakrishna/Documents/web2py_src/web2py/gluon/dal.py", line 1601, in _select\n    sql_w = \' WHERE \' + self.expand(query) if query else \'\'\n  File "/Users/josyulakrishna/Documents/web2py_src/web2py/gluon/dal.py", line 1366, in expand\n    return op(first, second, **optional_args)\n  File "/Users/josyulakrishna/Documents/web2py_src/web2py/gluon/dal.py", line 1276, in EQ\n    self.expand(second, first.type))\n  File "/Users/josyulakrishna/Documents/web2py_src/web2py/gluon/dal.py", line 1376, in expand\n    return str(self.represent(expression,field_type))\n  File "/Users/josyulakrishna/Documents/web2py_src/web2py/gluon/dal.py", line 1789, in represent\n    obj = obj()\n  File "/Users/josyulakrishna/Documents/web2py_src/web2py/applications/Amplify/controllers/default.py", line 48, in user\n    posts = db(db.user_post.posted_by_user==user).select()\n  File "/Users/josyulakrishna/Documents/web2py_src/web2py/gluon/dal.py", line 9958, in select\n    return adapter.select(self.query,fields,attributes)\n  File "/Users/josyulakrishna/Documents/web2py_src/web2py/gluon/dal.py", line 2245, in select\n    return super(SQLiteAdapter, self).select(query, fields, attributes)\n  File "/Users/josyulakrishna/Documents/web2py_src/web2py/gluon/dal.py", line 1691, in select\n    sql = self._select(query, fields, attributes)\n  File "/Users/josyulakrishna/Documents/web2py_src/web2py/gluon/dal.py", line 1601, in _select\n    sql_w = \' WHERE \' + self.expand(query) if query else \'\'\n  File "/Users/josyulakrishna/Documents/web2py_src/web2py/gluon/dal.py", line 1366, in expand\n    return op(first, second, **optional_args)\n  File "/Users/josyulakrishna/Documents/web2py_src/web2py/gluon/dal.py", line 1276, in EQ\n    self.expand(second, first.type))\n  File "/Users/josyulakrishna/Documents/web2py_src/web2py/gluon/dal.py", line 1376, in expand\n    return str(self.represent(expression,field_type))\n  File "/Users/josyulakrishna/Documents/web2py_src/web2py/gluon/dal.py", line 1789, in represent\n    obj = obj()\n  File "/Users/josyulakrishna/Documents/web2py_src/web2py/applications/Amplify/controllers/default.py", line 48, in user\n    posts = db(db.user_post.posted_by_user==user).select()\n  File "/Users/josyulakrishna/Documents/web2py_src/web2py/gluon/dal.py", line 9958, in select\n    return adapter.select(self.query,fields,attributes)\n  File "/Users/josyulakrishna/Documents/web2py_src/web2py/gluon/dal.py", line 2245, in select\n    return super(SQLiteAdapter, self).select(query, fields, attributes)\n  File "/Users/josyulakrishna/Documents/web2py_src/web2py/gluon/dal.py", line 1691, in select\n    sql = self._select(query, fields, attributes)\n  File "/Users/josyulakrishna/Documents/web2py_src/web2py/gluon/dal.py", line 1601, in _select\n    sql_w = \' WHERE \' + self.expand(query) if query else \'\'\n  File "/Users/josyulakrishna/Documents/web2py_src/web2py/gluon/dal.py", line 1366, in expand\n    return op(first, second, **optional_args)\n  File "/Users/josyulakrishna/Documents/web2py_src/web2py/gluon/dal.py", line 1276, in EQ\n    self.expand(second, first.type))\n  File "/Users/josyulakrishna/Documents/web2py_src/web2py/gluon/dal.py", line 1376, in expand\n    return str(self.represent(expression,field_type))\n  File "/Users/josyulakrishna/Documents/web2py_src/web2py/gluon/dal.py", line 1789, in represent\n    obj = obj()\n  File "/Users/josyulakrishna/Documents/web2py_src/web2py/applications/Amplify/controllers/default.py", line 48, in user\n    posts = db(db.user_post.posted_by_user==user).select()\n  File "/Users/josyulakrishna/Documents/web2py_src/web2py/gluon/dal.py", line 9958, in select\n    return adapter.select(self.query,fields,attributes)\n  File "/Users/josyulakrishna/Documents/web2py_src/web2py/gluon/dal.py", line 2245, in select\n    return super(SQLiteAdapter, self).select(query, fields, attributes)\n  File "/Users/josyulakrishna/Documents/web2py_src/web2py/gluon/dal.py", line 1691, in select\n    sql = self._select(query, fields, attributes)\n  File "/Users/josyulakrishna/Documents/web2py_src/web2py/gluon/dal.py", line 1601, in _select\n    sql_w = \' WHERE \' + self.expand(query) if query else \'\'\n  File "/Users/josyulakrishna/Documents/web2py_src/web2py/gluon/dal.py", line 1366, in expand\n    return op(first, second, **optional_args)\n  File "/Users/josyulakrishna/Documents/web2py_src/web2py/gluon/dal.py", line 1276, in EQ\n    self.expand(second, first.type))\n  File "/Users/josyulakrishna/Documents/web2py_src/web2py/gluon/dal.py", line 1376, in expand\n    return str(self.represent(expression,field_type))\n  File "/Users/josyulakrishna/Documents/web2py_src/web2py/gluon/dal.py", line 1789, in represent\n    obj = obj()\n  File "/Users/josyulakrishna/Documents/web2py_src/web2py/applications/Amplify/controllers/default.py", line 48, in user\n    posts = db(db.user_post.posted_by_user==user).select()\n  File "/Users/josyulakrishna/Documents/web2py_src/web2py/gluon/dal.py", line 9958, in select\n    return adapter.select(self.query,fields,attributes)\n  File "/Users/josyulakrishna/Documents/web2py_src/web2py/gluon/dal.py", line 2245, in select\n    return super(SQLiteAdapter, self).select(query, fields, attributes)\n  File "/Users/josyulakrishna/Documents/web2py_src/web2py/gluon/dal.py", line 1691, in select\n    sql = self._select(query, fields, attributes)\n  File "/Users/josyulakrishna/Documents/web2py_src/web2py/gluon/dal.py", line 1601, in _select\n    sql_w = \' WHERE \' + self.expand(query) if query else \'\'\n  File "/Users/josyulakrishna/Documents/web2py_src/web2py/gluon/dal.py", line 1366, in expand\n    return op(first, second, **optional_args)\n  File "/Users/josyulakrishna/Documents/web2py_src/web2py/gluon/dal.py", line 1276, in EQ\n    self.expand(second, first.type))\n  File "/Users/josyulakrishna/Documents/web2py_src/web2py/gluon/dal.py", line 1376, in expand\n    return str(self.represent(expression,field_type))\n  File "/Users/josyulakrishna/Documents/web2py_src/web2py/gluon/dal.py", line 1789, in represent\n    obj = obj()\n  File "/Users/josyulakrishna/Documents/web2py_src/web2py/applications/Amplify/controllers/default.py", line 48, in user\n    posts = db(db.user_post.posted_by_user==user).select()\n  File "/Users/josyulakrishna/Documents/web2py_src/web2py/gluon/dal.py", line 9958, in select\n    return adapter.select(self.query,fields,attributes)\n  File "/Users/josyulakrishna/Documents/web2py_src/web2py/gluon/dal.py", line 2245, in select\n    return super(SQLiteAdapter, self).select(query, fields, attributes)\n  File "/Users/josyulakrishna/Documents/web2py_src/web2py/gluon/dal.py", line 1691, in select\n    sql = self._select(query, fields, attributes)\n  File "/Users/josyulakrishna/Documents/web2py_src/web2py/gluon/dal.py", line 1601, in _select\n    sql_w = \' WHERE \' + self.expand(query) if query else \'\'\n  File "/Users/josyulakrishna/Documents/web2py_src/web2py/gluon/dal.py", line 1366, in expand\n    return op(first, second, **optional_args)\n  File "/Users/josyulakrishna/Documents/web2py_src/web2py/gluon/dal.py", line 1276, in EQ\n    self.expand(second, first.type))\n  File "/Users/josyulakrishna/Documents/web2py_src/web2py/gluon/dal.py", line 1376, in expand\n    return str(self.represent(expression,field_type))\n  File "/Users/josyulakrishna/Documents/web2py_src/web2py/gluon/dal.py", line 1789, in represent\n    obj = obj()\n  File "/Users/josyulakrishna/Documents/web2py_src/web2py/applications/Amplify/controllers/default.py", line 48, in user\n    posts = db(db.user_post.posted_by_user==user).select()\n  File "/Users/josyulakrishna/Documents/web2py_src/web2py/gluon/dal.py", line 9958, in select\n    return adapter.select(self.query,fields,attributes)\n  File "/Users/josyulakrishna/Documents/web2py_src/web2py/gluon/dal.py", line 2245, in select\n    return super(SQLiteAdapter, self).select(query, fields, attributes)\n  File "/Users/josyulakrishna/Documents/web2py_src/web2py/gluon/dal.py", line 1691, in select\n    sql = self._select(query, fields, attributes)\n  File "/Users/josyulakrishna/Documents/web2py_src/web2py/gluon/dal.py", line 1601, in _select\n    sql_w = \' WHERE \' + self.expand(query) if query else \'\'\n  File "/Users/josyulakrishna/Documents/web2py_src/web2py/gluon/dal.py", line 1366, in expand\n    return op(first, second, **optional_args)\n  File "/Users/josyulakrishna/Documents/web2py_src/web2py/gluon/dal.py", line 1276, in EQ\n    self.expand(second, first.type))\n  File "/Users/josyulakrishna/Documents/web2py_src/web2py/gluon/dal.py", line 1376, in expand\n    return str(self.represent(expression,field_type))\n  File "/Users/josyulakrishna/Documents/web2py_src/web2py/gluon/dal.py", line 1789, in represent\n    obj = obj()\n  File "/Users/josyulakrishna/Documents/web2py_src/web2py/applications/Amplify/controllers/default.py", line 48, in user\n    posts = db(db.user_post.posted_by_user==user).select()\n  File "/Users/josyulakrishna/Documents/web2py_src/web2py/gluon/dal.py", line 9958, in select\n    return adapter.select(self.query,fields,attributes)\n  File "/Users/josyulakrishna/Documents/web2py_src/web2py/gluon/dal.py", line 2245, in select\n    return super(SQLiteAdapter, self).select(query, fields, attributes)\n  File "/Users/josyulakrishna/Documents/web2py_src/web2py/gluon/dal.py", line 1691, in select\n    sql = self._select(query, fields, attributes)\n  File "/Users/josyulakrishna/Documents/web2py_src/web2py/gluon/dal.py", line 1601, in _select\n    sql_w = \' WHERE \' + self.expand(query) if query else \'\'\n  File "/Users/josyulakrishna/Documents/web2py_src/web2py/gluon/dal.py", line 1366, in expand\n    return op(first, second, **optional_args)\n  File "/Users/josyulakrishna/Documents/web2py_src/web2py/gluon/dal.py", line 1276, in EQ\n    self.expand(second, first.type))\n  File "/Users/josyulakrishna/Documents/web2py_src/web2py/gluon/dal.py", line 1376, in expand\n    return str(self.represent(expression,field_type))\n  File "/Users/josyulakrishna/Documents/web2py_src/web2py/gluon/dal.py", line 1789, in represent\n    obj = obj()\n  File "/Users/josyulakrishna/Documents/web2py_src/web2py/applications/Amplify/controllers/default.py", line 48, in user\n    posts = db(db.user_post.posted_by_user==user).select()\n  File "/Users/josyulakrishna/Documents/web2py_src/web2py/gluon/dal.py", line 9958, in select\n    return adapter.select(self.query,fields,attributes)\n  File "/Users/josyulakrishna/Documents/web2py_src/web2py/gluon/dal.py", line 2245, in select\n    return super(SQLiteAdapter, self).select(query, fields, attributes)\n  File "/Users/josyulakrishna/Documents/web2py_src/web2py/gluon/dal.py", line 1691, in select\n    sql = self._select(query, fields, attributes)\n  File "/Users/josyulakrishna/Documents/web2py_src/web2py/gluon/dal.py", line 1601, in _select\n    sql_w = \' WHERE \' + self.expand(query) if query else \'\'\n  File "/Users/josyulakrishna/Documents/web2py_src/web2py/gluon/dal.py", line 1366, in expand\n    return op(first, second, **optional_args)\n  File "/Users/josyulakrishna/Documents/web2py_src/web2py/gluon/dal.py", line 1276, in EQ\n    self.expand(second, first.type))\n  File "/Users/josyulakrishna/Documents/web2py_src/web2py/gluon/dal.py", line 1376, in expand\n    return str(self.represent(expression,field_type))\n  File "/Users/josyulakrishna/Documents/web2py_src/web2py/gluon/dal.py", line 1789, in represent\n    obj = obj()\n  File "/Users/josyulakrishna/Documents/web2py_src/web2py/applications/Amplify/controllers/default.py", line 48, in user\n    posts = db(db.user_post.posted_by_user==user).select()\n  File "/Users/josyulakrishna/Documents/web2py_src/web2py/gluon/dal.py", line 9958, in select\n    return adapter.select(self.query,fields,attributes)\n  File "/Users/josyulakrishna/Documents/web2py_src/web2py/gluon/dal.py", line 2245, in select\n    return super(SQLiteAdapter, self).select(query, fields, attributes)\n  File "/Users/josyulakrishna/Documents/web2py_src/web2py/gluon/dal.py", line 1691, in select\n    sql = self._select(query, fields, attributes)\n  File "/Users/josyulakrishna/Documents/web2py_src/web2py/gluon/dal.py", line 1601, in _select\n    sql_w = \' WHERE \' + self.expand(query) if query else \'\'\n  File "/Users/josyulakrishna/Documents/web2py_src/web2py/gluon/dal.py", line 1366, in expand\n    return op(first, second, **optional_args)\n  File "/Users/josyulakrishna/Documents/web2py_src/web2py/gluon/dal.py", line 1276, in EQ\n    self.expand(second, first.type))\n  File "/Users/josyulakrishna/Documents/web2py_src/web2py/gluon/dal.py", line 1376, in expand\n    return str(self.represent(expression,field_type))\n  File "/Users/josyulakrishna/Documents/web2py_src/web2py/gluon/dal.py", line 1789, in represent\n    obj = obj()\n  File "/Users/josyulakrishna/Documents/web2py_src/web2py/applications/Amplify/controllers/default.py", line 48, in user\n    posts = db(db.user_post.posted_by_user==user).select()\n  File "/Users/josyulakrishna/Documents/web2py_src/web2py/gluon/dal.py", line 9958, in select\n    return adapter.select(self.query,fields,attributes)\n  File "/Users/josyulakrishna/Documents/web2py_src/web2py/gluon/dal.py", line 2245, in select\n    return super(SQLiteAdapter, self).select(query, fields, attributes)\n  File "/Users/josyulakrishna/Documents/web2py_src/web2py/gluon/dal.py", line 1691, in select\n    sql = self._select(query, fields, attributes)\n  File "/Users/josyulakrishna/Documents/web2py_src/web2py/gluon/dal.py", line 1601, in _select\n    sql_w = \' WHERE \' + self.expand(query) if query else \'\'\n  File "/Users/josyulakrishna/Documents/web2py_src/web2py/gluon/dal.py", line 1366, in expand\n    return op(first, second, **optional_args)\n  File "/Users/josyulakrishna/Documents/web2py_src/web2py/gluon/dal.py", line 1276, in EQ\n    self.expand(second, first.type))\n  File "/Users/josyulakrishna/Documents/web2py_src/web2py/gluon/dal.py", line 1376, in expand\n    return str(self.represent(expression,field_type))\n  File "/Users/josyulakrishna/Documents/web2py_src/web2py/gluon/dal.py", line 1789, in represent\n    obj = obj()\n  File "/Users/josyulakrishna/Documents/web2py_src/web2py/applications/Amplify/controllers/default.py", line 48, in user\n    posts = db(db.user_post.posted_by_user==user).select()\n  File "/Users/josyulakrishna/Documents/web2py_src/web2py/gluon/dal.py", line 9958, in select\n    return adapter.select(self.query,fields,attributes)\n  File "/Users/josyulakrishna/Documents/web2py_src/web2py/gluon/dal.py", line 2245, in select\n    return super(SQLiteAdapter, self).select(query, fields, attributes)\n  File "/Users/josyulakrishna/Documents/web2py_src/web2py/gluon/dal.py", line 1691, in select\n    sql = self._select(query, fields, attributes)\n  File "/Users/josyulakrishna/Documents/web2py_src/web2py/gluon/dal.py", line 1601, in _select\n    sql_w = \' WHERE \' + self.expand(query) if query else \'\'\n  File "/Users/josyulakrishna/Documents/web2py_src/web2py/gluon/dal.py", line 1366, in expand\n    return op(first, second, **optional_args)\n  File "/Users/josyulakrishna/Documents/web2py_src/web2py/gluon/dal.py", line 1276, in EQ\n    self.expand(second, first.type))\n  File "/Users/josyulakrishna/Documents/web2py_src/web2py/gluon/dal.py", line 1376, in expand\n    return str(self.represent(expression,field_type))\n  File "/Users/josyulakrishna/Documents/web2py_src/web2py/gluon/dal.py", line 1789, in represent\n    obj = obj()\n  File "/Users/josyulakrishna/Documents/web2py_src/web2py/applications/Amplify/controllers/default.py", line 48, in user\n    posts = db(db.user_post.posted_by_user==user).select()\n  File "/Users/josyulakrishna/Documents/web2py_src/web2py/gluon/dal.py", line 9958, in select\n    return adapter.select(self.query,fields,attributes)\n  File "/Users/josyulakrishna/Documents/web2py_src/web2py/gluon/dal.py", line 2245, in select\n    return super(SQLiteAdapter, self).select(query, fields, attributes)\n  File "/Users/josyulakrishna/Documents/web2py_src/web2py/gluon/dal.py", line 1691, in select\n    sql = self._select(query, fields, attributes)\n  File "/Users/josyulakrishna/Documents/web2py_src/web2py/gluon/dal.py", line 1601, in _select\n    sql_w = \' WHERE \' + self.expand(query) if query else \'\'\n  File "/Users/josyulakrishna/Documents/web2py_src/web2py/gluon/dal.py", line 1366, in expand\n    return op(first, second, **optional_args)\n  File "/Users/josyulakrishna/Documents/web2py_src/web2py/gluon/dal.py", line 1276, in EQ\n    self.expand(second, first.type))\n  File "/Users/josyulakrishna/Documents/web2py_src/web2py/gluon/dal.py", line 1376, in expand\n    return str(self.represent(expression,field_type))\n  File "/Users/josyulakrishna/Documents/web2py_src/web2py/gluon/dal.py", line 1789, in represent\n    obj = obj()\n  File "/Users/josyulakrishna/Documents/web2py_src/web2py/applications/Amplify/controllers/default.py", line 48, in user\n    posts = db(db.user_post.posted_by_user==user).select()\n  File "/Users/josyulakrishna/Documents/web2py_src/web2py/gluon/dal.py", line 9958, in select\n    return adapter.select(self.query,fields,attributes)\n  File "/Users/josyulakrishna/Documents/web2py_src/web2py/gluon/dal.py", line 2245, in select\n    return super(SQLiteAdapter, self).select(query, fields, attributes)\n  File "/Users/josyulakrishna/Documents/web2py_src/web2py/gluon/dal.py", line 1691, in select\n    sql = self._select(query, fields, attributes)\n  File "/Users/josyulakrishna/Documents/web2py_src/web2py/gluon/dal.py", line 1601, in _select\n    sql_w = \' WHERE \' + self.expand(query) if query else \'\'\n  File "/Users/josyulakrishna/Documents/web2py_src/web2py/gluon/dal.py", line 1366, in expand\n    return op(first, second, **optional_args)\n  File "/Users/josyulakrishna/Documents/web2py_src/web2py/gluon/dal.py", line 1276, in EQ\n    self.expand(second, first.type))\n  File "/Users/josyulakrishna/Documents/web2py_src/web2py/gluon/dal.py", line 1376, in expand\n    return str(self.represent(expression,field_type))\n  File "/Users/josyulakrishna/Documents/web2py_src/web2py/gluon/dal.py", line 1789, in represent\n    obj = obj()\n  File "/Users/josyulakrishna/Documents/web2py_src/web2py/applications/Amplify/controllers/default.py", line 48, in user\n    posts = db(db.user_post.posted_by_user==user).select()\n  File "/Users/josyulakrishna/Documents/web2py_src/web2py/gluon/dal.py", line 9958, in select\n    return adapter.select(self.query,fields,attributes)\n  File "/Users/josyulakrishna/Documents/web2py_src/web2py/gluon/dal.py", line 2245, in select\n    return super(SQLiteAdapter, self).select(query, fields, attributes)\n  File "/Users/josyulakrishna/Documents/web2py_src/web2py/gluon/dal.py", line 1691, in select\n    sql = self._select(query, fields, attributes)\n  File "/Users/josyulakrishna/Documents/web2py_src/web2py/gluon/dal.py", line 1601, in _select\n    sql_w = \' WHERE \' + self.expand(query) if query else \'\'\n  File "/Users/josyulakrishna/Documents/web2py_src/web2py/gluon/dal.py", line 1366, in expand\n    return op(first, second, **optional_args)\n  File "/Users/josyulakrishna/Documents/web2py_src/web2py/gluon/dal.py", line 1276, in EQ\n    self.expand(second, first.type))\n  File "/Users/josyulakrishna/Documents/web2py_src/web2py/gluon/dal.py", line 1376, in expand\n    return str(self.represent(expression,field_type))\n  File "/Users/josyulakrishna/Documents/web2py_src/web2py/gluon/dal.py", line 1789, in represent\n    obj = obj()\n  File "/Users/josyulakrishna/Documents/web2py_src/web2py/applications/Amplify/controllers/default.py", line 48, in user\n    posts = db(db.user_post.posted_by_user==user).select()\n  File "/Users/josyulakrishna/Documents/web2py_src/web2py/gluon/dal.py", line 9958, in select\n    return adapter.select(self.query,fields,attributes)\n  File "/Users/josyulakrishna/Documents/web2py_src/web2py/gluon/dal.py", line 2245, in select\n    return super(SQLiteAdapter, self).select(query, fields, attributes)\n  File "/Users/josyulakrishna/Documents/web2py_src/web2py/gluon/dal.py", line 1691, in select\n    sql = self._select(query, fields, attributes)\n  File "/Users/josyulakrishna/Documents/web2py_src/web2py/gluon/dal.py", line 1601, in _select\n    sql_w = \' WHERE \' + self.expand(query) if query else \'\'\n  File "/Users/josyulakrishna/Documents/web2py_src/web2py/gluon/dal.py", line 1366, in expand\n    return op(first, second, **optional_args)\n  File "/Users/josyulakrishna/Documents/web2py_src/web2py/gluon/dal.py", line 1276, in EQ\n    self.expand(second, first.type))\n  File "/Users/josyulakrishna/Documents/web2py_src/web2py/gluon/dal.py", line 1376, in expand\n    return str(self.represent(expression,field_type))\n  File "/Users/josyulakrishna/Documents/web2py_src/web2py/gluon/dal.py", line 1789, in represent\n    obj = obj()\n  File "/Users/josyulakrishna/Documents/web2py_src/web2py/applications/Amplify/controllers/default.py", line 48, in user\n    posts = db(db.user_post.posted_by_user==user).select()\n  File "/Users/josyulakrishna/Documents/web2py_src/web2py/gluon/dal.py", line 9958, in select\n    return adapter.select(self.query,fields,attributes)\n  File "/Users/josyulakrishna/Documents/web2py_src/web2py/gluon/dal.py", line 2245, in select\n    return super(SQLiteAdapter, self).select(query, fields, attributes)\n  File "/Users/josyulakrishna/Documents/web2py_src/web2py/gluon/dal.py", line 1691, in select\n    sql = self._select(query, fields, attributes)\n  File "/Users/josyulakrishna/Documents/web2py_src/web2py/gluon/dal.py", line 1601, in _select\n    sql_w = \' WHERE \' + self.expand(query) if query else \'\'\n  File "/Users/josyulakrishna/Documents/web2py_src/web2py/gluon/dal.py", line 1366, in expand\n    return op(first, second, **optional_args)\n  File "/Users/josyulakrishna/Documents/web2py_src/web2py/gluon/dal.py", line 1276, in EQ\n    self.expand(second, first.type))\n  File "/Users/josyulakrishna/Documents/web2py_src/web2py/gluon/dal.py", line 1376, in expand\n    return str(self.represent(expression,field_type))\n  File "/Users/josyulakrishna/Documents/web2py_src/web2py/gluon/dal.py", line 1789, in represent\n    obj = obj()\n  File "/Users/josyulakrishna/Documents/web2py_src/web2py/applications/Amplify/controllers/default.py", line 48, in user\n    posts = db(db.user_post.posted_by_user==user).select()\n  File "/Users/josyulakrishna/Documents/web2py_src/web2py/gluon/dal.py", line 9958, in select\n    return adapter.select(self.query,fields,attributes)\n  File "/Users/josyulakrishna/Documents/web2py_src/web2py/gluon/dal.py", line 2245, in select\n    return super(SQLiteAdapter, self).select(query, fields, attributes)\n  File "/Users/josyulakrishna/Documents/web2py_src/web2py/gluon/dal.py", line 1691, in select\n    sql = self._select(query, fields, attributes)\n  File "/Users/josyulakrishna/Documents/web2py_src/web2py/gluon/dal.py", line 1601, in _select\n    sql_w = \' WHERE \' + self.expand(query) if query else \'\'\n  File "/Users/josyulakrishna/Documents/web2py_src/web2py/gluon/dal.py", line 1366, in expand\n    return op(first, second, **optional_args)\n  File "/Users/josyulakrishna/Documents/web2py_src/web2py/gluon/dal.py", line 1276, in EQ\n    self.expand(second, first.type))\n  File "/Users/josyulakrishna/Documents/web2py_src/web2py/gluon/dal.py", line 1376, in expand\n    return str(self.represent(expression,field_type))\n  File "/Users/josyulakrishna/Documents/web2py_src/web2py/gluon/dal.py", line 1789, in represent\n    obj = obj()\n  File "/Users/josyulakrishna/Documents/web2py_src/web2py/applications/Amplify/controllers/default.py", line 48, in user\n    posts = db(db.user_post.posted_by_user==user).select()\n  File "/Users/josyulakrishna/Documents/web2py_src/web2py/gluon/dal.py", line 9958, in select\n    return adapter.select(self.query,fields,attributes)\n  File "/Users/josyulakrishna/Documents/web2py_src/web2py/gluon/dal.py", line 2245, in select\n    return super(SQLiteAdapter, self).select(query, fields, attributes)\n  File "/Users/josyulakrishna/Documents/web2py_src/web2py/gluon/dal.py", line 1691, in select\n    sql = self._select(query, fields, attributes)\n  File "/Users/josyulakrishna/Documents/web2py_src/web2py/gluon/dal.py", line 1601, in _select\n    sql_w = \' WHERE \' + self.expand(query) if query else \'\'\n  File "/Users/josyulakrishna/Documents/web2py_src/web2py/gluon/dal.py", line 1366, in expand\n    return op(first, second, **optional_args)\n  File "/Users/josyulakrishna/Documents/web2py_src/web2py/gluon/dal.py", line 1276, in EQ\n    self.expand(second, first.type))\n  File "/Users/josyulakrishna/Documents/web2py_src/web2py/gluon/dal.py", line 1376, in expand\n    return str(self.represent(expression,field_type))\n  File "/Users/josyulakrishna/Documents/web2py_src/web2py/gluon/dal.py", line 1789, in represent\n    obj = obj()\n  File "/Users/josyulakrishna/Documents/web2py_src/web2py/applications/Amplify/controllers/default.py", line 48, in user\n    posts = db(db.user_post.posted_by_user==user).select()\n  File "/Users/josyulakrishna/Documents/web2py_src/web2py/gluon/dal.py", line 9958, in select\n    return adapter.select(self.query,fields,attributes)\n  File "/Users/josyulakrishna/Documents/web2py_src/web2py/gluon/dal.py", line 2245, in select\n    return super(SQLiteAdapter, self).select(query, fields, attributes)\n  File "/Users/josyulakrishna/Documents/web2py_src/web2py/gluon/dal.py", line 1691, in select\n    sql = self._select(query, fields, attributes)\n  File "/Users/josyulakrishna/Documents/web2py_src/web2py/gluon/dal.py", line 1601, in _select\n    sql_w = \' WHERE \' + self.expand(query) if query else \'\'\n  File "/Users/josyulakrishna/Documents/web2py_src/web2py/gluon/dal.py", line 1366, in expand\n    return op(first, second, **optional_args)\n  File "/Users/josyulakrishna/Documents/web2py_src/web2py/gluon/dal.py", line 1276, in EQ\n    self.expand(second, first.type))\n  File "/Users/josyulakrishna/Documents/web2py_src/web2py/gluon/dal.py", line 1376, in expand\n    return str(self.represent(expression,field_type))\n  File "/Users/josyulakrishna/Documents/web2py_src/web2py/gluon/dal.py", line 1789, in represent\n    obj = obj()\n  File "/Users/josyulakrishna/Documents/web2py_src/web2py/applications/Amplify/controllers/default.py", line 48, in user\n    posts = db(db.user_post.posted_by_user==user).select()\n  File "/Users/josyulakrishna/Documents/web2py_src/web2py/gluon/dal.py", line 9958, in select\n    return adapter.select(self.query,fields,attributes)\n  File "/Users/josyulakrishna/Documents/web2py_src/web2py/gluon/dal.py", line 2245, in select\n    return super(SQLiteAdapter, self).select(query, fields, attributes)\n  File "/Users/josyulakrishna/Documents/web2py_src/web2py/gluon/dal.py", line 1691, in select\n    sql = self._select(query, fields, attributes)\n  File "/Users/josyulakrishna/Documents/web2py_src/web2py/gluon/dal.py", line 1601, in _select\n    sql_w = \' WHERE \' + self.expand(query) if query else \'\'\n  File "/Users/josyulakrishna/Documents/web2py_src/web2py/gluon/dal.py", line 1366, in expand\n    return op(first, second, **optional_args)\n  File "/Users/josyulakrishna/Documents/web2py_src/web2py/gluon/dal.py", line 1276, in EQ\n    self.expand(second, first.type))\n  File "/Users/josyulakrishna/Documents/web2py_src/web2py/gluon/dal.py", line 1376, in expand\n    return str(self.represent(expression,field_type))\n  File "/Users/josyulakrishna/Documents/web2py_src/web2py/gluon/dal.py", line 1789, in represent\n    obj = obj()\n  File "/Users/josyulakrishna/Documents/web2py_src/web2py/applications/Amplify/controllers/default.py", line 48, in user\n    posts = db(db.user_post.posted_by_user==user).select()\n  File "/Users/josyulakrishna/Documents/web2py_src/web2py/gluon/dal.py", line 9958, in select\n    return adapter.select(self.query,fields,attributes)\n  File "/Users/josyulakrishna/Documents/web2py_src/web2py/gluon/dal.py", line 2245, in select\n    return super(SQLiteAdapter, self).select(query, fields, attributes)\n  File "/Users/josyulakrishna/Documents/web2py_src/web2py/gluon/dal.py", line 1691, in select\n    sql = self._select(query, fields, attributes)\n  File "/Users/josyulakrishna/Documents/web2py_src/web2py/gluon/dal.py", line 1601, in _select\n    sql_w = \' WHERE \' + self.expand(query) if query else \'\'\n  File "/Users/josyulakrishna/Documents/web2py_src/web2py/gluon/dal.py", line 1366, in expand\n    return op(first, second, **optional_args)\n  File "/Users/josyulakrishna/Documents/web2py_src/web2py/gluon/dal.py", line 1276, in EQ\n    self.expand(second, first.type))\n  File "/Users/josyulakrishna/Documents/web2py_src/web2py/gluon/dal.py", line 1376, in expand\n    return str(self.represent(expression,field_type))\n  File "/Users/josyulakrishna/Documents/web2py_src/web2py/gluon/dal.py", line 1789, in represent\n    obj = obj()\n  File "/Users/josyulakrishna/Documents/web2py_src/web2py/applications/Amplify/controllers/default.py", line 48, in user\n    posts = db(db.user_post.posted_by_user==user).select()\n  File "/Users/josyulakrishna/Documents/web2py_src/web2py/gluon/dal.py", line 9958, in select\n    return adapter.select(self.query,fields,attributes)\n  File "/Users/josyulakrishna/Documents/web2py_src/web2py/gluon/dal.py", line 2245, in select\n    return super(SQLiteAdapter, self).select(query, fields, attributes)\n  File "/Users/josyulakrishna/Documents/web2py_src/web2py/gluon/dal.py", line 1691, in select\n    sql = self._select(query, fields, attributes)\n  File "/Users/josyulakrishna/Documents/web2py_src/web2py/gluon/dal.py", line 1601, in _select\n    sql_w = \' WHERE \' + self.expand(query) if query else \'\'\n  File "/Users/josyulakrishna/Documents/web2py_src/web2py/gluon/dal.py", line 1366, in expand\n    return op(first, second, **optional_args)\n  File "/Users/josyulakrishna/Documents/web2py_src/web2py/gluon/dal.py", line 1276, in EQ\n    self.expand(second, first.type))\n  File "/Users/josyulakrishna/Documents/web2py_src/web2py/gluon/dal.py", line 1376, in expand\n    return str(self.represent(expression,field_type))\n  File "/Users/josyulakrishna/Documents/web2py_src/web2py/gluon/dal.py", line 1789, in represent\n    obj = obj()\n  File "/Users/josyulakrishna/Documents/web2py_src/web2py/applications/Amplify/controllers/default.py", line 48, in user\n    posts = db(db.user_post.posted_by_user==user).select()\n  File "/Users/josyulakrishna/Documents/web2py_src/web2py/gluon/dal.py", line 9958, in select\n    return adapter.select(self.query,fields,attributes)\n  File "/Users/josyulakrishna/Documents/web2py_src/web2py/gluon/dal.py", line 2245, in select\n    return super(SQLiteAdapter, self).select(query, fields, attributes)\n  File "/Users/josyulakrishna/Documents/web2py_src/web2py/gluon/dal.py", line 1691, in select\n    sql = self._select(query, fields, attributes)\n  File "/Users/josyulakrishna/Documents/web2py_src/web2py/gluon/dal.py", line 1601, in _select\n    sql_w = \' WHERE \' + self.expand(query) if query else \'\'\n  File "/Users/josyulakrishna/Documents/web2py_src/web2py/gluon/dal.py", line 1366, in expand\n    return op(first, second, **optional_args)\n  File "/Users/josyulakrishna/Documents/web2py_src/web2py/gluon/dal.py", line 1276, in EQ\n    self.expand(second, first.type))\n  File "/Users/josyulakrishna/Documents/web2py_src/web2py/gluon/dal.py", line 1376, in expand\n    return str(self.represent(expression,field_type))\n  File "/Users/josyulakrishna/Documents/web2py_src/web2py/gluon/dal.py", line 1789, in represent\n    obj = obj()\n  File "/Users/josyulakrishna/Documents/web2py_src/web2py/applications/Amplify/controllers/default.py", line 48, in user\n    posts = db(db.user_post.posted_by_user==user).select()\n  File "/Users/josyulakrishna/Documents/web2py_src/web2py/gluon/dal.py", line 9958, in select\n    return adapter.select(self.query,fields,attributes)\n  File "/Users/josyulakrishna/Documents/web2py_src/web2py/gluon/dal.py", line 2245, in select\n    return super(SQLiteAdapter, self).select(query, fields, attributes)\n  File "/Users/josyulakrishna/Documents/web2py_src/web2py/gluon/dal.py", line 1691, in select\n    sql = self._select(query, fields, attributes)\n  File "/Users/josyulakrishna/Documents/web2py_src/web2py/gluon/dal.py", line 1601, in _select\n    sql_w = \' WHERE \' + self.expand(query) if query else \'\'\n  File "/Users/josyulakrishna/Documents/web2py_src/web2py/gluon/dal.py", line 1366, in expand\n    return op(first, second, **optional_args)\n  File "/Users/josyulakrishna/Documents/web2py_src/web2py/gluon/dal.py", line 1276, in EQ\n    self.expand(second, first.type))\n  File "/Users/josyulakrishna/Documents/web2py_src/web2py/gluon/dal.py", line 1376, in expand\n    return str(self.represent(expression,field_type))\n  File "/Users/josyulakrishna/Documents/web2py_src/web2py/gluon/dal.py", line 1789, in represent\n    obj = obj()\n  File "/Users/josyulakrishna/Documents/web2py_src/web2py/applications/Amplify/controllers/default.py", line 48, in user\n    posts = db(db.user_post.posted_by_user==user).select()\n  File "/Users/josyulakrishna/Documents/web2py_src/web2py/gluon/dal.py", line 9958, in select\n    return adapter.select(self.query,fields,attributes)\n  File "/Users/josyulakrishna/Documents/web2py_src/web2py/gluon/dal.py", line 2245, in select\n    return super(SQLiteAdapter, self).select(query, fields, attributes)\n  File "/Users/josyulakrishna/Documents/web2py_src/web2py/gluon/dal.py", line 1691, in select\n    sql = self._select(query, fields, attributes)\n  File "/Users/josyulakrishna/Documents/web2py_src/web2py/gluon/dal.py", line 1601, in _select\n    sql_w = \' WHERE \' + self.expand(query) if query else \'\'\n  File "/Users/josyulakrishna/Documents/web2py_src/web2py/gluon/dal.py", line 1366, in expand\n    return op(first, second, **optional_args)\n  File "/Users/josyulakrishna/Documents/web2py_src/web2py/gluon/dal.py", line 1276, in EQ\n    self.expand(second, first.type))\n  File "/Users/josyulakrishna/Documents/web2py_src/web2py/gluon/dal.py", line 1376, in expand\n    return str(self.represent(expression,field_type))\n  File "/Users/josyulakrishna/Documents/web2py_src/web2py/gluon/dal.py", line 1789, in represent\n    obj = obj()\n  File "/Users/josyulakrishna/Documents/web2py_src/web2py/applications/Amplify/controllers/default.py", line 48, in user\n    posts = db(db.user_post.posted_by_user==user).select()\n  File "/Users/josyulakrishna/Documents/web2py_src/web2py/gluon/dal.py", line 9958, in select\n    return adapter.select(self.query,fields,attributes)\n  File "/Users/josyulakrishna/Documents/web2py_src/web2py/gluon/dal.py", line 2245, in select\n    return super(SQLiteAdapter, self).select(query, fields, attributes)\n  File "/Users/josyulakrishna/Documents/web2py_src/web2py/gluon/dal.py", line 1691, in select\n    sql = self._select(query, fields, attributes)\n  File "/Users/josyulakrishna/Documents/web2py_src/web2py/gluon/dal.py", line 1601, in _select\n    sql_w = \' WHERE \' + self.expand(query) if query else \'\'\n  File "/Users/josyulakrishna/Documents/web2py_src/web2py/gluon/dal.py", line 1366, in expand\n    return op(first, second, **optional_args)\n  File "/Users/josyulakrishna/Documents/web2py_src/web2py/gluon/dal.py", line 1276, in EQ\n    self.expand(second, first.type))\n  File "/Users/josyulakrishna/Documents/web2py_src/web2py/gluon/dal.py", line 1376, in expand\n    return str(self.represent(expression,field_type))\n  File "/Users/josyulakrishna/Documents/web2py_src/web2py/gluon/dal.py", line 1789, in represent\n    obj = obj()\n  File "/Users/josyulakrishna/Documents/web2py_src/web2py/applications/Amplify/controllers/default.py", line 48, in user\n    posts = db(db.user_post.posted_by_user==user).select()\n  File "/Users/josyulakrishna/Documents/web2py_src/web2py/gluon/dal.py", line 9958, in select\n    return adapter.select(self.query,fields,attributes)\n  File "/Users/josyulakrishna/Documents/web2py_src/web2py/gluon/dal.py", line 2245, in select\n    return super(SQLiteAdapter, self).select(query, fields, attributes)\n  File "/Users/josyulakrishna/Documents/web2py_src/web2py/gluon/dal.py", line 1691, in select\n    sql = self._select(query, fields, attributes)\n  File "/Users/josyulakrishna/Documents/web2py_src/web2py/gluon/dal.py", line 1601, in _select\n    sql_w = \' WHERE \' + self.expand(query) if query else \'\'\n  File "/Users/josyulakrishna/Documents/web2py_src/web2py/gluon/dal.py", line 1366, in expand\n    return op(first, second, **optional_args)\n  File "/Users/josyulakrishna/Documents/web2py_src/web2py/gluon/dal.py", line 1276, in EQ\n    self.expand(second, first.type))\n  File "/Users/josyulakrishna/Documents/web2py_src/web2py/gluon/dal.py", line 1376, in expand\n    return str(self.represent(expression,field_type))\n  File "/Users/josyulakrishna/Documents/web2py_src/web2py/gluon/dal.py", line 1789, in represent\n    obj = obj()\n  File "/Users/josyulakrishna/Documents/web2py_src/web2py/applications/Amplify/controllers/default.py", line 48, in user\n    posts = db(db.user_post.posted_by_user==user).select()\n  File "/Users/josyulakrishna/Documents/web2py_src/web2py/gluon/dal.py", line 9958, in select\n    return adapter.select(self.query,fields,attributes)\n  File "/Users/josyulakrishna/Documents/web2py_src/web2py/gluon/dal.py", line 2245, in select\n    return super(SQLiteAdapter, self).select(query, fields, attributes)\n  File "/Users/josyulakrishna/Documents/web2py_src/web2py/gluon/dal.py", line 1691, in select\n    sql = self._select(query, fields, attributes)\n  File "/Users/josyulakrishna/Documents/web2py_src/web2py/gluon/dal.py", line 1601, in _select\n    sql_w = \' WHERE \' + self.expand(query) if query else \'\'\n  File "/Users/josyulakrishna/Documents/web2py_src/web2py/gluon/dal.py", line 1366, in expand\n    return op(first, second, **optional_args)\n  File "/Users/josyulakrishna/Documents/web2py_src/web2py/gluon/dal.py", line 1276, in EQ\n    self.expand(second, first.type))\n  File "/Users/josyulakrishna/Documents/web2py_src/web2py/gluon/dal.py", line 1376, in expand\n    return str(self.represent(expression,field_type))\n  File "/Users/josyulakrishna/Documents/web2py_src/web2py/gluon/dal.py", line 1789, in represent\n    obj = obj()\n  File "/Users/josyulakrishna/Documents/web2py_src/web2py/applications/Amplify/controllers/default.py", line 48, in user\n    posts = db(db.user_post.posted_by_user==user).select()\n  File "/Users/josyulakrishna/Documents/web2py_src/web2py/gluon/dal.py", line 9958, in select\n    return adapter.select(self.query,fields,attributes)\n  File "/Users/josyulakrishna/Documents/web2py_src/web2py/gluon/dal.py", line 2245, in select\n    return super(SQLiteAdapter, self).select(query, fields, attributes)\n  File "/Users/josyulakrishna/Documents/web2py_src/web2py/gluon/dal.py", line 1691, in select\n    sql = self._select(query, fields, attributes)\n  File "/Users/josyulakrishna/Documents/web2py_src/web2py/gluon/dal.py", line 1601, in _select\n    sql_w = \' WHERE \' + self.expand(query) if query else \'\'\n  File "/Users/josyulakrishna/Documents/web2py_src/web2py/gluon/dal.py", line 1366, in expand\n    return op(first, second, **optional_args)\n  File "/Users/josyulakrishna/Documents/web2py_src/web2py/gluon/dal.py", line 1276, in EQ\n    self.expand(second, first.type))\n  File "/Users/josyulakrishna/Documents/web2py_src/web2py/gluon/dal.py", line 1376, in expand\n    return str(self.represent(expression,field_type))\n  File "/Users/josyulakrishna/Documents/web2py_src/web2py/gluon/dal.py", line 1789, in represent\n    obj = obj()\n  File "/Users/josyulakrishna/Documents/web2py_src/web2py/applications/Amplify/controllers/default.py", line 48, in user\n    posts = db(db.user_post.posted_by_user==user).select()\n  File "/Users/josyulakrishna/Documents/web2py_src/web2py/gluon/dal.py", line 9958, in select\n    return adapter.select(self.query,fields,attributes)\n  File "/Users/josyulakrishna/Documents/web2py_src/web2py/gluon/dal.py", line 2245, in select\n    return super(SQLiteAdapter, self).select(query, fields, attributes)\n  File "/Users/josyulakrishna/Documents/web2py_src/web2py/gluon/dal.py", line 1691, in select\n    sql = self._select(query, fields, attributes)\n  File "/Users/josyulakrishna/Documents/web2py_src/web2py/gluon/dal.py", line 1601, in _select\n    sql_w = \' WHERE \' + self.expand(query) if query else \'\'\n  File "/Users/josyulakrishna/Documents/web2py_src/web2py/gluon/dal.py", line 1366, in expand\n    return op(first, second, **optional_args)\n  File "/Users/josyulakrishna/Documents/web2py_src/web2py/gluon/dal.py", line 1276, in EQ\n    self.expand(second, first.type))\n  File "/Users/josyulakrishna/Documents/web2py_src/web2py/gluon/dal.py", line 1376, in expand\n    return str(self.represent(expression,field_type))\n  File "/Users/josyulakrishna/Documents/web2py_src/web2py/gluon/dal.py", line 1789, in represent\n    obj = obj()\n  File "/Users/josyulakrishna/Documents/web2py_src/web2py/applications/Amplify/controllers/default.py", line 48, in user\n    posts = db(db.user_post.posted_by_user==user).select()\n  File "/Users/josyulakrishna/Documents/web2py_src/web2py/gluon/dal.py", line 9005, in __eq__\n    return Query(db, db._adapter.EQ, self, value)\nRuntimeError: maximum recursion depth exceeded while calling a Python object\n'
p11
s.