(dp1
S'output'
p2
S"<type 'exceptions.TypeError'> argument of type 'NoneType' is not iterable"
p3
sS'layer'
p4
S'/Users/josyulakrishna/Documents/web2py_src/web2py/applications/Amplify/views/news/social.html'
p5
sS'code'
p6
S'response.write(\'<!--[if HTML5]><![endif]-->\\n<!DOCTYPE html>\\n<!-- paulirish.com/2008/conditional-stylesheets-vs-css-hacks-answer-neither/ -->\\n<!--[if lt IE 7]><html class="ie ie6 ie-lte9 ie-lte8 ie-lte7 no-js" lang="\', escape=False)\nresponse.write(T.accepted_language or \'en\')\nresponse.write(\'"> <![endif]-->\\n<!--[if IE 7]><html class="ie ie7 ie-lte9 ie-lte8 ie-lte7 no-js" lang="\', escape=False)\nresponse.write(T.accepted_language or \'en\')\nresponse.write(\'"> <![endif]-->\\n<!--[if IE 8]><html class="ie ie8 ie-lte9 ie-lte8 no-js" lang="\', escape=False)\nresponse.write(T.accepted_language or \'en\')\nresponse.write(\'"> <![endif]-->\\n<!--[if IE 9]><html class="ie9 ie-lte9 no-js" lang="\', escape=False)\nresponse.write(T.accepted_language or \'en\')\nresponse.write(\'"> <![endif]-->\\n<!--[if (gt IE 9)|!(IE)]><!--> <html class="no-js" lang="\', escape=False)\nresponse.write(T.accepted_language or \'en\')\nresponse.write(\'"> <!--<![endif]-->\\n<head>\\n<title>\', escape=False)\nresponse.write(response.title or request.application)\nresponse.write(\'</title>\\n  <!--[if !HTML5]>\\n      <meta http-equiv="X-UA-Compatible" content="IE=edge\', escape=False)\nresponse.write(not request.is_local and \',chrome=1\' or \'\')\nresponse.write(\'">\\n  <![endif]-->\\n  <!-- www.phpied.com/conditional-comments-block-downloads/ -->\\n  <!-- Always force latest IE rendering engine\\n       (even in intranet) & Chrome Frame\\n       Remove this if you use the .htaccess -->\\n\\n  <meta charset="utf-8" />\\n  <!--url(\', escape=False)\nresponse.write(URL(\'static\',\'img/brushed.png\'))\nresponse.write(\') repeat;-->\\n  \\n  <!-- http://dev.w3.org/html5/markup/meta.name.html -->\\n  <meta name="application-name" content="\', escape=False)\nresponse.write(request.application)\nresponse.write(\'" />\\n\\n  <!--  Mobile Viewport Fix\\n        j.mp/mobileviewport & davidbcalhoun.com/2010/viewport-metatag\\n        device-width: Occupy full width of the screen in its current orientation\\n        initial-scale = 1.0 retains dimensions instead of zooming out if page height > device height\\n        user-scalable = yes allows the user to zoom in -->\\n  <meta name="viewport" content="width=device-width, initial-scale=1.0" />\\n\\n  <link rel="shortcut icon" href="\', escape=False)\nresponse.write(URL(\'static\',\'images/favicon.ico\'))\nresponse.write(\'" type="image/x-icon">\\n  <link rel="apple-touch-icon" href="\', escape=False)\nresponse.write(URL(\'static\',\'images/favicon.png\'))\nresponse.write(\'">\\n\\n  <!-- All JavaScript at the bottom, except for Modernizr which enables\\n       HTML5 elements & feature detects -->\\n  <script src="\', escape=False)\nresponse.write(URL(\'static\',\'js/modernizr.custom.js\'))\nresponse.write(\'"></script>\\n\\n  <!-- include stylesheets -->\\n  \', escape=False)\n#response.files.append(URL(\'static\',\'css/web2py.css\'))\nresponse.files.append(URL(\'static\',\'css/bootstrap.min.css\'))\nresponse.files.append(URL(\'static\',\'css/bootstrap-responsive.min.css\'))\n#response.files.append(URL(\'static\',\'css/web2py_bootstrap.css\'))\nresponse.files.append(URL(\'static\',\'css/flat-ui.css\'))\nresponse.files.append(URL(\'static\',\'css/sb-admin.css\'))\nresponse.write(\'\\n    \\n\', escape=False)\nresponse.write(\'<script type="text/javascript"><!--\\n    // These variables are used by the web2py_ajax_init function in web2py_ajax.js (which is loaded below).\\n    var w2p_ajax_confirm_message = "\', escape=False)\nresponse.write(T(\'Are you sure you want to delete this object?\'))\nresponse.write(\'";\\n    var w2p_ajax_date_format = "\', escape=False)\nresponse.write(T(\'%Y-%m-%d\'))\nresponse.write(\'";\\n    var w2p_ajax_datetime_format = "\', escape=False)\nresponse.write(T(\'%Y-%m-%d %H:%M:%S\'))\nresponse.write(\'";\\n    var ajax_error_500 = \\\'\', escape=False)\nresponse.write(XML(T(\'An error occured, please %s the page\') % A(T(\'reload\'), _href=URL(args=request.args, vars=request.get_vars))))\nresponse.write("\'\\n    //--></script>\\n", escape=False)\nresponse.files.insert(0,URL(\'static\',\'js/jquery.js\'))\nresponse.files.insert(1,URL(\'static\',\'css/calendar.css\'))\nresponse.files.insert(2,URL(\'static\',\'js/calendar.js\'))\nresponse.files.insert(3,URL(\'static\',\'js/web2py.js\'))\nresponse.include_meta()\nresponse.include_files()\nresponse.write(\'\\n\', escape=False)\nresponse.write(\'\\n  <noscript><link href="\', escape=False)\nresponse.write(URL(\'static\', \'css/web2py_bootstrap_nojs.css\'))\nresponse.write(\'" rel="stylesheet" type="text/css" /></noscript>\\n</head>\\n<body>\\n<!--background-color : #f1f0ee;-->\\n<style>\\nbody{\\n         padding:100px;\\n         \\n         \\n     }\\n</style>\\n<div class="navbar navbar-fixed-top" >\\n\\t<div class="navbar-inner">\\n        <ul class="nav"><li><a href=\', escape=False)\nresponse.write(URL(c=\'default\',f=\'index\'))\nresponse.write(\' style="font-size:25px;">\', escape=False)\nresponse.write(str(response.title))\nresponse.write(\'</a></li></ul>\\n        <ul id="navbar" class="nav pull-right" style="color:white;">\\n            <li><a href=\', escape=False)\nresponse.write(URL(c=\'news\',f=\'social\'))\nresponse.write(\'>News</a><li>\\n            <li><a href=\', escape=False)\nresponse.write(URL(c=\'default\', f =\'interests\'))\nresponse.write(\'>Interests</a><li>\\n            <li>\', escape=False)\nresponse.write(\'auth\' in globals() and auth.navbar(mode="dropdown",referrer_actions=None) or \'\')\nresponse.write(\'</li>\\n            </ul>\\n    </div>\\n</div>\\n    \', escape=False)\nresponse.write(\'\\n<style>\\n\\t\\n\\tbody, html {\\n  \\t\\theight: 100%;\\n\\t}\\n\\n\\t.navbar-inner{\\n        background:rgba(255, 255, 255, 1);\\n    }\\n\\n    .navbar{\\n        border-bottom: 4px solid rgba(46, 204, 113, 1);\\n    }\\n\\n\\t\\n\\t#newsCategories{\\n        height:100%;\\n    }\\n    #newsCategories ul{\\n         list-style-type: none;\\n    }\\n    .side-nav{\\n        padding-top:28px;\\n    }\\n    \\n    .side-nav li a{\\n        padding:225px,50px;\\n        padding-top:20px;\\n        padding-bottom:20px;\\n        border-top:bold;\\n        background:transparent; \\n        font-size: initial;\\n\\t\\tcolor:azure;\\n    }\\n\\n    .nav-menu:hover{\\n        color:black;\\n    }\\n\\n    .myColor{\\n       color:white; \\n    }\\n\\t.input-append .btn.dropdown-toggle {\\n\\t    float: none;\\n\\t}\\n    #create_news::after{\\n        clear:both;\\n    }\\n     .circle {\\n\\t\\t  display: inline-block;\\n\\t\\t  width: 40px;\\n\\t\\t  height: 40px;\\n\\t\\t  margin: 1em auto;\\n\\t\\t  background-size: cover;\\n\\t\\t  background-repeat: no-repeat;\\n\\t\\t  background-position: center center;\\n\\t\\t  -webkit-border-radius: 99em;\\n\\t\\t  -moz-border-radius: 99em;\\n\\t\\t  border-radius: 99em;\\n\\t\\t  border: 5px solid #eee;\\n\\t\\t  box-shadow: 0 3px 2px rgba(0, 0, 0, 0.3);  \\n\\t      z-index: 10000;\\n\\t}\\n    .post{\\n        \\n        \\n    }\\n</style>\\n\\n<script>\\n    $(document).ready(function (){\\n    \\t$(\\\'#post\\\').click(function(){\\n    \\t\\tvar des = $(\\\'#description\\\').val();\\n    \\t\\tvar link = $(\\\'#link\\\').val();\\n            var category = $("#categories").find("option:selected").val();\\n            if (category=="Select"||category==""){\\n                alert("Please select a category");\\n            }\\n            else{\\n            category=category.replace("and", "");\\n            category=category.replace(/ /g,\\\'\\\');\\n\\n            alert(category);\\n            if (link==\\\'\\\'){ \\n\\t\\t\\t\\talert("url cannot be empty");\\n\\t\\t\\t\\t$(\\\'.form-group\\\').addClass("has-error");\\n            }\\n            else{\\n            $.ajax({\\n                url :\\\'post_news\\\',\\n                data : { \\\'des\\\' : des, \\\'link\\\':link,\\\'category\\\':category},\\n            \\tcontext: document.body\\n\\n            }).done(function(){\\n                alert("done");\\n                $(\\\'#description\\\').val(\\\'\\\');\\n                $(\\\'#link\\\').val(\\\'\\\');\\n                });\\n            }\\n       }\\n});//end of the post click function\\n        $(\\\'.like\\\').click(function(){\\n            var id = $(this).attr("postid");\\n           $.ajax({\\n               context: this,\\n               url:\\\'like\\\',\\n               data : {\\\'userid\\\':\', escape=False)\nresponse.write(auth.user_id)\nresponse.write(\', \\\'id\\\':id },\\n\\t\\t\\t   dataType: "json"\\n            }).done(function(response){\\n               response  = $.parseJSON(response)\\n               if( response.like == "like"){\\n\\t            var vote = parseInt($("."+id).text(), 10);\\n\\t\\t\\t    vote = vote+1;           \\n\\t            $(this).text("Unlike");\\n                $("."+id).text(vote);\\n\\n                }\\n               else{\\n\\t\\t\\t\\tvar vote = parseInt($("#votes").text(), 10);\\n\\t\\t\\t    vote = vote-1;\\n\\t\\t    \\t$("."+id).text(vote);                       \\t            \\n\\t            $(this).text("Like");\\n               }\\n            });\\n\\n        });\\n        $(\\\'.Category\\\').click(function(){\\n            var category =  $(this).html();\\n            $.ajax({\\n                \\turl: \\\'\', escape=False)\nresponse.write(URL(\'news\',\'fetchNews\'))\nresponse.write(\'\\\',\\n                   data: {\\\'category\\\':category}\\n                   }).done(function(){\\n                   \\t\\n                   });\\n        });\\n        $(".side-nav li a").click(function(){\\n        \\tvar myId = $(this).attr("id");\\n        \\t$(\\\'.posts div[class!=\\\' + myId + \\\']\\\').toggle()\\n        \\t\\n        });\\n    \\n    \\n    });\\n</script>\\n\\n\', escape=False)\nnewsbar_enabled = False\nresponse.write(\'\\n<br><br>\\n\', escape=False)\nif fill:\n    response.write(\'\\n\', escape=False)\n    newsbar_enabled = True\n    response.write(\'\\n\\n\', escape=False)\n    pass\nresponse.write(\'\\n\\n\\n   <nav>\\n    <div class="collapse navbar-collapse navbar-ex1-collapse">\\n          <ul class="nav navbar-nav side-nav ">\\n\\t        \', escape=False)\nfor category in allCategories:\n    response.write(\'\\n              \', escape=False)\n    cat = category.replace("and",\'\').replace(" ",\'\')\n    response.write(\' \\n              \', escape=False)\n    response.write(LI(A(category, _class="nav-menu" ,_id=cat)))\n    response.write(\'\\n        \\t\', escape=False)\n    pass\nresponse.write(\'\\n\\t      </ul>    \\n\\t</div><!-- navbar brand-->\\n\\t</nav>\\n<div style="margin-left:228px;">\\n    \\t\\t<h1 class="lead">Post your thoughts here!</h1>\\n    \\t\\t<div id=\\\'create_news\\\'>\\n                <textarea id = "description" placeholder="what\\\'s on your mind?"></textarea>             \\n\\t\\t\\t\\t<div  class="form-group">\\n\\t        \\t<input type="text" value="" id="link" placeholder="URL" class="form-control">\\n                </div>\\n\\t\\t\\t\\t<select id="categories">\\n                  <option id="category" value="Select">Select</option>\\n\\t\\t\\t\\t  \', escape=False)\nfor category in allCategories:\n    response.write(\'\\n\\t\\t\\t\\t  <option id="category" value="\', escape=False)\n    response.write(category)\n    response.write(\'">\', escape=False)\n    response.write(category)\n    response.write(\'</option>\\n           \\t\\t\', escape=False)\n    pass\nresponse.write(\'\\n\\t\\t\\t\\t</select>\\n<button id="post" type="submit" style="margin-left:20px;padding-left:30px;padding-right:30px;" class="btn btn-warning">Post!</button>\\n\\t\\t\\t</div>\\n\', escape=False)\nif newsbar_enabled:\n    response.write(\'\\n\', escape=False)\n    response.write(\'\\n    <div class="row-fluid ">\\n        <hr style="color:green">\\n        <div class = "span12 posts" style="border-top:3px,meduim,green;">\\n            \\t\\t<h1 class="lead">Thoughts for you</h1>\\n                        \', escape=False)\n    for key in posts.keys():\n        response.write(\'\\n                        \\t\', escape=False)\n        for post in posts[key]:\n            response.write(\'\\n                        <div class="\', escape=False)\n            response.write(post[3])\n            response.write(\'" >\\n                        <span class="circle" style=\\\'background-image:url(\', escape=False)\n            response.write(Gravatar(key[1]).thumb)\n            response.write(\')\\\'\\n                         onclick="location.href=\\\'\', escape=False)\n            response.write(URL(c="default", f="userprofile", args=[key[2]]))\n            response.write(\'\\\'" ></span> \\n\\t\\t<p><span style="padding-right:10px"><strong id="votes" class="\', escape=False)\n            response.write(post[4])\n            response.write(\'" >\', escape=False)\n            response.write(len(post[2]) if post[2] else 0)\n            response.write(\'</strong></span> \', escape=False)\n            response.write(post[0])\n            response.write(\'</p>                      <a href="\', escape=False)\n            response.write(post[1])\n            response.write(\'">\', escape=False)\n            response.write(post[1])\n            response.write(\'</a> \\n                            <button class = "btn btn-inverse like" style="margin-left:20px" postid="\', escape=False)\n            response.write(post[4])\n            response.write(\'">\', escape=False)\n            print(post[2])\n            response.write("Like" if post[2] else "Unlike" if auth.user_id in post[2] else "Like")\n            response.write(\'</button>\\n\\t\\t                 </div>\\n                        \\t\', escape=False)\n            pass\n        response.write(\'\\n                        \', escape=False)\n        pass\n    response.write(\'\\n\\t\\t\\t\\t\\t</div><!--News Stream-->\\n    </div>\\n\', escape=False)\n    response.write(\'\\n\', escape=False)\nelse:\n    response.write(\'\\n    <p>    <a href="\', escape=False)\n    response.write(URL(c="default",f="interests"))\n    response.write(\'"> Please fill out your interests to see this </a></p>\\n\\n\', escape=False)\n    pass\nresponse.write(\'\\n</div>\\n\', escape=False)\nresponse.write(\'\\n\\n  <!-- The javascript =============================================\\n       (Placed at the end of the document so the pages load faster) -->\\n  <script src="\', escape=False)\nresponse.write(URL(\'static\',\'js/bootstrap.min.js\'))\nresponse.write(\'"></script>\\n  <script src="\', escape=False)\nresponse.write(URL(\'static\',\'js/web2py_bootstrap.js\'))\nresponse.write(\'"></script>\\n  <script src="\', escape=False)\nresponse.write(URL(\'static\',\'js/less.js\'))\nresponse.write(\'"></script>\\n  <!--[if lt IE 7 ]>\\n      <script src="\', escape=False)\nresponse.write(URL(\'static\',\'js/dd_belatedpng.js\'))\nresponse.write(\'"></script>\\n      <script> DD_belatedPNG.fix(\\\'img, .png_bg\\\'); //fix any <img> or .png_bg background-images </script>\\n      <![endif]-->\\n\\n  \', escape=False)\nif response.google_analytics_id:\n    response.write(\'\\n  <script src="\', escape=False)\n    response.write(URL(\'static\',\'js/analytics.min.js\'))\n    response.write(\'"></script>\\n  <script type="text/javascript">\\n  analytics.initialize({\\n    \\\'Google Analytics\\\':{trackingId:\\\'\', escape=False)\n    response.write(response.google_analytics_id)\n    response.write("\'}\\n  });</script>\\n  ", escape=False)\n    pass\nresponse.write(\'\\n  \\n    <script src="\', escape=False)\nresponse.write(URL(\'static\',\'js/share.js\',vars=dict(static=URL(\'static\',\'img\'))))\nresponse.write(\'"></script>\\n</body>\\n</html>\\n\', escape=False)'
p7
sS'snapshot'
p8
(dp9
S'exception'
p10
(dp11
S'__hash__'
p12
S"<method-wrapper '__hash__' of exceptions.TypeError object>"
p13
sS'__setattr__'
p14
S"<method-wrapper '__setattr__' of exceptions.TypeError object>"
p15
sS'__reduce_ex__'
p16
S'<built-in method __reduce_ex__ of exceptions.TypeError object>'
p17
sS'__getslice__'
p18
S"<method-wrapper '__getslice__' of exceptions.TypeError object>"
p19
sS'__getitem__'
p20
S"<method-wrapper '__getitem__' of exceptions.TypeError object>"
p21
sS'__setstate__'
p22
S'<built-in method __setstate__ of exceptions.TypeError object>'
p23
sS'args'
p24
S'("argument of type \'NoneType\' is not iterable",)'
p25
sS'__reduce__'
p26
S'<built-in method __reduce__ of exceptions.TypeError object>'
p27
sS'__str__'
p28
S"<method-wrapper '__str__' of exceptions.TypeError object>"
p29
sS'__format__'
p30
S'<built-in method __format__ of exceptions.TypeError object>'
p31
sS'__getattribute__'
p32
S"<method-wrapper '__getattribute__' of exceptions.TypeError object>"
p33
sS'__class__'
p34
S"<type 'exceptions.TypeError'>"
p35
sS'__unicode__'
p36
S'<built-in method __unicode__ of exceptions.TypeError object>'
p37
sS'__delattr__'
p38
S"<method-wrapper '__delattr__' of exceptions.TypeError object>"
p39
sS'__subclasshook__'
p40
S'<built-in method __subclasshook__ of type object>'
p41
sS'__repr__'
p42
S"<method-wrapper '__repr__' of exceptions.TypeError object>"
p43
sS'__dict__'
p44
S'{}'
p45
sS'__sizeof__'
p46
S'<built-in method __sizeof__ of exceptions.TypeError object>'
p47
sS'__doc__'
p48
S"'Inappropriate argument type.'"
p49
sS'__init__'
p50
S"<method-wrapper '__init__' of exceptions.TypeError object>"
p51
sS'__new__'
p52
S'<built-in method __new__ of type object>'
p53
ssS'evalue'
p54
S"argument of type 'NoneType' is not iterable"
p55
sS'request'
p56
cgluon.html
XML_unpickle
p57
(S'sjj\x00\x00<div><table><tr><td style="font-weight:bold;vertical-align:top">ajax</td><td valign="top">:</td><td><div>False</div></td></tr><tr><td style="font-weight:bold;vertical-align:top">application</td><td valign="top">:</td><td><div>Amplify</div></td></tr><tr><td style="font-weight:bold;vertical-align:top">args</td><td valign="top">:</td><td><div><table></table></div></td></tr><tr><td style="font-weight:bold;vertical-align:top">body</td><td valign="top">:</td><td><div>&lt;cStringIO.StringO object at 0x10af68fb8&gt;</div></td></tr><tr><td style="font-weight:bold;vertical-align:top">cid</td><td valign="top">:</td><td><div>None</div></td></tr><tr><td style="font-weight:bold;vertical-align:top">client</td><td valign="top">:</td><td><div>127.0.0.1</div></td></tr><tr><td style="font-weight:bold;vertical-align:top">controller</td><td valign="top">:</td><td><div>news</div></td></tr><tr><td style="font-weight:bold;vertical-align:top">cookies</td><td valign="top">:</td><td><div><table><tr><td style="font-weight:bold;vertical-align:top">session_id_admin</td><td valign="top">:</td><td><div>127.0.0.1-7db7eefc-9f83-40e3-8599-b6f9393cf31d<table><tr><td style="font-weight:bold;vertical-align:top">comment</td><td valign="top">:</td><td><div></div></td></tr><tr><td style="font-weight:bold;vertical-align:top">domain</td><td valign="top">:</td><td><div></div></td></tr><tr><td style="font-weight:bold;vertical-align:top">expires</td><td valign="top">:</td><td><div></div></td></tr><tr><td style="font-weight:bold;vertical-align:top">httponly</td><td valign="top">:</td><td><div></div></td></tr><tr><td style="font-weight:bold;vertical-align:top">max-age</td><td valign="top">:</td><td><div></div></td></tr><tr><td style="font-weight:bold;vertical-align:top">path</td><td valign="top">:</td><td><div></div></td></tr><tr><td style="font-weight:bold;vertical-align:top">secure</td><td valign="top">:</td><td><div></div></td></tr><tr><td style="font-weight:bold;vertical-align:top">version</td><td valign="top">:</td><td><div></div></td></tr></table></div></td></tr><tr><td style="font-weight:bold;vertical-align:top">session_id_amplify</td><td valign="top">:</td><td><div>127.0.0.1-6dbe842e-d6c9-4345-851e-5914f55a0026<table><tr><td style="font-weight:bold;vertical-align:top">comment</td><td valign="top">:</td><td><div></div></td></tr><tr><td style="font-weight:bold;vertical-align:top">domain</td><td valign="top">:</td><td><div></div></td></tr><tr><td style="font-weight:bold;vertical-align:top">expires</td><td valign="top">:</td><td><div></div></td></tr><tr><td style="font-weight:bold;vertical-align:top">httponly</td><td valign="top">:</td><td><div></div></td></tr><tr><td style="font-weight:bold;vertical-align:top">max-age</td><td valign="top">:</td><td><div></div></td></tr><tr><td style="font-weight:bold;vertical-align:top">path</td><td valign="top">:</td><td><div></div></td></tr><tr><td style="font-weight:bold;vertical-align:top">secure</td><td valign="top">:</td><td><div></div></td></tr><tr><td style="font-weight:bold;vertical-align:top">version</td><td valign="top">:</td><td><div></div></td></tr></table></div></td></tr><tr><td style="font-weight:bold;vertical-align:top">session_id_amplifyprototype</td><td valign="top">:</td><td><div>127.0.0.1-15740f78-a69b-423c-8f9a-98136689fda4<table><tr><td style="font-weight:bold;vertical-align:top">comment</td><td valign="top">:</td><td><div></div></td></tr><tr><td style="font-weight:bold;vertical-align:top">domain</td><td valign="top">:</td><td><div></div></td></tr><tr><td style="font-weight:bold;vertical-align:top">expires</td><td valign="top">:</td><td><div></div></td></tr><tr><td style="font-weight:bold;vertical-align:top">httponly</td><td valign="top">:</td><td><div></div></td></tr><tr><td style="font-weight:bold;vertical-align:top">max-age</td><td valign="top">:</td><td><div></div></td></tr><tr><td style="font-weight:bold;vertical-align:top">path</td><td valign="top">:</td><td><div></div></td></tr><tr><td style="font-weight:bold;vertical-align:top">secure</td><td valign="top">:</td><td><div></div></td></tr><tr><td style="font-weight:bold;vertical-align:top">version</td><td valign="top">:</td><td><div></div></td></tr></table></div></td></tr><tr><td style="font-weight:bold;vertical-align:top">session_id_facebookclone</td><td valign="top">:</td><td><div>127.0.0.1-11c060a6-b0dd-41b0-b301-dfd7cc431b50<table><tr><td style="font-weight:bold;vertical-align:top">comment</td><td valign="top">:</td><td><div></div></td></tr><tr><td style="font-weight:bold;vertical-align:top">domain</td><td valign="top">:</td><td><div></div></td></tr><tr><td style="font-weight:bold;vertical-align:top">expires</td><td valign="top">:</td><td><div></div></td></tr><tr><td style="font-weight:bold;vertical-align:top">httponly</td><td valign="top">:</td><td><div></div></td></tr><tr><td style="font-weight:bold;vertical-align:top">max-age</td><td valign="top">:</td><td><div></div></td></tr><tr><td style="font-weight:bold;vertical-align:top">path</td><td valign="top">:</td><td><div></div></td></tr><tr><td style="font-weight:bold;vertical-align:top">secure</td><td valign="top">:</td><td><div></div></td></tr><tr><td style="font-weight:bold;vertical-align:top">version</td><td valign="top">:</td><td><div></div></td></tr></table></div></td></tr><tr><td style="font-weight:bold;vertical-align:top">session_id_taskscheduler</td><td valign="top">:</td><td><div>127.0.0.1-4244ae84-7294-4b20-bc0c-3050812c06f6<table><tr><td style="font-weight:bold;vertical-align:top">comment</td><td valign="top">:</td><td><div></div></td></tr><tr><td style="font-weight:bold;vertical-align:top">domain</td><td valign="top">:</td><td><div></div></td></tr><tr><td style="font-weight:bold;vertical-align:top">expires</td><td valign="top">:</td><td><div></div></td></tr><tr><td style="font-weight:bold;vertical-align:top">httponly</td><td valign="top">:</td><td><div></div></td></tr><tr><td style="font-weight:bold;vertical-align:top">max-age</td><td valign="top">:</td><td><div></div></td></tr><tr><td style="font-weight:bold;vertical-align:top">path</td><td valign="top">:</td><td><div></div></td></tr><tr><td style="font-weight:bold;vertical-align:top">secure</td><td valign="top">:</td><td><div></div></td></tr><tr><td style="font-weight:bold;vertical-align:top">version</td><td valign="top">:</td><td><div></div></td></tr></table></div></td></tr><tr><td style="font-weight:bold;vertical-align:top">session_id_tryfacebookapi</td><td valign="top">:</td><td><div>127.0.0.1-83db9b5d-75e2-4537-8552-73abfada2711<table><tr><td style="font-weight:bold;vertical-align:top">comment</td><td valign="top">:</td><td><div></div></td></tr><tr><td style="font-weight:bold;vertical-align:top">domain</td><td valign="top">:</td><td><div></div></td></tr><tr><td style="font-weight:bold;vertical-align:top">expires</td><td valign="top">:</td><td><div></div></td></tr><tr><td style="font-weight:bold;vertical-align:top">httponly</td><td valign="top">:</td><td><div></div></td></tr><tr><td style="font-weight:bold;vertical-align:top">max-age</td><td valign="top">:</td><td><div></div></td></tr><tr><td style="font-weight:bold;vertical-align:top">path</td><td valign="top">:</td><td><div></div></td></tr><tr><td style="font-weight:bold;vertical-align:top">secure</td><td valign="top">:</td><td><div></div></td></tr><tr><td style="font-weight:bold;vertical-align:top">version</td><td valign="top">:</td><td><div></div></td></tr></table></div></td></tr><tr><td style="font-weight:bold;vertical-align:top">session_id_welcome</td><td valign="top">:</td><td><div>127.0.0.1-c2214d19-5b00-46c5-85d5-f8a0f736ae3d<table><tr><td style="font-weight:bold;vertical-align:top">comment</td><td valign="top">:</td><td><div></div></td></tr><tr><td style="font-weight:bold;vertical-align:top">domain</td><td valign="top">:</td><td><div></div></td></tr><tr><td style="font-weight:bold;vertical-align:top">expires</td><td valign="top">:</td><td><div></div></td></tr><tr><td style="font-weight:bold;vertical-align:top">httponly</td><td valign="top">:</td><td><div></div></td></tr><tr><td style="font-weight:bold;vertical-align:top">max-age</td><td valign="top">:</td><td><div></div></td></tr><tr><td style="font-weight:bold;vertical-align:top">path</td><td valign="top">:</td><td><div></div></td></tr><tr><td style="font-weight:bold;vertical-align:top">secure</td><td valign="top">:</td><td><div></div></td></tr><tr><td style="font-weight:bold;vertical-align:top">version</td><td valign="top">:</td><td><div></div></td></tr></table></div></td></tr></table></div></td></tr><tr><td style="font-weight:bold;vertical-align:top">env</td><td valign="top">:</td><td><div><table><tr><td style="font-weight:bold;vertical-align:top">app_folders</td><td valign="top">:</td><td><div>set([&#x27;/Users/josyulakrishna/Documents/web2py_src/web2py/applications/welcome/&#x27;, &#x27;/Users/josyulakrishna/Documents/web2py_src/web2py/applications/admin/&#x27;, &#x27;/Users/josyulakrishna/Documents/web2py_src/web2py/applications/Amplify/&#x27;])</div></td></tr><tr><td style="font-weight:bold;vertical-align:top">applications_parent</td><td valign="top">:</td><td><div>/Users/josyulakrishna/Documents/web2py_src/web2py</div></td></tr><tr><td style="font-weight:bold;vertical-align:top">cmd_args</td><td valign="top">:</td><td><div><table></table></div></td></tr><tr><td style="font-weight:bold;vertical-align:top">cmd_options</td><td valign="top">:</td><td><div>&lt;Values at 0x103bd9c68: {&#x27;verbose&#x27;: False, &#x27;ip&#x27;: &#x27;127.0.0.1&#x27;, &#x27;with_scheduler&#x27;: False, &#x27;ips&#x27;: [&#x27;69.43.160.163&#x27;], &#x27;shutdown_timeout&#x27;: 5, &#x27;taskbar&#x27;: False, &#x27;with_coverage&#x27;: False, &#x27;port&#x27;: 8000, &#x27;maxthreads&#x27;: None, &#x27;softcron&#x27;: False, &#x27;server_name&#x27;: &#x27;static-173.53.96.14-tataidc.co.in&#x27;, &#x27;bpython&#x27;: False, &#x27;nogui&#x27;: False, &#x27;pid_filename&#x27;: &#x27;httpserver.pid&#x27;, &#x27;extcron&#x27;: False, &#x27;runcron&#x27;: False, &#x27;run_system_tests&#x27;: False, &#x27;test&#x27;: None, &#x27;folder&#x27;: &#x27;/Users/josyulakrishna/Documents/web2py_src/web2py&#x27;, &#x27;config&#x27;: &#x27;&#x27;, &#x27;minthreads&#x27;: None, &#x27;winservice&#x27;: &#x27;&#x27;, &#x27;shell&#x27;: None, &#x27;run&#x27;: &#x27;&#x27;, &#x27;log_filename&#x27;: &#x27;httpserver.log&#x27;, &#x27;debuglevel&#x27;: 30, &#x27;args&#x27;: [&#x27;&#x27;], &#x27;socket_timeout&#x27;: 5, &#x27;ssl_ca_certificate&#x27;: None, &#x27;scheduler&#x27;: None, &#x27;profiler_filename&#x27;: None, &#x27;ssl_private_key&#x27;: &#x27;&#x27;, &#x27;scheduler_groups&#x27;: None, &#x27;password&#x27;: &#x27;&lt;ask&gt;&#x27;, &#x27;request_queue_size&#x27;: 5, &#x27;ssl_certificate&#x27;: &#x27;&#x27;, &#x27;cronjob&#x27;: False, &#x27;numthreads&#x27;: None, &#x27;quiet&#x27;: False, &#x27;interfaces&#x27;: None, &#x27;import_models&#x27;: False, &#x27;timeout&#x27;: 10, &#x27;plain&#x27;: False, &#x27;nobanner&#x27;: False}&gt;</div></td></tr><tr><td style="font-weight:bold;vertical-align:top">db_sessions</td><td valign="top">:</td><td><div>set([])</div></td></tr><tr><td style="font-weight:bold;vertical-align:top">debugging</td><td valign="top">:</td><td><div>True</div></td></tr><tr><td style="font-weight:bold;vertical-align:top">gluon_parent</td><td valign="top">:</td><td><div>/Users/josyulakrishna/Documents/web2py_src/web2py</div></td></tr><tr><td style="font-weight:bold;vertical-align:top">http_accept</td><td valign="top">:</td><td><div>text/html,application/xhtml+xml,application/xml;q=0.9,image/webp,*/*;q=0.8</div></td></tr><tr><td style="font-weight:bold;vertical-align:top">http_accept_encoding</td><td valign="top">:</td><td><div>gzip,deflate,sdch</div></td></tr><tr><td style="font-weight:bold;vertical-align:top">http_accept_language</td><td valign="top">:</td><td><div>en-US,en;q=0.8</div></td></tr><tr><td style="font-weight:bold;vertical-align:top">http_cache_control</td><td valign="top">:</td><td><div>max-age=0</div></td></tr><tr><td style="font-weight:bold;vertical-align:top">http_connection</td><td valign="top">:</td><td><div>keep-alive</div></td></tr><tr><td style="font-weight:bold;vertical-align:top">http_cookie</td><td valign="top">:</td><td><div>session_id_facebookclone=127.0.0.1-11c060a6-b0dd-41b0-b301-dfd7cc431b50; session_id_tryfacebookapi=127.0.0.1-83db9b5d-75e2-4537-8552-73abfada2711; session_id_taskscheduler=127.0.0.1-4244ae84-7294-4b20-bc0c-3050812c06f6; session_id_amplifyprototype=127.0.0.1-15740f78-a69b-423c-8f9a-98136689fda4; session_id_welcome=127.0.0.1-c2214d19-5b00-46c5-85d5-f8a0f736ae3d; session_id_amplify=127.0.0.1-6dbe842e-d6c9-4345-851e-5914f55a0026; session_id_admin=127.0.0.1-7db7eefc-9f83-40e3-8599-b6f9393cf31d</div></td></tr><tr><td style="font-weight:bold;vertical-align:top">http_host</td><td valign="top">:</td><td><div>127.0.0.1:8000</div></td></tr><tr><td style="font-weight:bold;vertical-align:top">http_referer</td><td valign="top">:</td><td><div>http://127.0.0.1:8000/Amplify/default/user/login</div></td></tr><tr><td style="font-weight:bold;vertical-align:top">http_user_agent</td><td valign="top">:</td><td><div>Mozilla/5.0 (Macintosh; Intel Mac OS X 10_9_2) AppleWebKit/537.36 (KHTML, like Gecko) Chrome/34.0.1847.131 Safari/537.36</div></td></tr><tr><td style="font-weight:bold;vertical-align:top">is_jython</td><td valign="top">:</td><td><div>False</div></td></tr><tr><td style="font-weight:bold;vertical-align:top">is_pypy</td><td valign="top">:</td><td><div>False</div></td></tr><tr><td style="font-weight:bold;vertical-align:top">local_hosts</td><td valign="top">:</td><td><div><table><tr><td><div>69.43.160.163</div></td></tr><tr><td><div>::1</div></td></tr><tr><td><div>::ffff:127.0.0.1</div></td></tr><tr><td><div>127.0.0.1</div></td></tr><tr><td><div>static-173.53.96.14-tataidc.co.in</div></td></tr></table></div></td></tr><tr><td style="font-weight:bold;vertical-align:top">path_info</td><td valign="top">:</td><td><div>/Amplify/news/social</div></td></tr><tr><td style="font-weight:bold;vertical-align:top">query_string</td><td valign="top">:</td><td><div></div></td></tr><tr><td style="font-weight:bold;vertical-align:top">remote_addr</td><td valign="top">:</td><td><div>127.0.0.1</div></td></tr><tr><td style="font-weight:bold;vertical-align:top">remote_port</td><td valign="top">:</td><td><div>51582</div></td></tr><tr><td style="font-weight:bold;vertical-align:top">request_method</td><td valign="top">:</td><td><div>GET</div></td></tr><tr><td style="font-weight:bold;vertical-align:top">request_uri</td><td valign="top">:</td><td><div>/Amplify/news/social</div></td></tr><tr><td style="font-weight:bold;vertical-align:top">script_name</td><td valign="top">:</td><td><div></div></td></tr><tr><td style="font-weight:bold;vertical-align:top">server_name</td><td valign="top">:</td><td><div>static-173.53.96.14-tataidc.co.in</div></td></tr><tr><td style="font-weight:bold;vertical-align:top">server_port</td><td valign="top">:</td><td><div>8000</div></td></tr><tr><td style="font-weight:bold;vertical-align:top">server_protocol</td><td valign="top">:</td><td><div>HTTP/1.1</div></td></tr><tr><td style="font-weight:bold;vertical-align:top">server_software</td><td valign="top">:</td><td><div>Rocket 1.2.6</div></td></tr><tr><td style="font-weight:bold;vertical-align:top">web2py_path</td><td valign="top">:</td><td><div>/Users/josyulakrishna/Documents/web2py_src/web2py</div></td></tr><tr><td style="font-weight:bold;vertical-align:top">web2py_version</td><td valign="top">:</td><td><div>2.5.1-stable+timestamp.2013.06.06.15.39.19</div></td></tr><tr><td style="font-weight:bold;vertical-align:top">wsgi_errors</td><td valign="top">:</td><td><div>&lt;open file &#x27;&lt;stderr&gt;&#x27;, mode &#x27;w&#x27; at 0x10028e1e0&gt;</div></td></tr><tr><td style="font-weight:bold;vertical-align:top">wsgi_file_wrapper</td><td valign="top">:</td><td><div>&lt;class wsgiref.util.FileWrapper at 0x10379f4c8&gt;</div></td></tr><tr><td style="font-weight:bold;vertical-align:top">wsgi_input</td><td valign="top">:</td><td><div>&lt;socket._fileobject object at 0x10afa6950&gt;</div></td></tr><tr><td style="font-weight:bold;vertical-align:top">wsgi_multiprocess</td><td valign="top">:</td><td><div>False</div></td></tr><tr><td style="font-weight:bold;vertical-align:top">wsgi_multithread</td><td valign="top">:</td><td><div>True</div></td></tr><tr><td style="font-weight:bold;vertical-align:top">wsgi_run_once</td><td valign="top">:</td><td><div>False</div></td></tr><tr><td style="font-weight:bold;vertical-align:top">wsgi_url_scheme</td><td valign="top">:</td><td><div>http</div></td></tr><tr><td style="font-weight:bold;vertical-align:top">wsgi_version</td><td valign="top">:</td><td><div><table><tr><td><div>1</div></td></tr><tr><td><div>0</div></td></tr></table></div></td></tr></table></div></td></tr><tr><td style="font-weight:bold;vertical-align:top">extension</td><td valign="top">:</td><td><div>html</div></td></tr><tr><td style="font-weight:bold;vertical-align:top">folder</td><td valign="top">:</td><td><div>/Users/josyulakrishna/Documents/web2py_src/web2py/applications/Amplify/</div></td></tr><tr><td style="font-weight:bold;vertical-align:top">function</td><td valign="top">:</td><td><div>social</div></td></tr><tr><td style="font-weight:bold;vertical-align:top">get_vars</td><td valign="top">:</td><td><div><table></table></div></td></tr><tr><td style="font-weight:bold;vertical-align:top">global_settings</td><td valign="top">:</td><td><div><table><tr><td style="font-weight:bold;vertical-align:top">app_folders</td><td valign="top">:</td><td><div>set([&#x27;/Users/josyulakrishna/Documents/web2py_src/web2py/applications/welcome/&#x27;, &#x27;/Users/josyulakrishna/Documents/web2py_src/web2py/applications/admin/&#x27;, &#x27;/Users/josyulakrishna/Documents/web2py_src/web2py/applications/Amplify/&#x27;])</div></td></tr><tr><td style="font-weight:bold;vertical-align:top">applications_parent</td><td valign="top">:</td><td><div>/Users/josyulakrishna/Documents/web2py_src/web2py</div></td></tr><tr><td style="font-weight:bold;vertical-align:top">cmd_args</td><td valign="top">:</td><td><div><table></table></div></td></tr><tr><td style="font-weight:bold;vertical-align:top">cmd_options</td><td valign="top">:</td><td><div>&lt;Values at 0x103bd9c68: {&#x27;verbose&#x27;: False, &#x27;ip&#x27;: &#x27;127.0.0.1&#x27;, &#x27;with_scheduler&#x27;: False, &#x27;ips&#x27;: [&#x27;69.43.160.163&#x27;], &#x27;shutdown_timeout&#x27;: 5, &#x27;taskbar&#x27;: False, &#x27;with_coverage&#x27;: False, &#x27;port&#x27;: 8000, &#x27;maxthreads&#x27;: None, &#x27;softcron&#x27;: False, &#x27;server_name&#x27;: &#x27;static-173.53.96.14-tataidc.co.in&#x27;, &#x27;bpython&#x27;: False, &#x27;nogui&#x27;: False, &#x27;pid_filename&#x27;: &#x27;httpserver.pid&#x27;, &#x27;extcron&#x27;: False, &#x27;runcron&#x27;: False, &#x27;run_system_tests&#x27;: False, &#x27;test&#x27;: None, &#x27;folder&#x27;: &#x27;/Users/josyulakrishna/Documents/web2py_src/web2py&#x27;, &#x27;config&#x27;: &#x27;&#x27;, &#x27;minthreads&#x27;: None, &#x27;winservice&#x27;: &#x27;&#x27;, &#x27;shell&#x27;: None, &#x27;run&#x27;: &#x27;&#x27;, &#x27;log_filename&#x27;: &#x27;httpserver.log&#x27;, &#x27;debuglevel&#x27;: 30, &#x27;args&#x27;: [&#x27;&#x27;], &#x27;socket_timeout&#x27;: 5, &#x27;ssl_ca_certificate&#x27;: None, &#x27;scheduler&#x27;: None, &#x27;profiler_filename&#x27;: None, &#x27;ssl_private_key&#x27;: &#x27;&#x27;, &#x27;scheduler_groups&#x27;: None, &#x27;password&#x27;: &#x27;&lt;ask&gt;&#x27;, &#x27;request_queue_size&#x27;: 5, &#x27;ssl_certificate&#x27;: &#x27;&#x27;, &#x27;cronjob&#x27;: False, &#x27;numthreads&#x27;: None, &#x27;quiet&#x27;: False, &#x27;interfaces&#x27;: None, &#x27;import_models&#x27;: False, &#x27;timeout&#x27;: 10, &#x27;plain&#x27;: False, &#x27;nobanner&#x27;: False}&gt;</div></td></tr><tr><td style="font-weight:bold;vertical-align:top">db_sessions</td><td valign="top">:</td><td><div>set([])</div></td></tr><tr><td style="font-weight:bold;vertical-align:top">debugging</td><td valign="top">:</td><td><div>True</div></td></tr><tr><td style="font-weight:bold;vertical-align:top">gluon_parent</td><td valign="top">:</td><td><div>/Users/josyulakrishna/Documents/web2py_src/web2py</div></td></tr><tr><td style="font-weight:bold;vertical-align:top">is_jython</td><td valign="top">:</td><td><div>False</div></td></tr><tr><td style="font-weight:bold;vertical-align:top">is_pypy</td><td valign="top">:</td><td><div>False</div></td></tr><tr><td style="font-weight:bold;vertical-align:top">local_hosts</td><td valign="top">:</td><td><div><table><tr><td><div>69.43.160.163</div></td></tr><tr><td><div>::1</div></td></tr><tr><td><div>::ffff:127.0.0.1</div></td></tr><tr><td><div>127.0.0.1</div></td></tr><tr><td><div>static-173.53.96.14-tataidc.co.in</div></td></tr></table></div></td></tr><tr><td style="font-weight:bold;vertical-align:top">web2py_version</td><td valign="top">:</td><td><div>2.5.1-stable+timestamp.2013.06.06.15.39.19</div></td></tr></table></div></td></tr><tr><td style="font-weight:bold;vertical-align:top">is_https</td><td valign="top">:</td><td><div>False</div></td></tr><tr><td style="font-weight:bold;vertical-align:top">is_local</td><td valign="top">:</td><td><div>True</div></td></tr><tr><td style="font-weight:bold;vertical-align:top">is_restful</td><td valign="top">:</td><td><div>False</div></td></tr><tr><td style="font-weight:bold;vertical-align:top">now</td><td valign="top">:</td><td><div>datetime.datetime(2014, 4, 30, 17, 40, 11, 993542)</div></td></tr><tr><td style="font-weight:bold;vertical-align:top">post_vars</td><td valign="top">:</td><td><div><table></table></div></td></tr><tr><td style="font-weight:bold;vertical-align:top">raw_args</td><td valign="top">:</td><td><div></div></td></tr><tr><td style="font-weight:bold;vertical-align:top">raw_extension</td><td valign="top">:</td><td><div>None</div></td></tr><tr><td style="font-weight:bold;vertical-align:top">url</td><td valign="top">:</td><td><div>/Amplify/news/social</div></td></tr><tr><td style="font-weight:bold;vertical-align:top">utcnow</td><td valign="top">:</td><td><div>datetime.datetime(2014, 4, 30, 12, 10, 11, 993550)</div></td></tr><tr><td style="font-weight:bold;vertical-align:top">uuid</td><td valign="top">:</td><td><div>Amplify/127.0.0.1.2014-04-30.17-40-11.8394426a-4b49-4e12-ba46-4e887572d628</div></td></tr><tr><td style="font-weight:bold;vertical-align:top">vars</td><td valign="top">:</td><td><div><table></table></div></td></tr><tr><td style="font-weight:bold;vertical-align:top">wsgi</td><td valign="top">:</td><td><div><table><tr><td style="font-weight:bold;vertical-align:top">environ</td><td valign="top">:</td><td><div><table><tr><td style="font-weight:bold;vertical-align:top">HTTP_ACCEPT</td><td valign="top">:</td><td><div>text/html,application/xhtml+xml,application/xml;q=0.9,image/webp,*/*;q=0.8</div></td></tr><tr><td style="font-weight:bold;vertical-align:top">HTTP_ACCEPT_ENCODING</td><td valign="top">:</td><td><div>gzip,deflate,sdch</div></td></tr><tr><td style="font-weight:bold;vertical-align:top">HTTP_ACCEPT_LANGUAGE</td><td valign="top">:</td><td><div>en-US,en;q=0.8</div></td></tr><tr><td style="font-weight:bold;vertical-align:top">HTTP_CACHE_CONTROL</td><td valign="top">:</td><td><div>max-age=0</div></td></tr><tr><td style="font-weight:bold;vertical-align:top">HTTP_CONNECTION</td><td valign="top">:</td><td><div>keep-alive</div></td></tr><tr><td style="font-weight:bold;vertical-align:top">HTTP_COOKIE</td><td valign="top">:</td><td><div>session_id_facebookclone=127.0.0.1-11c060a6-b0dd-41b0-b301-dfd7cc431b50; session_id_tryfacebookapi=127.0.0.1-83db9b5d-75e2-4537-8552-73abfada2711; session_id_taskscheduler=127.0.0.1-4244ae84-7294-4b20-bc0c-3050812c06f6; session_id_amplifyprototype=127.0.0.1-15740f78-a69b-423c-8f9a-98136689fda4; session_id_welcome=127.0.0.1-c2214d19-5b00-46c5-85d5-f8a0f736ae3d; session_id_amplify=127.0.0.1-6dbe842e-d6c9-4345-851e-5914f55a0026; session_id_admin=127.0.0.1-7db7eefc-9f83-40e3-8599-b6f9393cf31d</div></td></tr><tr><td style="font-weight:bold;vertical-align:top">HTTP_HOST</td><td valign="top">:</td><td><div>127.0.0.1:8000</div></td></tr><tr><td style="font-weight:bold;vertical-align:top">HTTP_REFERER</td><td valign="top">:</td><td><div>http://127.0.0.1:8000/Amplify/default/user/login</div></td></tr><tr><td style="font-weight:bold;vertical-align:top">HTTP_USER_AGENT</td><td valign="top">:</td><td><div>Mozilla/5.0 (Macintosh; Intel Mac OS X 10_9_2) AppleWebKit/537.36 (KHTML, like Gecko) Chrome/34.0.1847.131 Safari/537.36</div></td></tr><tr><td style="font-weight:bold;vertical-align:top">PATH_INFO</td><td valign="top">:</td><td><div>/Amplify/news/social</div></td></tr><tr><td style="font-weight:bold;vertical-align:top">QUERY_STRING</td><td valign="top">:</td><td><div></div></td></tr><tr><td style="font-weight:bold;vertical-align:top">REMOTE_ADDR</td><td valign="top">:</td><td><div>127.0.0.1</div></td></tr><tr><td style="font-weight:bold;vertical-align:top">REMOTE_PORT</td><td valign="top">:</td><td><div>51582</div></td></tr><tr><td style="font-weight:bold;vertical-align:top">REQUEST_METHOD</td><td valign="top">:</td><td><div>GET</div></td></tr><tr><td style="font-weight:bold;vertical-align:top">REQUEST_URI</td><td valign="top">:</td><td><div>/Amplify/news/social</div></td></tr><tr><td style="font-weight:bold;vertical-align:top">SCRIPT_NAME</td><td valign="top">:</td><td><div></div></td></tr><tr><td style="font-weight:bold;vertical-align:top">SERVER_NAME</td><td valign="top">:</td><td><div>static-173.53.96.14-tataidc.co.in</div></td></tr><tr><td style="font-weight:bold;vertical-align:top">SERVER_PORT</td><td valign="top">:</td><td><div>8000</div></td></tr><tr><td style="font-weight:bold;vertical-align:top">SERVER_PROTOCOL</td><td valign="top">:</td><td><div>HTTP/1.1</div></td></tr><tr><td style="font-weight:bold;vertical-align:top">SERVER_SOFTWARE</td><td valign="top">:</td><td><div>Rocket 1.2.6</div></td></tr><tr><td style="font-weight:bold;vertical-align:top">wsgi.errors</td><td valign="top">:</td><td><div>&lt;open file &#x27;&lt;stderr&gt;&#x27;, mode &#x27;w&#x27; at 0x10028e1e0&gt;</div></td></tr><tr><td style="font-weight:bold;vertical-align:top">wsgi.file_wrapper</td><td valign="top">:</td><td><div>&lt;class wsgiref.util.FileWrapper at 0x10379f4c8&gt;</div></td></tr><tr><td style="font-weight:bold;vertical-align:top">wsgi.input</td><td valign="top">:</td><td><div>&lt;cStringIO.StringO object at 0x10af68fb8&gt;</div></td></tr><tr><td style="font-weight:bold;vertical-align:top">wsgi.multiprocess</td><td valign="top">:</td><td><div>False</div></td></tr><tr><td style="font-weight:bold;vertical-align:top">wsgi.multithread</td><td valign="top">:</td><td><div>True</div></td></tr><tr><td style="font-weight:bold;vertical-align:top">wsgi.run_once</td><td valign="top">:</td><td><div>False</div></td></tr><tr><td style="font-weight:bold;vertical-align:top">wsgi.url_scheme</td><td valign="top">:</td><td><div>http</div></td></tr><tr><td style="font-weight:bold;vertical-align:top">wsgi.version</td><td valign="top">:</td><td><div>1</div></td></tr></table></div></td></tr></table></div></td></tr></table></div>'
tRp58
sS'frames'
p59
(lp60
(dp61
S'file'
p62
S'/Users/josyulakrishna/Documents/web2py_src/web2py/gluon/restricted.py'
p63
sS'dump'
p64
(dp65
S'environment'
p66
S"{'A': <class 'gluon.html.A'>, 'ANY_OF': <class 'gluon.validators.ANY_OF'>, 'Auth': <class 'gluon.tools.Auth'>, 'B': <class 'gluon.html.B'>, 'BEAUTIFY': <class 'gluon.html.BEAUTIFY'>, 'BODY': <class 'gluon.html.BODY'>, 'BR': <class 'gluon.html.BR'>, 'BUTTON': <class 'gluon.html.BUTTON'>, 'BeautifulSoup': <class 'bs4.BeautifulSoup'>, 'CAT': <class 'gluon.html.CAT'>, ...}"
p67
sS'ccode'
p68
S'<code object <module> at 0x104e0c330, file "/Use...ications/Amplify/views/news/social.html", line 1>'
p69
ssS'lnum'
p70
I212
sS'lines'
p71
(dp72
I207
S'    try:'
p73
sI208
S'        if isinstance(code, types.CodeType):'
p74
sI209
S'            ccode = code'
p75
sI210
S'        else:'
p76
sI211
S'            ccode = compile2(code, layer)'
p77
sI212
S'        exec ccode in environment'
p78
sI213
S'    except HTTP:'
p79
sI214
S'        raise'
p80
sI215
S'    except RestrictedError:'
p81
sI216
S'        # do not encapsulate (obfuscate) the original RestrictedError'
p82
ssS'call'
p83
S'(code=\'response.write(\\\'<!--[if HTML5]><![endif]-->\\\\n<!D...(\\\'"></script>\\\\n</body>\\\\n</html>\\\\n\\\', escape=False)\', environment={\'A\': <class \'gluon.html.A\'>, \'ANY_OF\': <class \'gluon.validators.ANY_OF\'>, \'Auth\': <class \'gluon.tools.Auth\'>, \'B\': <class \'gluon.html.B\'>, \'BEAUTIFY\': <class \'gluon.html.BEAUTIFY\'>, \'BODY\': <class \'gluon.html.BODY\'>, \'BR\': <class \'gluon.html.BR\'>, \'BUTTON\': <class \'gluon.html.BUTTON\'>, \'BeautifulSoup\': <class \'bs4.BeautifulSoup\'>, \'CAT\': <class \'gluon.html.CAT\'>, ...}, layer=\'/Users/josyulakrishna/Documents/web2py_src/web2py/applications/Amplify/views/news/social.html\')'
p84
sS'func'
p85
S'restricted'
p86
sa(dp87
g62
S'/Users/josyulakrishna/Documents/web2py_src/web2py/applications/Amplify/views/news/social.html'
p88
sg64
(dp89
sg70
I117
sg71
(dp90
I108
S'            response.write(post[0])'
p91
sI109
S'            response.write(\'</p>                      <a href="\', escape=False)'
p92
sI110
S'            response.write(post[1])'
p93
sI111
S'            response.write(\'">\', escape=False)'
p94
sI112
S'            response.write(post[1])'
p95
sI113
S'            response.write(\'</a> \\n                            <button class = "btn btn-inverse like" style="margin-left:20px" postid="\', escape=False)'
p96
sI114
S'            response.write(post[4])'
p97
sI115
S'            response.write(\'">\', escape=False)'
p98
sI116
S'            print(post[2])'
p99
sI117
S'            response.write("Like" if post[2] else "Unlike" if auth.user_id in post[2] else "Like")'
p100
sI118
S"            response.write('</button>\\n\\t\\t                 </div>\\n                        \\t', escape=False)"
p101
sI119
S'            pass'
p102
sI120
S"        response.write('\\n                        ', escape=False)"
p103
sI121
S'        pass'
p104
sI122
S"    response.write('\\n\\t\\t\\t\\t\\t</div><!--News Stream-->\\n    </div>\\n', escape=False)"
p105
sI123
S"    response.write('\\n', escape=False)"
p106
sI124
S'else:'
p107
sI125
S'    response.write(\'\\n    <p>    <a href="\', escape=False)'
p108
sI126
S'    response.write(URL(c="default",f="interests"))'
p109
sI127
S'    response.write(\'"> Please fill out your interests to see this </a></p>\\n\\n\', escape=False)'
p110
ssg83
S'()'
p111
sg85
S'<module>'
p112
sasS'pyver'
p113
S'Python 2.7.5: /Users/josyulakrishna/Documents/PythonPackages/anaconda/bin/python (prefix: /Users/josyulakrishna/Documents/PythonPackages/anaconda)'
p114
sS'session'
p115
g57
(S'sI\t\x00\x00<div><table><tr><td style="font-weight:bold;vertical-align:top">auth</td><td valign="top">:</td><td><div><table><tr><td style="font-weight:bold;vertical-align:top">expiration</td><td valign="top">:</td><td><div>3600</div></td></tr><tr><td style="font-weight:bold;vertical-align:top">hmac_key</td><td valign="top">:</td><td><div>7b3ca69b-568a-46dd-a62f-24ae3ce057a6</div></td></tr><tr><td style="font-weight:bold;vertical-align:top">last_visit</td><td valign="top">:</td><td><div>datetime.datetime(2014, 4, 30, 17, 39, 14, 719377)</div></td></tr><tr><td style="font-weight:bold;vertical-align:top">remember</td><td valign="top">:</td><td><div>False</div></td></tr><tr><td style="font-weight:bold;vertical-align:top">user</td><td valign="top">:</td><td><div><table><tr><td style="font-weight:bold;vertical-align:top">email</td><td valign="top">:</td><td><div></div></td></tr><tr><td style="font-weight:bold;vertical-align:top">first_name</td><td valign="top">:</td><td><div></div></td></tr><tr><td style="font-weight:bold;vertical-align:top">id</td><td valign="top">:</td><td><div>10L</div></td></tr><tr><td style="font-weight:bold;vertical-align:top">last_name</td><td valign="top">:</td><td><div></div></td></tr><tr><td style="font-weight:bold;vertical-align:top">registration_id</td><td valign="top">:</td><td><div></div></td></tr><tr><td style="font-weight:bold;vertical-align:top">registration_key</td><td valign="top">:</td><td><div></div></td></tr><tr><td style="font-weight:bold;vertical-align:top">reset_password_key</td><td valign="top">:</td><td><div></div></td></tr><tr><td style="font-weight:bold;vertical-align:top">username</td><td valign="top">:</td><td><div>krishna</div></td></tr></table></div></td></tr><tr><td style="font-weight:bold;vertical-align:top">user_groups</td><td valign="top">:</td><td><div><table><tr><td style="font-weight:bold;vertical-align:top">10</td><td valign="top">:</td><td><div>user_10</div></td></tr></table></div></td></tr></table></div></td></tr><tr><td style="font-weight:bold;vertical-align:top">flash</td><td valign="top">:</td><td><div>None</div></td></tr><tr><td style="font-weight:bold;vertical-align:top">last_orderby</td><td valign="top">:</td><td><div>None</div></td></tr><tr><td style="font-weight:bold;vertical-align:top">last_query</td><td valign="top">:</td><td><div>db.user_clusters.id&gt;0</div></td></tr></table></div>'
tRp116
sS'etype'
p117
S"<type 'exceptions.TypeError'>"
p118
sS'date'
p119
S'Wed Apr 30 17:40:12 2014'
p120
sS'response'
p121
g57
(S's\xbe.\x00\x00<div><table><tr><td style="font-weight:bold;vertical-align:top">body</td><td valign="top">:</td><td><div>&lt;cStringIO.StringO object at 0x10b3a78f0&gt;</div></td></tr><tr><td style="font-weight:bold;vertical-align:top">cookies</td><td valign="top">:</td><td><div><table><tr><td style="font-weight:bold;vertical-align:top">session_id_amplify</td><td valign="top">:</td><td><div>127.0.0.1-6dbe842e-d6c9-4345-851e-5914f55a0026<table><tr><td style="font-weight:bold;vertical-align:top">comment</td><td valign="top">:</td><td><div></div></td></tr><tr><td style="font-weight:bold;vertical-align:top">domain</td><td valign="top">:</td><td><div></div></td></tr><tr><td style="font-weight:bold;vertical-align:top">expires</td><td valign="top">:</td><td><div></div></td></tr><tr><td style="font-weight:bold;vertical-align:top">httponly</td><td valign="top">:</td><td><div></div></td></tr><tr><td style="font-weight:bold;vertical-align:top">max-age</td><td valign="top">:</td><td><div></div></td></tr><tr><td style="font-weight:bold;vertical-align:top">path</td><td valign="top">:</td><td><div>/</div></td></tr><tr><td style="font-weight:bold;vertical-align:top">secure</td><td valign="top">:</td><td><div></div></td></tr><tr><td style="font-weight:bold;vertical-align:top">version</td><td valign="top">:</td><td><div></div></td></tr></table></div></td></tr></table></div></td></tr><tr><td style="font-weight:bold;vertical-align:top">delimiters</td><td valign="top">:</td><td><div><table><tr><td><div>{{</div></td></tr><tr><td><div>}}</div></td></tr></table></div></td></tr><tr><td style="font-weight:bold;vertical-align:top">files</td><td valign="top">:</td><td><div><table><tr><td><div>/Amplify/static/js/jquery.js</div></td></tr><tr><td><div>/Amplify/static/css/calendar.css</div></td></tr><tr><td><div>/Amplify/static/js/calendar.js</div></td></tr><tr><td><div>/Amplify/static/js/web2py.js</div></td></tr><tr><td><div>/Amplify/static/css/bootstrap.min.css</div></td></tr><tr><td><div>/Amplify/static/css/bootstrap-responsive.min.css</div></td></tr><tr><td><div>/Amplify/static/css/flat-ui.css</div></td></tr><tr><td><div>/Amplify/static/css/sb-admin.css</div></td></tr></table></div></td></tr><tr><td style="font-weight:bold;vertical-align:top">flash</td><td valign="top">:</td><td><div>Logged in</div></td></tr><tr><td style="font-weight:bold;vertical-align:top">generic_patterns</td><td valign="top">:</td><td><div><table><tr><td><div>*</div></td></tr></table></div></td></tr><tr><td style="font-weight:bold;vertical-align:top">google_analytics_id</td><td valign="top">:</td><td><div>None</div></td></tr><tr><td style="font-weight:bold;vertical-align:top">headers</td><td valign="top">:</td><td><div><table><tr><td style="font-weight:bold;vertical-align:top">X-Powered-By</td><td valign="top">:</td><td><div>web2py</div></td></tr></table></div></td></tr><tr><td style="font-weight:bold;vertical-align:top">logo</td><td valign="top">:</td><td><div><a class="brand" href="http://www.web2py.com/"><b>web<span>2</span>py</b>&trade;&nbsp;</a></div></td></tr><tr><td style="font-weight:bold;vertical-align:top">menu</td><td valign="top">:</td><td><div><table><tr><td><div><table><tr><td><div>Home</div></td></tr><tr><td><div>False</div></td></tr><tr><td><div>/Amplify/default/index</div></td></tr><tr><td><div><table></table></div></td></tr></table></div></td></tr><tr><td><div><table><tr><td><div><span class="highlighted">web2py</span></div></td></tr><tr><td><div>False</div></td></tr><tr><td><div>http://web2py.com</div></td></tr><tr><td><div><table><tr><td><div><table><tr><td><div>My Sites</div></td></tr><tr><td><div>False</div></td></tr><tr><td><div>/admin/default/site</div></td></tr></table></div></td></tr><tr><td><div><table><tr><td><div>This App</div></td></tr><tr><td><div>False</div></td></tr><tr><td><div>/admin/default/design/Amplify</div></td></tr><tr><td><div>[(&lt;lazyT &#x27;Controller&#x27;&gt;, False, &#x27;/admin/default/edit/Amplify/controllers/news.py&#x27;), (&lt;lazyT &#x27;View&#x27;&gt;, False, &#x27;/admin/default/edit/Amplify/views/news/social.html&#x27;), (&lt;lazyT &#x27;Layout&#x27;&gt;, False, &#x27;/admin/default/edit/Amplify/views/layout.html&#x27;), (&lt;lazyT &#x27;Stylesheet&#x27;&gt;, False, &#x27;/admin/default/edit/Amplify/static/css/web2py.css&#x27;), (&lt;lazyT &#x27;DB Model&#x27;&gt;, False, &#x27;/admin/default/edit/Amplify/models/db.py&#x27;), (&lt;lazyT &#x27;Menu Model&#x27;&gt;, False, &#x27;/admin/default/edit/Amplify/models/menu.py&#x27;), (&lt;lazyT &#x27;Database&#x27;&gt;, False, &#x27;/Amplify/appadmin/index&#x27;), (&lt;lazyT &#x27;Errors&#x27;&gt;, False, &#x27;/admin/default/errors/Amplify&#x27;), (&lt;lazyT &#x27;About&#x27;&gt;, False, &#x27;/admin/default/about/Amplify&#x27;)]</div></td></tr></table></div></td></tr><tr><td><div><table><tr><td><div>web2py.com</div></td></tr><tr><td><div>False</div></td></tr><tr><td><div>http://www.web2py.com</div></td></tr><tr><td><div>[(&lt;lazyT &#x27;Download&#x27;&gt;, False, &#x27;http://www.web2py.com/examples/default/download&#x27;), (&lt;lazyT &#x27;Support&#x27;&gt;, False, &#x27;http://www.web2py.com/examples/default/support&#x27;), (&lt;lazyT &#x27;Demo&#x27;&gt;, False, &#x27;http://web2py.com/demo_admin&#x27;), (&lt;lazyT &#x27;Quick Examples&#x27;&gt;, False, &#x27;http://web2py.com/examples/default/examples&#x27;), (&lt;lazyT &#x27;FAQ&#x27;&gt;, False, &#x27;http://web2py.com/AlterEgo&#x27;), (&lt;lazyT &#x27;Videos&#x27;&gt;, False, &#x27;http://www.web2py.com/examples/default/videos/&#x27;), (&lt;lazyT &#x27;Free Applications&#x27;&gt;, False, &#x27;http://web2py.com/appliances&#x27;), (&lt;lazyT &#x27;Plugins&#x27;&gt;, False, &#x27;http://web2py.com/plugins&#x27;), (&lt;lazyT &#x27;Layouts&#x27;&gt;, False, &#x27;http://web2py.com/layouts&#x27;), (&lt;lazyT &#x27;Recipes&#x27;&gt;, False, &#x27;http://web2pyslices.com/&#x27;), (&lt;lazyT &#x27;Semantic&#x27;&gt;, False, &#x27;http://web2py.com/semantic&#x27;)]</div></td></tr></table></div></td></tr><tr><td><div><table><tr><td><div>Documentation</div></td></tr><tr><td><div>False</div></td></tr><tr><td><div>http://www.web2py.com/book</div></td></tr><tr><td><div>[(&lt;lazyT &#x27;Preface&#x27;&gt;, False, &#x27;http://www.web2py.com/book/default/chapter/00&#x27;), (&lt;lazyT &#x27;Introduction&#x27;&gt;, False, &#x27;http://www.web2py.com/book/default/chapter/01&#x27;), (&lt;lazyT &#x27;Python&#x27;&gt;, False, &#x27;http://www.web2py.com/book/default/chapter/02&#x27;), (&lt;lazyT &#x27;Overview&#x27;&gt;, False, &#x27;http://www.web2py.com/book/default/chapter/03&#x27;), (&lt;lazyT &#x27;The Core&#x27;&gt;, False, &#x27;http://www.web2py.com/book/default/chapter/04&#x27;), (&lt;lazyT &#x27;The Views&#x27;&gt;, False, &#x27;http://www.web2py.com/book/default/chapter/05&#x27;), (&lt;lazyT &#x27;Database&#x27;&gt;, False, &#x27;http://www.web2py.com/book/default/chapter/06&#x27;), (&lt;lazyT &#x27;Forms and Validators&#x27;&gt;, False, &#x27;http://www.web2py.com/book/default/chapter/07&#x27;), (&lt;lazyT &#x27;Email and SMS&#x27;&gt;, False, &#x27;http://www.web2py.com/book/default/chapter/08&#x27;), (&lt;lazyT &#x27;Access Control&#x27;&gt;, False, &#x27;http://www.web2py.com/book/default/chapter/09&#x27;), (&lt;lazyT &#x27;Services&#x27;&gt;, False, &#x27;http://www.web2py.com/book/default/chapter/10&#x27;), (&lt;lazyT &#x27;Ajax Recipes&#x27;&gt;, False, &#x27;http://www.web2py.com/book/default/chapter/11&#x27;), (&lt;lazyT &#x27;Components and Plugins&#x27;&gt;, False, &#x27;http://www.web2py.com/book/default/chapter/12&#x27;), (&lt;lazyT &#x27;Deployment Recipes&#x27;&gt;, False, &#x27;http://www.web2py.com/book/default/chapter/13&#x27;), (&lt;lazyT &#x27;Other Recipes&#x27;&gt;, False, &#x27;http://www.web2py.com/book/default/chapter/14&#x27;), (&lt;lazyT &#x27;Buy this book&#x27;&gt;, False, &#x27;http://stores.lulu.com/web2py&#x27;)]</div></td></tr></table></div></td></tr><tr><td><div><table><tr><td><div>Community</div></td></tr><tr><td><div>False</div></td></tr><tr><td><div>None</div></td></tr><tr><td><div>[(&lt;lazyT &#x27;Groups&#x27;&gt;, False, &#x27;http://www.web2py.com/examples/default/usergroups&#x27;), (&lt;lazyT &#x27;Twitter&#x27;&gt;, False, &#x27;http://twitter.com/web2py&#x27;), (&lt;lazyT &#x27;Live Chat&#x27;&gt;, False, &#x27;http://webchat.freenode.net/?channels=web2py&#x27;)]</div></td></tr></table></div></td></tr><tr><td><div><table><tr><td><div>Plugins</div></td></tr><tr><td><div>False</div></td></tr><tr><td><div>None</div></td></tr><tr><td><div>[(&#x27;plugin_wiki&#x27;, False, &#x27;http://web2py.com/examples/default/download&#x27;), (&lt;lazyT &#x27;Other Plugins&#x27;&gt;, False, &#x27;http://web2py.com/plugins&#x27;), (&lt;lazyT &#x27;Layout Plugins&#x27;&gt;, False, &#x27;http://web2py.com/layouts&#x27;)]</div></td></tr></table></div></td></tr></table></div></td></tr></table></div></td></tr></table></div></td></tr><tr><td style="font-weight:bold;vertical-align:top">meta</td><td valign="top">:</td><td><div><table><tr><td style="font-weight:bold;vertical-align:top">author</td><td valign="top">:</td><td><div>Your Name &lt;you@example.com&gt;</div></td></tr><tr><td style="font-weight:bold;vertical-align:top">description</td><td valign="top">:</td><td><div>a cool new app</div></td></tr><tr><td style="font-weight:bold;vertical-align:top">generator</td><td valign="top">:</td><td><div>Web2py Web Framework</div></td></tr><tr><td style="font-weight:bold;vertical-align:top">keywords</td><td valign="top">:</td><td><div>web2py, python, framework</div></td></tr></table></div></td></tr><tr><td style="font-weight:bold;vertical-align:top">models_to_run</td><td valign="top">:</td><td><div><table><tr><td><div>^\\w+\\.py$</div></td></tr><tr><td><div>^news/\\w+\\.py$</div></td></tr><tr><td><div>^news/social/\\w+\\.py$</div></td></tr></table></div></td></tr><tr><td style="font-weight:bold;vertical-align:top">postprocessing</td><td valign="top">:</td><td><div><table></table></div></td></tr><tr><td style="font-weight:bold;vertical-align:top">session_cookie_expires</td><td valign="top">:</td><td><div>None</div></td></tr><tr><td style="font-weight:bold;vertical-align:top">session_data_name</td><td valign="top">:</td><td><div>session_data_amplify</div></td></tr><tr><td style="font-weight:bold;vertical-align:top">session_file</td><td valign="top">:</td><td><div>&lt;open file &#x27;/Users/josyulakrishna/Documents/web2py_src/web2py/applications/Amplify/sessions/127.0.0.1-6dbe842e-d6c9-4345-851e-5914f55a0026&#x27;, mode &#x27;rb+&#x27; at 0x10b2eed20&gt;</div></td></tr><tr><td style="font-weight:bold;vertical-align:top">session_filename</td><td valign="top">:</td><td><div>/Users/josyulakrishna/Documents/web2py_src/web2py/applications/Amplify/sessions/127.0.0.1-6dbe842e-d6c9-4345-851e-5914f55a0026</div></td></tr><tr><td style="font-weight:bold;vertical-align:top">session_id</td><td valign="top">:</td><td><div>127.0.0.1-6dbe842e-d6c9-4345-851e-5914f55a0026</div></td></tr><tr><td style="font-weight:bold;vertical-align:top">session_id_name</td><td valign="top">:</td><td><div>session_id_amplify</div></td></tr><tr><td style="font-weight:bold;vertical-align:top">session_locked</td><td valign="top">:</td><td><div>True</div></td></tr><tr><td style="font-weight:bold;vertical-align:top">session_new</td><td valign="top">:</td><td><div>False</div></td></tr><tr><td style="font-weight:bold;vertical-align:top">session_storage_type</td><td valign="top">:</td><td><div>file</div></td></tr><tr><td style="font-weight:bold;vertical-align:top">status</td><td valign="top">:</td><td><div>200</div></td></tr><tr><td style="font-weight:bold;vertical-align:top">subtitle</td><td valign="top">:</td><td><div>customize me!</div></td></tr><tr><td style="font-weight:bold;vertical-align:top">title</td><td valign="top">:</td><td><div>Amplify</div></td></tr><tr><td style="font-weight:bold;vertical-align:top">view</td><td valign="top">:</td><td><div>news/social.html</div></td></tr></table></div>'
tRp122
sS'locals'
p123
(dp124
S'neighbors'
p125
S"<module 'sklearn.neighbors' from '/Users/josyula....7/site-packages/sklearn/neighbors/__init__.pyc'>"
p126
sS'Service'
p127
S"<class 'gluon.tools.Service'>"
p128
sS'STRONG'
p129
S"<class 'gluon.html.STRONG'>"
p130
sS'OBJECT'
p131
S"<class 'gluon.html.OBJECT'>"
p132
sS'LOAD'
p133
S'<function LOAD>'
p134
sS'SQLDB'
p135
S"<class 'gluon.dal.DAL'>"
p136
sg115
S"<Storage {'_formkey[user_interests/create]': '6c...sword]': '9e326095-544a-4064-888c-9855f16d5366'}>"
p137
sS'LINK'
p138
S"<class 'gluon.html.LINK'>"
p139
sS'Auth'
p140
S"<class 'gluon.tools.Auth'>"
p141
sS'BR'
p142
S"<class 'gluon.html.BR'>"
p143
sS'local_import'
p144
S'<function <lambda>>'
p145
sS'OPTGROUP'
p146
S"<class 'gluon.html.OPTGROUP'>"
p147
sS'__package__'
p148
S'None'
p149
sS'OPTION'
p150
S"<class 'gluon.html.OPTION'>"
p151
sS'PRE'
p152
S"<class 'gluon.html.PRE'>"
p153
sS'IS_INT_IN_RANGE'
p154
S"<class 'gluon.validators.IS_INT_IN_RANGE'>"
p155
sS'IS_LOWER'
p156
S"<class 'gluon.validators.IS_LOWER'>"
p157
sS'IS_STRONG'
p158
S"<class 'gluon.validators.IS_STRONG'>"
p159
sS'cache'
p160
S'<gluon.cache.Cache object>'
p161
sS'IS_IN_DB'
p162
S"<class 'gluon.validators.IS_IN_DB'>"
p163
sS'TAG'
p164
S'<gluon.html.__TAG__ object>'
p165
sS'Scheduler'
p166
S"<class 'gluon.scheduler.Scheduler'>"
p167
sS'SQLField'
p168
S"<class 'gluon.dal.Field'>"
p169
sS'BODY'
p170
S"<class 'gluon.html.BODY'>"
p171
sS'IS_DATE_IN_RANGE'
p172
S"<class 'gluon.validators.IS_DATE_IN_RANGE'>"
p173
sS'random'
p174
S"<module 'random' from '/Users/josyulakrishna/Doc...ythonPackages/anaconda/lib/python2.7/random.pyc'>"
p175
sS'IFRAME'
p176
S"<class 'gluon.html.IFRAME'>"
p177
sS'ON'
p178
S'True'
p179
sS'URL'
p180
S'<function URL>'
p181
sS'__file__'
p182
S"'/Users/josyulakrishna/Documents/web2py_src/web2py/applications/Amplify/views/news/social.html'"
p183
sS'db'
p184
S'<DAL uri="sqlite://storage.sqlite">'
p185
sS'auth'
p186
S'<gluon.tools.Auth object>'
p187
sS'P'
S"<class 'gluon.html.P'>"
p188
sS'knnSelect'
p189
S'<function knnSelect>'
p190
sS'TFOOT'
p191
S"<class 'gluon.html.TFOOT'>"
p192
sS'scheduler'
p193
S'<Scheduler(Thread-91, initial daemon)>'
p194
sS'XHTML'
p195
S"<class 'gluon.html.XHTML'>"
p196
sS'datetime'
p197
S"<module 'datetime' from '/Users/josyulakrishna/D.../anaconda/lib/python2.7/lib-dynload/datetime.so'>"
p198
sS'make_clusters'
p199
S'<function make_clusters>'
p200
sS'httplib'
p201
S"<module 'httplib' from '/Users/josyulakrishna/Do...thonPackages/anaconda/lib/python2.7/httplib.pyc'>"
p202
sS'OL'
p203
S"<class 'gluon.html.OL'>"
p204
sS'TEXTAREA'
p205
S"<class 'gluon.html.TEXTAREA'>"
p206
sS'MENU'
p207
S"<class 'gluon.html.MENU'>"
p208
sS'posts'
p209
S"{(3L, '', 'krishnajosyula'): [('This is a great website for business news.', 'http://www.businessline.com', [3L, 4L, 10L], 'BusinessEconomy', 9L)], (10L, '', 'krishna'): [('Loving this start', 'http://www.amplify.com', None, 'ComputersTechonology', 10L)]}"
p210
sS'STYLE'
p211
S"<class 'gluon.html.STYLE'>"
p212
sS'IS_IMAGE'
p213
S"<class 'gluon.validators.IS_IMAGE'>"
p214
sS'defaultdict'
p215
S"<type 'collections.defaultdict'>"
p216
sS'CODE'
p217
S"<class 'gluon.html.CODE'>"
p218
sS'HTTP'
p219
S"<class 'gluon.http.HTTP'>"
p220
sS'HR'
p221
S"<class 'gluon.html.HR'>"
p222
sS'IS_DATETIME'
p223
S"<class 'gluon.validators.IS_DATETIME'>"
p224
sS'KMeans'
p225
S"<class 'sklearn.cluster.k_means_.KMeans'>"
p226
sS'LABEL'
p227
S"<class 'gluon.html.LABEL'>"
p228
sS'CLEANUP'
p229
S"<class 'gluon.validators.CLEANUP'>"
p230
sS'plugins'
p231
S'<gluon.tools.PluginManager object>'
p232
sS'html5lib'
p233
S"<module 'html5lib' from '/Users/josyulakrishna/D...b/python2.7/site-packages/html5lib/__init__.pyc'>"
p234
sS'SELECT'
p235
S"<class 'gluon.html.SELECT'>"
p236
sS'category'
p237
S"'Sports'"
p238
sS'scale'
p239
S'<function scale>'
p240
sS'CENTER'
p241
S"<class 'gluon.html.CENTER'>"
p242
sS'prettydate'
p243
S'<function prettydate>'
p244
sS'Crud'
p245
S"<class 'gluon.tools.Crud'>"
p246
sS'urllib'
p247
S"<module 'urllib' from '/Users/josyulakrishna/Doc...ythonPackages/anaconda/lib/python2.7/urllib.pyc'>"
p248
sS'DEVELOPMENT_MENU'
p249
g179
sS'treebuilders'
p250
S"<module 'html5lib.treebuilders' from '/Users/jos...ite-packages/html5lib/treebuilders/__init__.pyc'>"
p251
sS'__builtins__'
p252
S"{'ArithmeticError': <type 'exceptions.ArithmeticError'>, 'AssertionError': <type 'exceptions.AssertionError'>, 'AttributeError': <type 'exceptions.AttributeError'>, 'BaseException': <type 'exceptions.BaseException'>, 'BufferError': <type 'exceptions.BufferError'>, 'BytesWarning': <type 'exceptions.BytesWarning'>, 'DeprecationWarning': <type 'exceptions.DeprecationWarning'>, 'EOFError': <type 'exceptions.EOFError'>, 'Ellipsis': Ellipsis, 'EnvironmentError': <type 'exceptions.EnvironmentError'>, ...}"
p253
sS'HTML'
p254
S"<class 'gluon.html.HTML'>"
p255
sS'SQLFORM'
p256
S"<class 'gluon.sqlhtml.SQLFORM'>"
p257
sS'EM'
p258
S"<class 'gluon.html.EM'>"
p259
sS'redirect'
p260
S'<function redirect>'
p261
sS'FIELDSET'
p262
S"<class 'gluon.html.FIELDSET'>"
p263
sS'IS_EQUAL_TO'
p264
S"<class 'gluon.validators.IS_EQUAL_TO'>"
p265
sS'embed64'
p266
S'<function embed64>'
p267
sS'Gravatar'
p268
S"<class 'gluon.contrib.gravatar.Gravatar'>"
p269
sS'IS_LIST_OF'
p270
S"<class 'gluon.validators.IS_LIST_OF'>"
p271
sS'key'
p272
S"(10L, '', 'krishna')"
p273
sS'__name__'
p274
S"'__restricted__'"
p275
sS'EMBED'
p276
S"<class 'gluon.html.EMBED'>"
p277
sS'_'
S'<function _>'
p278
sS'H2'
p279
S"<class 'gluon.html.H2'>"
p280
sS'H3'
p281
S"<class 'gluon.html.H3'>"
p282
sS'BUTTON'
p283
S"<class 'gluon.html.BUTTON'>"
p284
sS'H1'
p285
S"<class 'gluon.html.H1'>"
p286
sS'H6'
p287
S"<class 'gluon.html.H6'>"
p288
sS'H4'
p289
S"<class 'gluon.html.H4'>"
p290
sS'H5'
p291
S"<class 'gluon.html.H5'>"
p292
sS'UL'
p293
S"<class 'gluon.html.UL'>"
p294
sS'IS_UPPER'
p295
S"<class 'gluon.validators.IS_UPPER'>"
p296
sS'xmlescape'
p297
S'<function xmlescape>'
p298
sS'IS_TIME'
p299
S"<class 'gluon.validators.IS_TIME'>"
p300
sS'newsbar_enabled'
p301
g179
sS'TITLE'
p302
S"<class 'gluon.html.TITLE'>"
p303
sS'CRYPT'
p304
S"<class 'gluon.validators.CRYPT'>"
p305
sS'IS_EMPTY_OR'
p306
S"<class 'gluon.validators.IS_EMPTY_OR'>"
p307
sS'MARKMIN'
p308
S"<class 'gluon.html.MARKMIN'>"
p309
sS'INPUT'
p310
S"<class 'gluon.html.INPUT'>"
p311
sS'total'
p312
S'8'
sS'COL'
p313
S"<class 'gluon.html.COL'>"
p314
sS'service'
p315
S'<gluon.tools.Service object>'
p316
sS'SCRIPT'
p317
S"<class 'gluon.html.SCRIPT'>"
p318
sS'BeautifulSoup'
p319
S"<class 'bs4.BeautifulSoup'>"
p320
sS'json'
p321
S"<module 'json' from '/Users/josyulakrishna/Docum...ckages/anaconda/lib/python2.7/json/__init__.pyc'>"
p322
sS'feedparser'
p323
S"<module 'feedparser' from '/Users/josyulakrishna...onda/lib/python2.7/site-packages/feedparser.pyc'>"
p324
sS'print_function'
p325
S"_Feature((2, 6, 0, 'alpha', 2), (3, 0, 0, 'alpha', 0), 65536)"
p326
sS'TABLE'
p327
S"<class 'gluon.html.TABLE'>"
p328
sS'IS_IPV4'
p329
S"<class 'gluon.validators.IS_IPV4'>"
p330
sS'IS_LENGTH'
p331
S"<class 'gluon.validators.IS_LENGTH'>"
p332
sS'IS_IPV6'
p333
S"<class 'gluon.validators.IS_IPV6'>"
p334
sS'XML'
p335
S"<class 'gluon.html.XML'>"
p336
sS'B'
S"<class 'gluon.html.B'>"
p337
sS'knnMake'
p338
S'<function knnMake>'
p339
sS'allCategories'
p340
S"['Science', 'Arts', 'Bussiness and Economy', 'Computers and Techonology', 'Health', 'Home and Domestic Life', 'News', 'Recreation Activities', 'Reference Education', 'Shopping', 'Society', 'Sports']"
p341
sS'IS_MATCH'
p342
S"<class 'gluon.validators.IS_MATCH'>"
p343
sS'IS_ALPHANUMERIC'
p344
S"<class 'gluon.validators.IS_ALPHANUMERIC'>"
p345
sS'SPAN'
p346
S"<class 'gluon.html.SPAN'>"
p347
sS'IS_JSON'
p348
S"<class 'gluon.validators.IS_JSON'>"
p349
sS'IS_IPADDRESS'
p350
S"<class 'gluon.validators.IS_IPADDRESS'>"
p351
sS'IS_SLUG'
p352
S"<class 'gluon.validators.IS_SLUG'>"
p353
sS'cat'
p354
S"'Sports'"
p355
sS'BEAUTIFY'
p356
S"<class 'gluon.html.BEAUTIFY'>"
p357
sS'META'
p358
S"<class 'gluon.html.META'>"
p359
sS'IS_DATE'
p360
S"<class 'gluon.validators.IS_DATE'>"
p361
sS'IS_EMAIL'
p362
S"<class 'gluon.validators.IS_EMAIL'>"
p363
sS'IS_NOT_EMPTY'
p364
S"<class 'gluon.validators.IS_NOT_EMPTY'>"
p365
sS'IS_FLOAT_IN_RANGE'
p366
S"<class 'gluon.validators.IS_FLOAT_IN_RANGE'>"
p367
sS'sanitizer'
p368
S"<module 'html5lib.sanitizer' from '/Users/josyul.../python2.7/site-packages/html5lib/sanitizer.pyc'>"
p369
sS'TBODY'
p370
S"<class 'gluon.html.TBODY'>"
p371
sS'CAT'
p372
S"<class 'gluon.html.CAT'>"
p373
sS'Field'
p374
S"<class 'gluon.dal.Field'>"
p375
sS'DIV'
p376
S"<class 'gluon.html.DIV'>"
p377
sS'LEGEND'
p378
S"<class 'gluon.html.LEGEND'>"
p379
sS'fill'
p380
g179
sS'IMG'
p381
S"<class 'gluon.html.IMG'>"
p382
sS'COLGROUP'
p383
S"<class 'gluon.html.COLGROUP'>"
p384
sS'DAL'
p385
S"<class 'gluon.dal.DAL'>"
p386
sS'TT'
p387
S"<class 'gluon.html.TT'>"
p388
sS'TR'
p389
S"<class 'gluon.html.TR'>"
p390
sS'LI'
p391
S"<class 'gluon.html.LI'>"
p392
sS'SQLTABLE'
p393
S"<class 'gluon.sqlhtml.SQLTABLE'>"
p394
sS'post'
p395
S"('Loving this start', 'http://www.amplify.com', None, 'ComputersTechonology', 10L)"
p396
sS'TH'
p397
S"<class 'gluon.html.TH'>"
p398
sS'np'
p399
S"<module 'numpy' from '/Users/josyulakrishna/Docu.../lib/python2.7/site-packages/numpy/__init__.pyc'>"
p400
sS'TD'
p401
S"<class 'gluon.html.TD'>"
p402
sS'PluginManager'
p403
S"<class 'gluon.tools.PluginManager'>"
p404
sS'IS_URL'
p405
S"<class 'gluon.validators.IS_URL'>"
p406
sS'A'
S"<class 'gluon.html.A'>"
p407
sS'HEAD'
p408
S"<class 'gluon.html.HEAD'>"
p409
sS'IS_DATETIME_IN_RANGE'
p410
S"<class 'gluon.validators.IS_DATETIME_IN_RANGE'>"
p411
sS'FORM'
p412
S"<class 'gluon.html.FORM'>"
p413
sS'I'
S"<class 'gluon.html.I'>"
p414
sS'crud'
p415
S'<gluon.tools.Crud object>'
p416
sS'IS_NOT_IN_DB'
p417
S"<class 'gluon.validators.IS_NOT_IN_DB'>"
p418
sg121
S"<Storage {'body': <cStringIO.StringO object at 0...da> at 0x102491c80>, 'view': 'news/social.html'}>"
p419
sS'THEAD'
p420
S"<class 'gluon.html.THEAD'>"
p421
sS'ANY_OF'
p422
S"<class 'gluon.validators.ANY_OF'>"
p423
sS'IS_NULL_OR'
p424
S"<class 'gluon.validators.IS_EMPTY_OR'>"
p425
sg56
S"<Storage {'function': 'social', 'body': <cString...plications/Amplify/', 'post_vars': <Storage {}>}>"
p426
sS'IS_EXPR'
p427
S"<class 'gluon.validators.IS_EXPR'>"
p428
sS'T'
S'<gluon.languages.translator object>'
p429
sS'IS_IN_SET'
p430
S"<class 'gluon.validators.IS_IN_SET'>"
p431
sS'IS_UPLOAD_FILENAME'
p432
S"<class 'gluon.validators.IS_UPLOAD_FILENAME'>"
p433
sS'IS_DECIMAL_IN_RANGE'
p434
S"<class 'gluon.validators.IS_DECIMAL_IN_RANGE'>"
p435
sssS'traceback'
p436
S'Traceback (most recent call last):\n  File "/Users/josyulakrishna/Documents/web2py_src/web2py/gluon/restricted.py", line 212, in restricted\n    exec ccode in environment\n  File "/Users/josyulakrishna/Documents/web2py_src/web2py/applications/Amplify/views/news/social.html", line 117, in <module>\nTypeError: argument of type \'NoneType\' is not iterable\n'
p437
s.