(dp1
S'output'
p2
S"<type 'exceptions.AttributeError'> 'NoneType' object has no attribute 'first_name'"
p3
sS'layer'
p4
S'/Users/josyulakrishna/Documents/web2py_src/web2py/applications/Amplify/views/default/profile.html'
p5
sS'code'
p6
S'response.write(\'<!--[if HTML5]><![endif]-->\\n<!DOCTYPE html>\\n<!-- paulirish.com/2008/conditional-stylesheets-vs-css-hacks-answer-neither/ -->\\n<!--[if lt IE 7]><html class="ie ie6 ie-lte9 ie-lte8 ie-lte7 no-js" lang="\', escape=False)\nresponse.write(T.accepted_language or \'en\')\nresponse.write(\'"> <![endif]-->\\n<!--[if IE 7]><html class="ie ie7 ie-lte9 ie-lte8 ie-lte7 no-js" lang="\', escape=False)\nresponse.write(T.accepted_language or \'en\')\nresponse.write(\'"> <![endif]-->\\n<!--[if IE 8]><html class="ie ie8 ie-lte9 ie-lte8 no-js" lang="\', escape=False)\nresponse.write(T.accepted_language or \'en\')\nresponse.write(\'"> <![endif]-->\\n<!--[if IE 9]><html class="ie9 ie-lte9 no-js" lang="\', escape=False)\nresponse.write(T.accepted_language or \'en\')\nresponse.write(\'"> <![endif]-->\\n<!--[if (gt IE 9)|!(IE)]><!--> <html class="no-js" lang="\', escape=False)\nresponse.write(T.accepted_language or \'en\')\nresponse.write(\'"> <!--<![endif]-->\\n<head>\\n<title>\', escape=False)\nresponse.write(response.title or request.application)\nresponse.write(\'</title>\\n  <!--[if !HTML5]>\\n      <meta http-equiv="X-UA-Compatible" content="IE=edge\', escape=False)\nresponse.write(not request.is_local and \',chrome=1\' or \'\')\nresponse.write(\'">\\n  <![endif]-->\\n  <!-- www.phpied.com/conditional-comments-block-downloads/ -->\\n  <!-- Always force latest IE rendering engine\\n       (even in intranet) & Chrome Frame\\n       Remove this if you use the .htaccess -->\\n\\n  <meta charset="utf-8" />\\n  <!--url(\', escape=False)\nresponse.write(URL(\'static\',\'img/brushed.png\'))\nresponse.write(\') repeat;-->\\n  \\n  <!-- http://dev.w3.org/html5/markup/meta.name.html -->\\n  <meta name="application-name" content="\', escape=False)\nresponse.write(request.application)\nresponse.write(\'" />\\n\\n  <!--  Mobile Viewport Fix\\n        j.mp/mobileviewport & davidbcalhoun.com/2010/viewport-metatag\\n        device-width: Occupy full width of the screen in its current orientation\\n        initial-scale = 1.0 retains dimensions instead of zooming out if page height > device height\\n        user-scalable = yes allows the user to zoom in -->\\n  <meta name="viewport" content="width=device-width, initial-scale=1.0" />\\n\\n  <link rel="shortcut icon" href="\', escape=False)\nresponse.write(URL(\'static\',\'images/favicon.ico\'))\nresponse.write(\'" type="image/x-icon">\\n  <link rel="apple-touch-icon" href="\', escape=False)\nresponse.write(URL(\'static\',\'images/favicon.png\'))\nresponse.write(\'">\\n\\n  <!-- All JavaScript at the bottom, except for Modernizr which enables\\n       HTML5 elements & feature detects -->\\n  <script src="\', escape=False)\nresponse.write(URL(\'static\',\'js/modernizr.custom.js\'))\nresponse.write(\'"></script>\\n\\n  <!-- include stylesheets -->\\n  \', escape=False)\n#response.files.append(URL(\'static\',\'css/web2py.css\'))\nresponse.files.append(URL(\'static\',\'css/bootstrap.min.css\'))\nresponse.files.append(URL(\'static\',\'css/bootstrap-responsive.min.css\'))\n#response.files.append(URL(\'static\',\'css/web2py_bootstrap.css\'))\nresponse.files.append(URL(\'static\',\'css/flat-ui.css\'))\nresponse.files.append(URL(\'static\',\'css/sb-admin.css\'))\nresponse.write(\'\\n    \\n\', escape=False)\nresponse.write(\'<script type="text/javascript"><!--\\n    // These variables are used by the web2py_ajax_init function in web2py_ajax.js (which is loaded below).\\n    var w2p_ajax_confirm_message = "\', escape=False)\nresponse.write(T(\'Are you sure you want to delete this object?\'))\nresponse.write(\'";\\n    var w2p_ajax_date_format = "\', escape=False)\nresponse.write(T(\'%Y-%m-%d\'))\nresponse.write(\'";\\n    var w2p_ajax_datetime_format = "\', escape=False)\nresponse.write(T(\'%Y-%m-%d %H:%M:%S\'))\nresponse.write(\'";\\n    var ajax_error_500 = \\\'\', escape=False)\nresponse.write(XML(T(\'An error occured, please %s the page\') % A(T(\'reload\'), _href=URL(args=request.args, vars=request.get_vars))))\nresponse.write("\'\\n    //--></script>\\n", escape=False)\nresponse.files.insert(0,URL(\'static\',\'js/jquery.js\'))\nresponse.files.insert(1,URL(\'static\',\'css/calendar.css\'))\nresponse.files.insert(2,URL(\'static\',\'js/calendar.js\'))\nresponse.files.insert(3,URL(\'static\',\'js/web2py.js\'))\nresponse.include_meta()\nresponse.include_files()\nresponse.write(\'\\n\', escape=False)\nresponse.write(\'\\n  <noscript><link href="\', escape=False)\nresponse.write(URL(\'static\', \'css/web2py_bootstrap_nojs.css\'))\nresponse.write(\'" rel="stylesheet" type="text/css" /></noscript>\\n</head>\\n<body>\\n<!--background-color : #f1f0ee;-->\\n<style>\\nbody{\\n         padding:100px;\\n     }\\n</style>\\n<div class="navbar navbar-fixed-top" >\\n\\t<div class="navbar-inner">\\n        <ul class="nav"><li><a href=\', escape=False)\nresponse.write(URL(c=\'default\',f=\'index\'))\nresponse.write(\' style="font-size:25px;">\', escape=False)\nresponse.write(str(response.title))\nresponse.write(\'</a></li></ul>\\n        <ul id="navbar" class="nav pull-right" style="color:white;">\\n            <li><a href=\', escape=False)\nresponse.write(URL(c=\'news\',f=\'social\'))\nresponse.write(\'>News</a><li>\\n            <li><a href=\', escape=False)\nresponse.write(URL(c=\'default\', f =\'interests\'))\nresponse.write(\'>Interests</a><li>\\n            <li>\', escape=False)\nresponse.write(\'auth\' in globals() and auth.navbar(mode="dropdown",referrer_actions=None) or \'\')\nresponse.write(\'</li>\\n            </ul>\\n    </div>\\n</div>\\n    \', escape=False)\nresponse.write(\'\\n\', escape=False)\nname=(auth.user.first_name)+" "+(auth.user.last_name)\nresponse.write(\'\\n<script>\\n      jQuery(document).ready(function ($) {\\n        $(\\\'#tabs\\\').tab();\\n    });\\n</script>\\n<style>\\n\\t/*Style common for all pages navbar design*/\\n\\n    .navbar-inner{\\n        background:rgba(255, 255, 255, 1);    \\n    }\\n\\t.navbar .nav > li > a {\\n        <!color: #FFFFFF;-->\\n    }    \\n    .navbar{\\n        border-bottom: 4px solid rgba(46, 204, 113, 1);\\n    }\\n\\t/*End of Style common for all pages */\\n\\t\\n\\t.circle {\\n\\t\\t  display: inline-block;\\n\\t\\t  width: 150px;\\n\\t\\t  height: 150px;\\n\\t\\t  margin: 1em auto;\\n\\t\\t  background-size: cover;\\n\\t\\t  background-repeat: no-repeat;\\n\\t\\t  background-position: center center;\\n\\t\\t  -webkit-border-radius: 99em;\\n\\t\\t  -moz-border-radius: 99em;\\n\\t\\t  border-radius: 99em;\\n\\t\\t  border: 5px solid #eee;\\n\\t\\t  box-shadow: 0 3px 2px rgba(0, 0, 0, 0.3);\\n\\t      position:relative;\\n\\t      z-index:10;\\n       \\n\\t}\\n\\n    .circle::after{\\n        position:absolute;\\n        left:200px;\\n        top:70px;\\n        font-size:large;\\n        font-weight:bold;\\n        content:"\', escape=False)\nresponse.write(name)\nresponse.write(\'";\\n    }\\n   \\n    #content{\\n    \\t\\n        position:relative;\\n        left:110px;\\n        top:-40px;\\n        /*h-shadow v-shadow blur spread color*/\\n\\t    box-shadow: 1px 0px 2px 2px #888888;\\n        height:500px;\\n\\t    overflow:scroll;\\n        border-radius:5px;\\n        z-index:9;\\n        padding: 10px;\\n\\n    }\\n\\n</style>\\n    \\n    <div class="circle" style="background-image:url(\', escape=False)\nresponse.write(Gravatar(auth.user.email).thumb)\nresponse.write(\')"></div>\\n<div class="span12">\\n<div id="content"> \\n    \\t<ul id="tabs" class="nav nav-tabs" data-tabs="tabs">\\n        \\t<li class="active"><a href="#posts" data-toggle="tab">Posts</a></li>\\n\\t        <li><a href="#edit" data-toggle="tab">Edit</a></li>\\n    \\t</ul>\\n\\t\\t    <div id="my-tab-content" class="tab-content">\\n\\t        <div class="tab-pane active" id="posts">\\n                \', escape=False)\nposts = db(db.user_post.posted_by_user==auth.user_id).select()\nresponse.write(\'\\n\\t          \', escape=False)\nprint "iterating posts"\nresponse.write(\'\\n                \', escape=False)\nfor post in posts:\n    response.write(\'\\n                    \', escape=False)\n    print post\n    response.write(\'\\n                    <div class="post">\\n                        \', escape=False)\n    if post.liked_by_user:\n        response.write(\'\\n                        \', escape=False)\n        response.write(len(post.liked_by_user))\n        response.write(\'\\n                        \', escape=False)\n    else:\n        response.write(\'\\n                        \', escape=False)\n        response.write(\'0\')\n        response.write(\'\\n\\t\\t\\t\\t\\t\\t\', escape=False)\n        pass\n    response.write(\'\\n\\t\\t\\t\\t\\t\\t<span style="font-size:medium;">\', escape=False)\n    response.write(post.description)\n    response.write(\'</span>\\n                        <br>\\n                    <a href="\', escape=False)\n    response.write(post.url)\n    response.write(\'">\', escape=False)\n    response.write(post.url)\n    response.write(\' </a> \\n\\t\\t\\t\\t    </div><!--End of class post-->\\n\\t\\t\\t\\t\\t   \', escape=False)\n    pass\nresponse.write(\'\\n\\t        </div>\\n                <div class="tab-pane" id="edit">\\n\', escape=False)\nif request.args(0)==\'login\':\n    if not \'register\' in auth.settings.actions_disabled:\n        form.add_button(T(\'Register\'),URL(args=\'register\', vars={\'_next\': request.vars._next} if request.vars._next else None),_class=\'btn btn-block btn-lg btn-primary\')\n        pass\n    if not \'request_reset_password\' in auth.settings.actions_disabled:\n        form.add_button(T(\'Lost Password\'),URL(args=\'request_reset_password\'),_class=\'btn btn-block btn-lg btn-primary\')\n        pass\n    pass\nresponse.write(form)\nresponse.write(\'\\n    </div><!--End of edit pane-->\\n    </div>\\n</div>\\n</div>\\n\', escape=False)\nresponse.write(\'\\n\\n  <!-- The javascript =============================================\\n       (Placed at the end of the document so the pages load faster) -->\\n  <script src="\', escape=False)\nresponse.write(URL(\'static\',\'js/bootstrap.min.js\'))\nresponse.write(\'"></script>\\n  <script src="\', escape=False)\nresponse.write(URL(\'static\',\'js/web2py_bootstrap.js\'))\nresponse.write(\'"></script>\\n  <script src="\', escape=False)\nresponse.write(URL(\'static\',\'js/less.js\'))\nresponse.write(\'"></script>\\n  <!--[if lt IE 7 ]>\\n      <script src="\', escape=False)\nresponse.write(URL(\'static\',\'js/dd_belatedpng.js\'))\nresponse.write(\'"></script>\\n      <script> DD_belatedPNG.fix(\\\'img, .png_bg\\\'); //fix any <img> or .png_bg background-images </script>\\n      <![endif]-->\\n\\n  \', escape=False)\nif response.google_analytics_id:\n    response.write(\'\\n  <script src="\', escape=False)\n    response.write(URL(\'static\',\'js/analytics.min.js\'))\n    response.write(\'"></script>\\n  <script type="text/javascript">\\n  analytics.initialize({\\n    \\\'Google Analytics\\\':{trackingId:\\\'\', escape=False)\n    response.write(response.google_analytics_id)\n    response.write("\'}\\n  });</script>\\n  ", escape=False)\n    pass\nresponse.write(\'\\n  \\n    <script src="\', escape=False)\nresponse.write(URL(\'static\',\'js/share.js\',vars=dict(static=URL(\'static\',\'img\'))))\nresponse.write(\'"></script>\\n</body>\\n</html>\\n\', escape=False)'
p7
sS'snapshot'
p8
(dp9
S'exception'
p10
(dp11
S'__hash__'
p12
S"<method-wrapper '__hash__' of exceptions.AttributeError object>"
p13
sS'__setattr__'
p14
S"<method-wrapper '__setattr__' of exceptions.AttributeError object>"
p15
sS'__reduce_ex__'
p16
S'<built-in method __reduce_ex__ of exceptions.AttributeError object>'
p17
sS'__getslice__'
p18
S"<method-wrapper '__getslice__' of exceptions.AttributeError object>"
p19
sS'__getitem__'
p20
S"<method-wrapper '__getitem__' of exceptions.AttributeError object>"
p21
sS'__setstate__'
p22
S'<built-in method __setstate__ of exceptions.AttributeError object>'
p23
sS'args'
p24
S'("\'NoneType\' object has no attribute \'first_name\'",)'
p25
sS'__reduce__'
p26
S'<built-in method __reduce__ of exceptions.AttributeError object>'
p27
sS'__str__'
p28
S"<method-wrapper '__str__' of exceptions.AttributeError object>"
p29
sS'__format__'
p30
S'<built-in method __format__ of exceptions.AttributeError object>'
p31
sS'__getattribute__'
p32
S"<method-wrapper '__getattribute__' of exceptions.AttributeError object>"
p33
sS'__class__'
p34
S"<type 'exceptions.AttributeError'>"
p35
sS'__unicode__'
p36
S'<built-in method __unicode__ of exceptions.AttributeError object>'
p37
sS'__delattr__'
p38
S"<method-wrapper '__delattr__' of exceptions.AttributeError object>"
p39
sS'__subclasshook__'
p40
S'<built-in method __subclasshook__ of type object>'
p41
sS'__repr__'
p42
S"<method-wrapper '__repr__' of exceptions.AttributeError object>"
p43
sS'__dict__'
p44
S'{}'
p45
sS'__sizeof__'
p46
S'<built-in method __sizeof__ of exceptions.AttributeError object>'
p47
sS'__doc__'
p48
S"'Attribute not found.'"
p49
sS'__init__'
p50
S"<method-wrapper '__init__' of exceptions.AttributeError object>"
p51
sS'__new__'
p52
S'<built-in method __new__ of type object>'
p53
ssS'evalue'
p54
S"'NoneType' object has no attribute 'first_name'"
p55
sS'request'
p56
cgluon.html
XML_unpickle
p57
(S's4h\x00\x00<div><table><tr><td style="font-weight:bold;vertical-align:top">ajax</td><td valign="top">:</td><td><div>False</div></td></tr><tr><td style="font-weight:bold;vertical-align:top">application</td><td valign="top">:</td><td><div>Amplify</div></td></tr><tr><td style="font-weight:bold;vertical-align:top">args</td><td valign="top">:</td><td><div><table></table></div></td></tr><tr><td style="font-weight:bold;vertical-align:top">body</td><td valign="top">:</td><td><div>&lt;cStringIO.StringO object at 0x103c0ee30&gt;</div></td></tr><tr><td style="font-weight:bold;vertical-align:top">cid</td><td valign="top">:</td><td><div>None</div></td></tr><tr><td style="font-weight:bold;vertical-align:top">client</td><td valign="top">:</td><td><div>127.0.0.1</div></td></tr><tr><td style="font-weight:bold;vertical-align:top">controller</td><td valign="top">:</td><td><div>default</div></td></tr><tr><td style="font-weight:bold;vertical-align:top">cookies</td><td valign="top">:</td><td><div><table><tr><td style="font-weight:bold;vertical-align:top">session_id_admin</td><td valign="top">:</td><td><div>127.0.0.1-7db7eefc-9f83-40e3-8599-b6f9393cf31d<table><tr><td style="font-weight:bold;vertical-align:top">comment</td><td valign="top">:</td><td><div></div></td></tr><tr><td style="font-weight:bold;vertical-align:top">domain</td><td valign="top">:</td><td><div></div></td></tr><tr><td style="font-weight:bold;vertical-align:top">expires</td><td valign="top">:</td><td><div></div></td></tr><tr><td style="font-weight:bold;vertical-align:top">httponly</td><td valign="top">:</td><td><div></div></td></tr><tr><td style="font-weight:bold;vertical-align:top">max-age</td><td valign="top">:</td><td><div></div></td></tr><tr><td style="font-weight:bold;vertical-align:top">path</td><td valign="top">:</td><td><div></div></td></tr><tr><td style="font-weight:bold;vertical-align:top">secure</td><td valign="top">:</td><td><div></div></td></tr><tr><td style="font-weight:bold;vertical-align:top">version</td><td valign="top">:</td><td><div></div></td></tr></table></div></td></tr><tr><td style="font-weight:bold;vertical-align:top">session_id_amplify</td><td valign="top">:</td><td><div>127.0.0.1-6dbe842e-d6c9-4345-851e-5914f55a0026<table><tr><td style="font-weight:bold;vertical-align:top">comment</td><td valign="top">:</td><td><div></div></td></tr><tr><td style="font-weight:bold;vertical-align:top">domain</td><td valign="top">:</td><td><div></div></td></tr><tr><td style="font-weight:bold;vertical-align:top">expires</td><td valign="top">:</td><td><div></div></td></tr><tr><td style="font-weight:bold;vertical-align:top">httponly</td><td valign="top">:</td><td><div></div></td></tr><tr><td style="font-weight:bold;vertical-align:top">max-age</td><td valign="top">:</td><td><div></div></td></tr><tr><td style="font-weight:bold;vertical-align:top">path</td><td valign="top">:</td><td><div></div></td></tr><tr><td style="font-weight:bold;vertical-align:top">secure</td><td valign="top">:</td><td><div></div></td></tr><tr><td style="font-weight:bold;vertical-align:top">version</td><td valign="top">:</td><td><div></div></td></tr></table></div></td></tr><tr><td style="font-weight:bold;vertical-align:top">session_id_amplifyprototype</td><td valign="top">:</td><td><div>127.0.0.1-15740f78-a69b-423c-8f9a-98136689fda4<table><tr><td style="font-weight:bold;vertical-align:top">comment</td><td valign="top">:</td><td><div></div></td></tr><tr><td style="font-weight:bold;vertical-align:top">domain</td><td valign="top">:</td><td><div></div></td></tr><tr><td style="font-weight:bold;vertical-align:top">expires</td><td valign="top">:</td><td><div></div></td></tr><tr><td style="font-weight:bold;vertical-align:top">httponly</td><td valign="top">:</td><td><div></div></td></tr><tr><td style="font-weight:bold;vertical-align:top">max-age</td><td valign="top">:</td><td><div></div></td></tr><tr><td style="font-weight:bold;vertical-align:top">path</td><td valign="top">:</td><td><div></div></td></tr><tr><td style="font-weight:bold;vertical-align:top">secure</td><td valign="top">:</td><td><div></div></td></tr><tr><td style="font-weight:bold;vertical-align:top">version</td><td valign="top">:</td><td><div></div></td></tr></table></div></td></tr><tr><td style="font-weight:bold;vertical-align:top">session_id_facebookclone</td><td valign="top">:</td><td><div>127.0.0.1-11c060a6-b0dd-41b0-b301-dfd7cc431b50<table><tr><td style="font-weight:bold;vertical-align:top">comment</td><td valign="top">:</td><td><div></div></td></tr><tr><td style="font-weight:bold;vertical-align:top">domain</td><td valign="top">:</td><td><div></div></td></tr><tr><td style="font-weight:bold;vertical-align:top">expires</td><td valign="top">:</td><td><div></div></td></tr><tr><td style="font-weight:bold;vertical-align:top">httponly</td><td valign="top">:</td><td><div></div></td></tr><tr><td style="font-weight:bold;vertical-align:top">max-age</td><td valign="top">:</td><td><div></div></td></tr><tr><td style="font-weight:bold;vertical-align:top">path</td><td valign="top">:</td><td><div></div></td></tr><tr><td style="font-weight:bold;vertical-align:top">secure</td><td valign="top">:</td><td><div></div></td></tr><tr><td style="font-weight:bold;vertical-align:top">version</td><td valign="top">:</td><td><div></div></td></tr></table></div></td></tr><tr><td style="font-weight:bold;vertical-align:top">session_id_taskscheduler</td><td valign="top">:</td><td><div>127.0.0.1-4244ae84-7294-4b20-bc0c-3050812c06f6<table><tr><td style="font-weight:bold;vertical-align:top">comment</td><td valign="top">:</td><td><div></div></td></tr><tr><td style="font-weight:bold;vertical-align:top">domain</td><td valign="top">:</td><td><div></div></td></tr><tr><td style="font-weight:bold;vertical-align:top">expires</td><td valign="top">:</td><td><div></div></td></tr><tr><td style="font-weight:bold;vertical-align:top">httponly</td><td valign="top">:</td><td><div></div></td></tr><tr><td style="font-weight:bold;vertical-align:top">max-age</td><td valign="top">:</td><td><div></div></td></tr><tr><td style="font-weight:bold;vertical-align:top">path</td><td valign="top">:</td><td><div></div></td></tr><tr><td style="font-weight:bold;vertical-align:top">secure</td><td valign="top">:</td><td><div></div></td></tr><tr><td style="font-weight:bold;vertical-align:top">version</td><td valign="top">:</td><td><div></div></td></tr></table></div></td></tr><tr><td style="font-weight:bold;vertical-align:top">session_id_tryfacebookapi</td><td valign="top">:</td><td><div>127.0.0.1-83db9b5d-75e2-4537-8552-73abfada2711<table><tr><td style="font-weight:bold;vertical-align:top">comment</td><td valign="top">:</td><td><div></div></td></tr><tr><td style="font-weight:bold;vertical-align:top">domain</td><td valign="top">:</td><td><div></div></td></tr><tr><td style="font-weight:bold;vertical-align:top">expires</td><td valign="top">:</td><td><div></div></td></tr><tr><td style="font-weight:bold;vertical-align:top">httponly</td><td valign="top">:</td><td><div></div></td></tr><tr><td style="font-weight:bold;vertical-align:top">max-age</td><td valign="top">:</td><td><div></div></td></tr><tr><td style="font-weight:bold;vertical-align:top">path</td><td valign="top">:</td><td><div></div></td></tr><tr><td style="font-weight:bold;vertical-align:top">secure</td><td valign="top">:</td><td><div></div></td></tr><tr><td style="font-weight:bold;vertical-align:top">version</td><td valign="top">:</td><td><div></div></td></tr></table></div></td></tr><tr><td style="font-weight:bold;vertical-align:top">session_id_welcome</td><td valign="top">:</td><td><div>127.0.0.1-c2214d19-5b00-46c5-85d5-f8a0f736ae3d<table><tr><td style="font-weight:bold;vertical-align:top">comment</td><td valign="top">:</td><td><div></div></td></tr><tr><td style="font-weight:bold;vertical-align:top">domain</td><td valign="top">:</td><td><div></div></td></tr><tr><td style="font-weight:bold;vertical-align:top">expires</td><td valign="top">:</td><td><div></div></td></tr><tr><td style="font-weight:bold;vertical-align:top">httponly</td><td valign="top">:</td><td><div></div></td></tr><tr><td style="font-weight:bold;vertical-align:top">max-age</td><td valign="top">:</td><td><div></div></td></tr><tr><td style="font-weight:bold;vertical-align:top">path</td><td valign="top">:</td><td><div></div></td></tr><tr><td style="font-weight:bold;vertical-align:top">secure</td><td valign="top">:</td><td><div></div></td></tr><tr><td style="font-weight:bold;vertical-align:top">version</td><td valign="top">:</td><td><div></div></td></tr></table></div></td></tr></table></div></td></tr><tr><td style="font-weight:bold;vertical-align:top">env</td><td valign="top">:</td><td><div><table><tr><td style="font-weight:bold;vertical-align:top">app_folders</td><td valign="top">:</td><td><div>set([&#x27;/Users/josyulakrishna/Documents/web2py_src/web2py/applications/welcome/&#x27;, &#x27;/Users/josyulakrishna/Documents/web2py_src/web2py/applications/admin/&#x27;, &#x27;/Users/josyulakrishna/Documents/web2py_src/web2py/applications/Amplify/&#x27;])</div></td></tr><tr><td style="font-weight:bold;vertical-align:top">applications_parent</td><td valign="top">:</td><td><div>/Users/josyulakrishna/Documents/web2py_src/web2py</div></td></tr><tr><td style="font-weight:bold;vertical-align:top">cmd_args</td><td valign="top">:</td><td><div><table></table></div></td></tr><tr><td style="font-weight:bold;vertical-align:top">cmd_options</td><td valign="top">:</td><td><div>&lt;Values at 0x1031e2c68: {&#x27;verbose&#x27;: False, &#x27;ip&#x27;: &#x27;127.0.0.1&#x27;, &#x27;with_scheduler&#x27;: False, &#x27;ips&#x27;: [&#x27;69.43.160.163&#x27;], &#x27;shutdown_timeout&#x27;: 5, &#x27;taskbar&#x27;: False, &#x27;with_coverage&#x27;: False, &#x27;port&#x27;: 8000, &#x27;maxthreads&#x27;: None, &#x27;softcron&#x27;: False, &#x27;server_name&#x27;: &#x27;static-139.217.99.14-tataidc.co.in&#x27;, &#x27;bpython&#x27;: False, &#x27;nogui&#x27;: False, &#x27;pid_filename&#x27;: &#x27;httpserver.pid&#x27;, &#x27;extcron&#x27;: False, &#x27;runcron&#x27;: False, &#x27;run_system_tests&#x27;: False, &#x27;test&#x27;: None, &#x27;folder&#x27;: &#x27;/Users/josyulakrishna/Documents/web2py_src/web2py&#x27;, &#x27;config&#x27;: &#x27;&#x27;, &#x27;minthreads&#x27;: None, &#x27;winservice&#x27;: &#x27;&#x27;, &#x27;shell&#x27;: None, &#x27;run&#x27;: &#x27;&#x27;, &#x27;log_filename&#x27;: &#x27;httpserver.log&#x27;, &#x27;debuglevel&#x27;: 30, &#x27;args&#x27;: [&#x27;&#x27;], &#x27;socket_timeout&#x27;: 5, &#x27;ssl_ca_certificate&#x27;: None, &#x27;scheduler&#x27;: None, &#x27;profiler_filename&#x27;: None, &#x27;ssl_private_key&#x27;: &#x27;&#x27;, &#x27;scheduler_groups&#x27;: None, &#x27;password&#x27;: &#x27;&lt;ask&gt;&#x27;, &#x27;request_queue_size&#x27;: 5, &#x27;ssl_certificate&#x27;: &#x27;&#x27;, &#x27;cronjob&#x27;: False, &#x27;numthreads&#x27;: None, &#x27;quiet&#x27;: False, &#x27;interfaces&#x27;: None, &#x27;import_models&#x27;: False, &#x27;timeout&#x27;: 10, &#x27;plain&#x27;: False, &#x27;nobanner&#x27;: False}&gt;</div></td></tr><tr><td style="font-weight:bold;vertical-align:top">db_sessions</td><td valign="top">:</td><td><div>set([])</div></td></tr><tr><td style="font-weight:bold;vertical-align:top">debugging</td><td valign="top">:</td><td><div>True</div></td></tr><tr><td style="font-weight:bold;vertical-align:top">gluon_parent</td><td valign="top">:</td><td><div>/Users/josyulakrishna/Documents/web2py_src/web2py</div></td></tr><tr><td style="font-weight:bold;vertical-align:top">http_accept</td><td valign="top">:</td><td><div>text/html,application/xhtml+xml,application/xml;q=0.9,image/webp,*/*;q=0.8</div></td></tr><tr><td style="font-weight:bold;vertical-align:top">http_accept_encoding</td><td valign="top">:</td><td><div>gzip,deflate,sdch</div></td></tr><tr><td style="font-weight:bold;vertical-align:top">http_accept_language</td><td valign="top">:</td><td><div>en-US,en;q=0.8</div></td></tr><tr><td style="font-weight:bold;vertical-align:top">http_connection</td><td valign="top">:</td><td><div>keep-alive</div></td></tr><tr><td style="font-weight:bold;vertical-align:top">http_cookie</td><td valign="top">:</td><td><div>session_id_facebookclone=127.0.0.1-11c060a6-b0dd-41b0-b301-dfd7cc431b50; session_id_tryfacebookapi=127.0.0.1-83db9b5d-75e2-4537-8552-73abfada2711; session_id_taskscheduler=127.0.0.1-4244ae84-7294-4b20-bc0c-3050812c06f6; session_id_amplifyprototype=127.0.0.1-15740f78-a69b-423c-8f9a-98136689fda4; session_id_welcome=127.0.0.1-c2214d19-5b00-46c5-85d5-f8a0f736ae3d; session_id_admin=127.0.0.1-7db7eefc-9f83-40e3-8599-b6f9393cf31d; session_id_amplify=127.0.0.1-6dbe842e-d6c9-4345-851e-5914f55a0026</div></td></tr><tr><td style="font-weight:bold;vertical-align:top">http_host</td><td valign="top">:</td><td><div>127.0.0.1:8000</div></td></tr><tr><td style="font-weight:bold;vertical-align:top">http_user_agent</td><td valign="top">:</td><td><div>Mozilla/5.0 (Macintosh; Intel Mac OS X 10_9_2) AppleWebKit/537.36 (KHTML, like Gecko) Chrome/34.0.1847.131 Safari/537.36</div></td></tr><tr><td style="font-weight:bold;vertical-align:top">is_jython</td><td valign="top">:</td><td><div>False</div></td></tr><tr><td style="font-weight:bold;vertical-align:top">is_pypy</td><td valign="top">:</td><td><div>False</div></td></tr><tr><td style="font-weight:bold;vertical-align:top">local_hosts</td><td valign="top">:</td><td><div><table><tr><td><div>69.43.160.163</div></td></tr><tr><td><div>::1</div></td></tr><tr><td><div>::ffff:127.0.0.1</div></td></tr><tr><td><div>127.0.0.1</div></td></tr><tr><td><div>static-139.217.99.14-tataidc.co.in</div></td></tr></table></div></td></tr><tr><td style="font-weight:bold;vertical-align:top">path_info</td><td valign="top">:</td><td><div>/Amplify/default/profile</div></td></tr><tr><td style="font-weight:bold;vertical-align:top">query_string</td><td valign="top">:</td><td><div></div></td></tr><tr><td style="font-weight:bold;vertical-align:top">remote_addr</td><td valign="top">:</td><td><div>127.0.0.1</div></td></tr><tr><td style="font-weight:bold;vertical-align:top">remote_port</td><td valign="top">:</td><td><div>52445</div></td></tr><tr><td style="font-weight:bold;vertical-align:top">request_method</td><td valign="top">:</td><td><div>GET</div></td></tr><tr><td style="font-weight:bold;vertical-align:top">request_uri</td><td valign="top">:</td><td><div>/Amplify/default/profile</div></td></tr><tr><td style="font-weight:bold;vertical-align:top">script_name</td><td valign="top">:</td><td><div></div></td></tr><tr><td style="font-weight:bold;vertical-align:top">server_name</td><td valign="top">:</td><td><div>static-139.217.99.14-tataidc.co.in</div></td></tr><tr><td style="font-weight:bold;vertical-align:top">server_port</td><td valign="top">:</td><td><div>8000</div></td></tr><tr><td style="font-weight:bold;vertical-align:top">server_protocol</td><td valign="top">:</td><td><div>HTTP/1.1</div></td></tr><tr><td style="font-weight:bold;vertical-align:top">server_software</td><td valign="top">:</td><td><div>Rocket 1.2.6</div></td></tr><tr><td style="font-weight:bold;vertical-align:top">web2py_path</td><td valign="top">:</td><td><div>/Users/josyulakrishna/Documents/web2py_src/web2py</div></td></tr><tr><td style="font-weight:bold;vertical-align:top">web2py_version</td><td valign="top">:</td><td><div>2.5.1-stable+timestamp.2013.06.06.15.39.19</div></td></tr><tr><td style="font-weight:bold;vertical-align:top">wsgi_errors</td><td valign="top">:</td><td><div>&lt;open file &#x27;&lt;stderr&gt;&#x27;, mode &#x27;w&#x27; at 0x10028e1e0&gt;</div></td></tr><tr><td style="font-weight:bold;vertical-align:top">wsgi_file_wrapper</td><td valign="top">:</td><td><div>&lt;class wsgiref.util.FileWrapper at 0x102d9f4c8&gt;</div></td></tr><tr><td style="font-weight:bold;vertical-align:top">wsgi_input</td><td valign="top">:</td><td><div>&lt;socket._fileobject object at 0x101dccd50&gt;</div></td></tr><tr><td style="font-weight:bold;vertical-align:top">wsgi_multiprocess</td><td valign="top">:</td><td><div>False</div></td></tr><tr><td style="font-weight:bold;vertical-align:top">wsgi_multithread</td><td valign="top">:</td><td><div>True</div></td></tr><tr><td style="font-weight:bold;vertical-align:top">wsgi_run_once</td><td valign="top">:</td><td><div>False</div></td></tr><tr><td style="font-weight:bold;vertical-align:top">wsgi_url_scheme</td><td valign="top">:</td><td><div>http</div></td></tr><tr><td style="font-weight:bold;vertical-align:top">wsgi_version</td><td valign="top">:</td><td><div><table><tr><td><div>1</div></td></tr><tr><td><div>0</div></td></tr></table></div></td></tr></table></div></td></tr><tr><td style="font-weight:bold;vertical-align:top">extension</td><td valign="top">:</td><td><div>html</div></td></tr><tr><td style="font-weight:bold;vertical-align:top">folder</td><td valign="top">:</td><td><div>/Users/josyulakrishna/Documents/web2py_src/web2py/applications/Amplify/</div></td></tr><tr><td style="font-weight:bold;vertical-align:top">function</td><td valign="top">:</td><td><div>profile</div></td></tr><tr><td style="font-weight:bold;vertical-align:top">get_vars</td><td valign="top">:</td><td><div><table></table></div></td></tr><tr><td style="font-weight:bold;vertical-align:top">global_settings</td><td valign="top">:</td><td><div><table><tr><td style="font-weight:bold;vertical-align:top">app_folders</td><td valign="top">:</td><td><div>set([&#x27;/Users/josyulakrishna/Documents/web2py_src/web2py/applications/welcome/&#x27;, &#x27;/Users/josyulakrishna/Documents/web2py_src/web2py/applications/admin/&#x27;, &#x27;/Users/josyulakrishna/Documents/web2py_src/web2py/applications/Amplify/&#x27;])</div></td></tr><tr><td style="font-weight:bold;vertical-align:top">applications_parent</td><td valign="top">:</td><td><div>/Users/josyulakrishna/Documents/web2py_src/web2py</div></td></tr><tr><td style="font-weight:bold;vertical-align:top">cmd_args</td><td valign="top">:</td><td><div><table></table></div></td></tr><tr><td style="font-weight:bold;vertical-align:top">cmd_options</td><td valign="top">:</td><td><div>&lt;Values at 0x1031e2c68: {&#x27;verbose&#x27;: False, &#x27;ip&#x27;: &#x27;127.0.0.1&#x27;, &#x27;with_scheduler&#x27;: False, &#x27;ips&#x27;: [&#x27;69.43.160.163&#x27;], &#x27;shutdown_timeout&#x27;: 5, &#x27;taskbar&#x27;: False, &#x27;with_coverage&#x27;: False, &#x27;port&#x27;: 8000, &#x27;maxthreads&#x27;: None, &#x27;softcron&#x27;: False, &#x27;server_name&#x27;: &#x27;static-139.217.99.14-tataidc.co.in&#x27;, &#x27;bpython&#x27;: False, &#x27;nogui&#x27;: False, &#x27;pid_filename&#x27;: &#x27;httpserver.pid&#x27;, &#x27;extcron&#x27;: False, &#x27;runcron&#x27;: False, &#x27;run_system_tests&#x27;: False, &#x27;test&#x27;: None, &#x27;folder&#x27;: &#x27;/Users/josyulakrishna/Documents/web2py_src/web2py&#x27;, &#x27;config&#x27;: &#x27;&#x27;, &#x27;minthreads&#x27;: None, &#x27;winservice&#x27;: &#x27;&#x27;, &#x27;shell&#x27;: None, &#x27;run&#x27;: &#x27;&#x27;, &#x27;log_filename&#x27;: &#x27;httpserver.log&#x27;, &#x27;debuglevel&#x27;: 30, &#x27;args&#x27;: [&#x27;&#x27;], &#x27;socket_timeout&#x27;: 5, &#x27;ssl_ca_certificate&#x27;: None, &#x27;scheduler&#x27;: None, &#x27;profiler_filename&#x27;: None, &#x27;ssl_private_key&#x27;: &#x27;&#x27;, &#x27;scheduler_groups&#x27;: None, &#x27;password&#x27;: &#x27;&lt;ask&gt;&#x27;, &#x27;request_queue_size&#x27;: 5, &#x27;ssl_certificate&#x27;: &#x27;&#x27;, &#x27;cronjob&#x27;: False, &#x27;numthreads&#x27;: None, &#x27;quiet&#x27;: False, &#x27;interfaces&#x27;: None, &#x27;import_models&#x27;: False, &#x27;timeout&#x27;: 10, &#x27;plain&#x27;: False, &#x27;nobanner&#x27;: False}&gt;</div></td></tr><tr><td style="font-weight:bold;vertical-align:top">db_sessions</td><td valign="top">:</td><td><div>set([])</div></td></tr><tr><td style="font-weight:bold;vertical-align:top">debugging</td><td valign="top">:</td><td><div>True</div></td></tr><tr><td style="font-weight:bold;vertical-align:top">gluon_parent</td><td valign="top">:</td><td><div>/Users/josyulakrishna/Documents/web2py_src/web2py</div></td></tr><tr><td style="font-weight:bold;vertical-align:top">is_jython</td><td valign="top">:</td><td><div>False</div></td></tr><tr><td style="font-weight:bold;vertical-align:top">is_pypy</td><td valign="top">:</td><td><div>False</div></td></tr><tr><td style="font-weight:bold;vertical-align:top">local_hosts</td><td valign="top">:</td><td><div><table><tr><td><div>69.43.160.163</div></td></tr><tr><td><div>::1</div></td></tr><tr><td><div>::ffff:127.0.0.1</div></td></tr><tr><td><div>127.0.0.1</div></td></tr><tr><td><div>static-139.217.99.14-tataidc.co.in</div></td></tr></table></div></td></tr><tr><td style="font-weight:bold;vertical-align:top">web2py_version</td><td valign="top">:</td><td><div>2.5.1-stable+timestamp.2013.06.06.15.39.19</div></td></tr></table></div></td></tr><tr><td style="font-weight:bold;vertical-align:top">is_https</td><td valign="top">:</td><td><div>False</div></td></tr><tr><td style="font-weight:bold;vertical-align:top">is_local</td><td valign="top">:</td><td><div>True</div></td></tr><tr><td style="font-weight:bold;vertical-align:top">is_restful</td><td valign="top">:</td><td><div>False</div></td></tr><tr><td style="font-weight:bold;vertical-align:top">now</td><td valign="top">:</td><td><div>datetime.datetime(2014, 4, 30, 20, 13, 5, 714543)</div></td></tr><tr><td style="font-weight:bold;vertical-align:top">post_vars</td><td valign="top">:</td><td><div><table></table></div></td></tr><tr><td style="font-weight:bold;vertical-align:top">raw_args</td><td valign="top">:</td><td><div></div></td></tr><tr><td style="font-weight:bold;vertical-align:top">raw_extension</td><td valign="top">:</td><td><div>None</div></td></tr><tr><td style="font-weight:bold;vertical-align:top">url</td><td valign="top">:</td><td><div>/Amplify/default/profile</div></td></tr><tr><td style="font-weight:bold;vertical-align:top">utcnow</td><td valign="top">:</td><td><div>datetime.datetime(2014, 4, 30, 14, 43, 5, 714552)</div></td></tr><tr><td style="font-weight:bold;vertical-align:top">uuid</td><td valign="top">:</td><td><div>Amplify/127.0.0.1.2014-04-30.20-13-05.865cc089-d8db-4fbe-9dca-a618fdee9703</div></td></tr><tr><td style="font-weight:bold;vertical-align:top">vars</td><td valign="top">:</td><td><div><table></table></div></td></tr><tr><td style="font-weight:bold;vertical-align:top">wsgi</td><td valign="top">:</td><td><div><table><tr><td style="font-weight:bold;vertical-align:top">environ</td><td valign="top">:</td><td><div><table><tr><td style="font-weight:bold;vertical-align:top">HTTP_ACCEPT</td><td valign="top">:</td><td><div>text/html,application/xhtml+xml,application/xml;q=0.9,image/webp,*/*;q=0.8</div></td></tr><tr><td style="font-weight:bold;vertical-align:top">HTTP_ACCEPT_ENCODING</td><td valign="top">:</td><td><div>gzip,deflate,sdch</div></td></tr><tr><td style="font-weight:bold;vertical-align:top">HTTP_ACCEPT_LANGUAGE</td><td valign="top">:</td><td><div>en-US,en;q=0.8</div></td></tr><tr><td style="font-weight:bold;vertical-align:top">HTTP_CONNECTION</td><td valign="top">:</td><td><div>keep-alive</div></td></tr><tr><td style="font-weight:bold;vertical-align:top">HTTP_COOKIE</td><td valign="top">:</td><td><div>session_id_facebookclone=127.0.0.1-11c060a6-b0dd-41b0-b301-dfd7cc431b50; session_id_tryfacebookapi=127.0.0.1-83db9b5d-75e2-4537-8552-73abfada2711; session_id_taskscheduler=127.0.0.1-4244ae84-7294-4b20-bc0c-3050812c06f6; session_id_amplifyprototype=127.0.0.1-15740f78-a69b-423c-8f9a-98136689fda4; session_id_welcome=127.0.0.1-c2214d19-5b00-46c5-85d5-f8a0f736ae3d; session_id_admin=127.0.0.1-7db7eefc-9f83-40e3-8599-b6f9393cf31d; session_id_amplify=127.0.0.1-6dbe842e-d6c9-4345-851e-5914f55a0026</div></td></tr><tr><td style="font-weight:bold;vertical-align:top">HTTP_HOST</td><td valign="top">:</td><td><div>127.0.0.1:8000</div></td></tr><tr><td style="font-weight:bold;vertical-align:top">HTTP_USER_AGENT</td><td valign="top">:</td><td><div>Mozilla/5.0 (Macintosh; Intel Mac OS X 10_9_2) AppleWebKit/537.36 (KHTML, like Gecko) Chrome/34.0.1847.131 Safari/537.36</div></td></tr><tr><td style="font-weight:bold;vertical-align:top">PATH_INFO</td><td valign="top">:</td><td><div>/Amplify/default/profile</div></td></tr><tr><td style="font-weight:bold;vertical-align:top">QUERY_STRING</td><td valign="top">:</td><td><div></div></td></tr><tr><td style="font-weight:bold;vertical-align:top">REMOTE_ADDR</td><td valign="top">:</td><td><div>127.0.0.1</div></td></tr><tr><td style="font-weight:bold;vertical-align:top">REMOTE_PORT</td><td valign="top">:</td><td><div>52445</div></td></tr><tr><td style="font-weight:bold;vertical-align:top">REQUEST_METHOD</td><td valign="top">:</td><td><div>GET</div></td></tr><tr><td style="font-weight:bold;vertical-align:top">REQUEST_URI</td><td valign="top">:</td><td><div>/Amplify/default/profile</div></td></tr><tr><td style="font-weight:bold;vertical-align:top">SCRIPT_NAME</td><td valign="top">:</td><td><div></div></td></tr><tr><td style="font-weight:bold;vertical-align:top">SERVER_NAME</td><td valign="top">:</td><td><div>static-139.217.99.14-tataidc.co.in</div></td></tr><tr><td style="font-weight:bold;vertical-align:top">SERVER_PORT</td><td valign="top">:</td><td><div>8000</div></td></tr><tr><td style="font-weight:bold;vertical-align:top">SERVER_PROTOCOL</td><td valign="top">:</td><td><div>HTTP/1.1</div></td></tr><tr><td style="font-weight:bold;vertical-align:top">SERVER_SOFTWARE</td><td valign="top">:</td><td><div>Rocket 1.2.6</div></td></tr><tr><td style="font-weight:bold;vertical-align:top">wsgi.errors</td><td valign="top">:</td><td><div>&lt;open file &#x27;&lt;stderr&gt;&#x27;, mode &#x27;w&#x27; at 0x10028e1e0&gt;</div></td></tr><tr><td style="font-weight:bold;vertical-align:top">wsgi.file_wrapper</td><td valign="top">:</td><td><div>&lt;class wsgiref.util.FileWrapper at 0x102d9f4c8&gt;</div></td></tr><tr><td style="font-weight:bold;vertical-align:top">wsgi.input</td><td valign="top">:</td><td><div>&lt;cStringIO.StringO object at 0x103c0ee30&gt;</div></td></tr><tr><td style="font-weight:bold;vertical-align:top">wsgi.multiprocess</td><td valign="top">:</td><td><div>False</div></td></tr><tr><td style="font-weight:bold;vertical-align:top">wsgi.multithread</td><td valign="top">:</td><td><div>True</div></td></tr><tr><td style="font-weight:bold;vertical-align:top">wsgi.run_once</td><td valign="top">:</td><td><div>False</div></td></tr><tr><td style="font-weight:bold;vertical-align:top">wsgi.url_scheme</td><td valign="top">:</td><td><div>http</div></td></tr><tr><td style="font-weight:bold;vertical-align:top">wsgi.version</td><td valign="top">:</td><td><div>1</div></td></tr></table></div></td></tr></table></div></td></tr></table></div>'
tRp58
sS'frames'
p59
(lp60
(dp61
S'file'
p62
S'/Users/josyulakrishna/Documents/web2py_src/web2py/gluon/restricted.py'
p63
sS'dump'
p64
(dp65
S'environment'
p66
S"{'A': <class 'gluon.html.A'>, 'ANY_OF': <class 'gluon.validators.ANY_OF'>, 'Auth': <class 'gluon.tools.Auth'>, 'B': <class 'gluon.html.B'>, 'BEAUTIFY': <class 'gluon.html.BEAUTIFY'>, 'BODY': <class 'gluon.html.BODY'>, 'BR': <class 'gluon.html.BR'>, 'BUTTON': <class 'gluon.html.BUTTON'>, 'BeautifulSoup': <class 'bs4.BeautifulSoup'>, 'CAT': <class 'gluon.html.CAT'>, ...}"
p67
sS'ccode'
p68
S'<code object <module> at 0x101dc6530, file "/Use...ions/Amplify/views/default/profile.html", line 1>'
p69
ssS'lnum'
p70
I212
sS'lines'
p71
(dp72
I207
S'    try:'
p73
sI208
S'        if isinstance(code, types.CodeType):'
p74
sI209
S'            ccode = code'
p75
sI210
S'        else:'
p76
sI211
S'            ccode = compile2(code, layer)'
p77
sI212
S'        exec ccode in environment'
p78
sI213
S'    except HTTP:'
p79
sI214
S'        raise'
p80
sI215
S'    except RestrictedError:'
p81
sI216
S'        # do not encapsulate (obfuscate) the original RestrictedError'
p82
ssS'call'
p83
S'(code=\'response.write(\\\'<!--[if HTML5]><![endif]-->\\\\n<!D...(\\\'"></script>\\\\n</body>\\\\n</html>\\\\n\\\', escape=False)\', environment={\'A\': <class \'gluon.html.A\'>, \'ANY_OF\': <class \'gluon.validators.ANY_OF\'>, \'Auth\': <class \'gluon.tools.Auth\'>, \'B\': <class \'gluon.html.B\'>, \'BEAUTIFY\': <class \'gluon.html.BEAUTIFY\'>, \'BODY\': <class \'gluon.html.BODY\'>, \'BR\': <class \'gluon.html.BR\'>, \'BUTTON\': <class \'gluon.html.BUTTON\'>, \'BeautifulSoup\': <class \'bs4.BeautifulSoup\'>, \'CAT\': <class \'gluon.html.CAT\'>, ...}, layer=\'/Users/josyulakrishna/Documents/web2py_src/web2py/applications/Amplify/views/default/profile.html\')'
p84
sS'func'
p85
S'restricted'
p86
sa(dp87
g62
S'/Users/josyulakrishna/Documents/web2py_src/web2py/applications/Amplify/views/default/profile.html'
p88
sg64
(dp89
S'style'
p90
S'undefined'
p91
ssg70
I63
sg71
(dp92
I64
S'response.write(\'\\n<script>\\n      jQuery(document).ready(function ($) {\\n        $(\\\'#tabs\\\').tab();\\n    });\\n</script>\\n<style>\\n\\t/*Style common for all pages navbar design*/\\n\\n    .navbar-inner{\\n        background:rgba(255, 255, 255, 1);    \\n    }\\n\\t.navbar .nav > li > a {\\n        <!color: #FFFFFF;-->\\n    }    \\n    .navbar{\\n        border-bottom: 4px solid rgba(46, 204, 113, 1);\\n    }\\n\\t/*End of Style common for all pages */\\n\\t\\n\\t.circle {\\n\\t\\t  display: inline-block;\\n\\t\\t  width: 150px;\\n\\t\\t  height: 150px;\\n\\t\\t  margin: 1em auto;\\n\\t\\t  background-size: cover;\\n\\t\\t  background-repeat: no-repeat;\\n\\t\\t  background-position: center center;\\n\\t\\t  -webkit-border-radius: 99em;\\n\\t\\t  -moz-border-radius: 99em;\\n\\t\\t  border-radius: 99em;\\n\\t\\t  border: 5px solid #eee;\\n\\t\\t  box-shadow: 0 3px 2px rgba(0, 0, 0, 0.3);\\n\\t      position:relative;\\n\\t      z-index:10;\\n       \\n\\t}\\n\\n    .circle::after{\\n        position:absolute;\\n        left:200px;\\n        top:70px;\\n        font-size:large;\\n        font-weight:bold;\\n        content:"\', escape=False)'
p93
sI65
S'response.write(name)'
p94
sI66
S'response.write(\'";\\n    }\\n   \\n    #content{\\n    \\t\\n        position:relative;\\n        left:110px;\\n        top:-40px;\\n        /*h-shadow v-shadow blur spread color*/\\n\\t    box-shadow: 1px 0px 2px 2px #888888;\\n        height:500px;\\n\\t    overflow:scroll;\\n        border-radius:5px;\\n        z-index:9;\\n        padding: 10px;\\n\\n    }\\n\\n</style>\\n    \\n    <div class="circle" style="background-image:url(\', escape=False)'
p95
sI67
S'response.write(Gravatar(auth.user.email).thumb)'
p96
sI68
S'response.write(\')"></div>\\n<div class="span12">\\n<div id="content"> \\n    \\t<ul id="tabs" class="nav nav-tabs" data-tabs="tabs">\\n        \\t<li class="active"><a href="#posts" data-toggle="tab">Posts</a></li>\\n\\t        <li><a href="#edit" data-toggle="tab">Edit</a></li>\\n    \\t</ul>\\n\\t\\t    <div id="my-tab-content" class="tab-content">\\n\\t        <div class="tab-pane active" id="posts">\\n                \', escape=False)'
p97
sI69
S'posts = db(db.user_post.posted_by_user==auth.user_id).select()'
p98
sI70
S"response.write('\\n\\t          ', escape=False)"
p99
sI71
S'print "iterating posts"'
p100
sI72
S"response.write('\\n                ', escape=False)"
p101
sI73
S'for post in posts:'
p102
sI54
S'response.write(str(response.title))'
p103
sI55
S'response.write(\'</a></li></ul>\\n        <ul id="navbar" class="nav pull-right" style="color:white;">\\n            <li><a href=\', escape=False)'
p104
sI56
S"response.write(URL(c='news',f='social'))"
p105
sI57
S"response.write('>News</a><li>\\n            <li><a href=', escape=False)"
p106
sI58
S"response.write(URL(c='default', f ='interests'))"
p107
sI59
S"response.write('>Interests</a><li>\\n            <li>', escape=False)"
p108
sI60
S'response.write(\'auth\' in globals() and auth.navbar(mode="dropdown",referrer_actions=None) or \'\')'
p109
sI61
S"response.write('</li>\\n            </ul>\\n    </div>\\n</div>\\n    ', escape=False)"
p110
sI62
S"response.write('\\n', escape=False)"
p111
sI63
S'name=(auth.user.first_name)+" "+(auth.user.last_name)'
p112
ssg83
S'()'
p113
sg85
S'<module>'
p114
sasS'pyver'
p115
S'Python 2.7.5: /Users/josyulakrishna/Documents/PythonPackages/anaconda/bin/python (prefix: /Users/josyulakrishna/Documents/PythonPackages/anaconda)'
p116
sS'session'
p117
g57
(S's\x01\x02\x00\x00<div><table><tr><td style="font-weight:bold;vertical-align:top">auth</td><td valign="top">:</td><td><div>None</div></td></tr><tr><td style="font-weight:bold;vertical-align:top">flash</td><td valign="top">:</td><td><div>None</div></td></tr><tr><td style="font-weight:bold;vertical-align:top">last_orderby</td><td valign="top">:</td><td><div>None</div></td></tr><tr><td style="font-weight:bold;vertical-align:top">last_query</td><td valign="top">:</td><td><div>db.user_clusters.id&gt;0</div></td></tr></table></div>'
tRp118
sS'etype'
p119
S"<type 'exceptions.AttributeError'>"
p120
sS'date'
p121
S'Wed Apr 30 20:13:05 2014'
p122
sS'response'
p123
g57
(S's\xc7.\x00\x00<div><table><tr><td style="font-weight:bold;vertical-align:top">body</td><td valign="top">:</td><td><div>&lt;cStringIO.StringO object at 0x10b80e068&gt;</div></td></tr><tr><td style="font-weight:bold;vertical-align:top">cookies</td><td valign="top">:</td><td><div><table><tr><td style="font-weight:bold;vertical-align:top">session_id_amplify</td><td valign="top">:</td><td><div>127.0.0.1-6dbe842e-d6c9-4345-851e-5914f55a0026<table><tr><td style="font-weight:bold;vertical-align:top">comment</td><td valign="top">:</td><td><div></div></td></tr><tr><td style="font-weight:bold;vertical-align:top">domain</td><td valign="top">:</td><td><div></div></td></tr><tr><td style="font-weight:bold;vertical-align:top">expires</td><td valign="top">:</td><td><div></div></td></tr><tr><td style="font-weight:bold;vertical-align:top">httponly</td><td valign="top">:</td><td><div></div></td></tr><tr><td style="font-weight:bold;vertical-align:top">max-age</td><td valign="top">:</td><td><div></div></td></tr><tr><td style="font-weight:bold;vertical-align:top">path</td><td valign="top">:</td><td><div>/</div></td></tr><tr><td style="font-weight:bold;vertical-align:top">secure</td><td valign="top">:</td><td><div></div></td></tr><tr><td style="font-weight:bold;vertical-align:top">version</td><td valign="top">:</td><td><div></div></td></tr></table></div></td></tr></table></div></td></tr><tr><td style="font-weight:bold;vertical-align:top">delimiters</td><td valign="top">:</td><td><div><table><tr><td><div>{{</div></td></tr><tr><td><div>}}</div></td></tr></table></div></td></tr><tr><td style="font-weight:bold;vertical-align:top">files</td><td valign="top">:</td><td><div><table><tr><td><div>/Amplify/static/js/jquery.js</div></td></tr><tr><td><div>/Amplify/static/css/calendar.css</div></td></tr><tr><td><div>/Amplify/static/js/calendar.js</div></td></tr><tr><td><div>/Amplify/static/js/web2py.js</div></td></tr><tr><td><div>/Amplify/static/css/bootstrap.min.css</div></td></tr><tr><td><div>/Amplify/static/css/bootstrap-responsive.min.css</div></td></tr><tr><td><div>/Amplify/static/css/flat-ui.css</div></td></tr><tr><td><div>/Amplify/static/css/sb-admin.css</div></td></tr></table></div></td></tr><tr><td style="font-weight:bold;vertical-align:top">flash</td><td valign="top">:</td><td><div></div></td></tr><tr><td style="font-weight:bold;vertical-align:top">generic_patterns</td><td valign="top">:</td><td><div><table><tr><td><div>*</div></td></tr></table></div></td></tr><tr><td style="font-weight:bold;vertical-align:top">google_analytics_id</td><td valign="top">:</td><td><div>None</div></td></tr><tr><td style="font-weight:bold;vertical-align:top">headers</td><td valign="top">:</td><td><div><table><tr><td style="font-weight:bold;vertical-align:top">X-Powered-By</td><td valign="top">:</td><td><div>web2py</div></td></tr></table></div></td></tr><tr><td style="font-weight:bold;vertical-align:top">logo</td><td valign="top">:</td><td><div><a class="brand" href="http://www.web2py.com/"><b>web<span>2</span>py</b>&trade;&nbsp;</a></div></td></tr><tr><td style="font-weight:bold;vertical-align:top">menu</td><td valign="top">:</td><td><div><table><tr><td><div><table><tr><td><div>Home</div></td></tr><tr><td><div>False</div></td></tr><tr><td><div>/Amplify/default/index</div></td></tr><tr><td><div><table></table></div></td></tr></table></div></td></tr><tr><td><div><table><tr><td><div><span class="highlighted">web2py</span></div></td></tr><tr><td><div>False</div></td></tr><tr><td><div>http://web2py.com</div></td></tr><tr><td><div><table><tr><td><div><table><tr><td><div>My Sites</div></td></tr><tr><td><div>False</div></td></tr><tr><td><div>/admin/default/site</div></td></tr></table></div></td></tr><tr><td><div><table><tr><td><div>This App</div></td></tr><tr><td><div>False</div></td></tr><tr><td><div>/admin/default/design/Amplify</div></td></tr><tr><td><div>[(&lt;lazyT &#x27;Controller&#x27;&gt;, False, &#x27;/admin/default/edit/Amplify/controllers/default.py&#x27;), (&lt;lazyT &#x27;View&#x27;&gt;, False, &#x27;/admin/default/edit/Amplify/views/default/profile.html&#x27;), (&lt;lazyT &#x27;Layout&#x27;&gt;, False, &#x27;/admin/default/edit/Amplify/views/layout.html&#x27;), (&lt;lazyT &#x27;Stylesheet&#x27;&gt;, False, &#x27;/admin/default/edit/Amplify/static/css/web2py.css&#x27;), (&lt;lazyT &#x27;DB Model&#x27;&gt;, False, &#x27;/admin/default/edit/Amplify/models/db.py&#x27;), (&lt;lazyT &#x27;Menu Model&#x27;&gt;, False, &#x27;/admin/default/edit/Amplify/models/menu.py&#x27;), (&lt;lazyT &#x27;Database&#x27;&gt;, False, &#x27;/Amplify/appadmin/index&#x27;), (&lt;lazyT &#x27;Errors&#x27;&gt;, False, &#x27;/admin/default/errors/Amplify&#x27;), (&lt;lazyT &#x27;About&#x27;&gt;, False, &#x27;/admin/default/about/Amplify&#x27;)]</div></td></tr></table></div></td></tr><tr><td><div><table><tr><td><div>web2py.com</div></td></tr><tr><td><div>False</div></td></tr><tr><td><div>http://www.web2py.com</div></td></tr><tr><td><div>[(&lt;lazyT &#x27;Download&#x27;&gt;, False, &#x27;http://www.web2py.com/examples/default/download&#x27;), (&lt;lazyT &#x27;Support&#x27;&gt;, False, &#x27;http://www.web2py.com/examples/default/support&#x27;), (&lt;lazyT &#x27;Demo&#x27;&gt;, False, &#x27;http://web2py.com/demo_admin&#x27;), (&lt;lazyT &#x27;Quick Examples&#x27;&gt;, False, &#x27;http://web2py.com/examples/default/examples&#x27;), (&lt;lazyT &#x27;FAQ&#x27;&gt;, False, &#x27;http://web2py.com/AlterEgo&#x27;), (&lt;lazyT &#x27;Videos&#x27;&gt;, False, &#x27;http://www.web2py.com/examples/default/videos/&#x27;), (&lt;lazyT &#x27;Free Applications&#x27;&gt;, False, &#x27;http://web2py.com/appliances&#x27;), (&lt;lazyT &#x27;Plugins&#x27;&gt;, False, &#x27;http://web2py.com/plugins&#x27;), (&lt;lazyT &#x27;Layouts&#x27;&gt;, False, &#x27;http://web2py.com/layouts&#x27;), (&lt;lazyT &#x27;Recipes&#x27;&gt;, False, &#x27;http://web2pyslices.com/&#x27;), (&lt;lazyT &#x27;Semantic&#x27;&gt;, False, &#x27;http://web2py.com/semantic&#x27;)]</div></td></tr></table></div></td></tr><tr><td><div><table><tr><td><div>Documentation</div></td></tr><tr><td><div>False</div></td></tr><tr><td><div>http://www.web2py.com/book</div></td></tr><tr><td><div>[(&lt;lazyT &#x27;Preface&#x27;&gt;, False, &#x27;http://www.web2py.com/book/default/chapter/00&#x27;), (&lt;lazyT &#x27;Introduction&#x27;&gt;, False, &#x27;http://www.web2py.com/book/default/chapter/01&#x27;), (&lt;lazyT &#x27;Python&#x27;&gt;, False, &#x27;http://www.web2py.com/book/default/chapter/02&#x27;), (&lt;lazyT &#x27;Overview&#x27;&gt;, False, &#x27;http://www.web2py.com/book/default/chapter/03&#x27;), (&lt;lazyT &#x27;The Core&#x27;&gt;, False, &#x27;http://www.web2py.com/book/default/chapter/04&#x27;), (&lt;lazyT &#x27;The Views&#x27;&gt;, False, &#x27;http://www.web2py.com/book/default/chapter/05&#x27;), (&lt;lazyT &#x27;Database&#x27;&gt;, False, &#x27;http://www.web2py.com/book/default/chapter/06&#x27;), (&lt;lazyT &#x27;Forms and Validators&#x27;&gt;, False, &#x27;http://www.web2py.com/book/default/chapter/07&#x27;), (&lt;lazyT &#x27;Email and SMS&#x27;&gt;, False, &#x27;http://www.web2py.com/book/default/chapter/08&#x27;), (&lt;lazyT &#x27;Access Control&#x27;&gt;, False, &#x27;http://www.web2py.com/book/default/chapter/09&#x27;), (&lt;lazyT &#x27;Services&#x27;&gt;, False, &#x27;http://www.web2py.com/book/default/chapter/10&#x27;), (&lt;lazyT &#x27;Ajax Recipes&#x27;&gt;, False, &#x27;http://www.web2py.com/book/default/chapter/11&#x27;), (&lt;lazyT &#x27;Components and Plugins&#x27;&gt;, False, &#x27;http://www.web2py.com/book/default/chapter/12&#x27;), (&lt;lazyT &#x27;Deployment Recipes&#x27;&gt;, False, &#x27;http://www.web2py.com/book/default/chapter/13&#x27;), (&lt;lazyT &#x27;Other Recipes&#x27;&gt;, False, &#x27;http://www.web2py.com/book/default/chapter/14&#x27;), (&lt;lazyT &#x27;Buy this book&#x27;&gt;, False, &#x27;http://stores.lulu.com/web2py&#x27;)]</div></td></tr></table></div></td></tr><tr><td><div><table><tr><td><div>Community</div></td></tr><tr><td><div>False</div></td></tr><tr><td><div>None</div></td></tr><tr><td><div>[(&lt;lazyT &#x27;Groups&#x27;&gt;, False, &#x27;http://www.web2py.com/examples/default/usergroups&#x27;), (&lt;lazyT &#x27;Twitter&#x27;&gt;, False, &#x27;http://twitter.com/web2py&#x27;), (&lt;lazyT &#x27;Live Chat&#x27;&gt;, False, &#x27;http://webchat.freenode.net/?channels=web2py&#x27;)]</div></td></tr></table></div></td></tr><tr><td><div><table><tr><td><div>Plugins</div></td></tr><tr><td><div>False</div></td></tr><tr><td><div>None</div></td></tr><tr><td><div>[(&#x27;plugin_wiki&#x27;, False, &#x27;http://web2py.com/examples/default/download&#x27;), (&lt;lazyT &#x27;Other Plugins&#x27;&gt;, False, &#x27;http://web2py.com/plugins&#x27;), (&lt;lazyT &#x27;Layout Plugins&#x27;&gt;, False, &#x27;http://web2py.com/layouts&#x27;)]</div></td></tr></table></div></td></tr></table></div></td></tr></table></div></td></tr></table></div></td></tr><tr><td style="font-weight:bold;vertical-align:top">meta</td><td valign="top">:</td><td><div><table><tr><td style="font-weight:bold;vertical-align:top">author</td><td valign="top">:</td><td><div>Your Name &lt;you@example.com&gt;</div></td></tr><tr><td style="font-weight:bold;vertical-align:top">description</td><td valign="top">:</td><td><div>a cool new app</div></td></tr><tr><td style="font-weight:bold;vertical-align:top">generator</td><td valign="top">:</td><td><div>Web2py Web Framework</div></td></tr><tr><td style="font-weight:bold;vertical-align:top">keywords</td><td valign="top">:</td><td><div>web2py, python, framework</div></td></tr></table></div></td></tr><tr><td style="font-weight:bold;vertical-align:top">models_to_run</td><td valign="top">:</td><td><div><table><tr><td><div>^\\w+\\.py$</div></td></tr><tr><td><div>^default/\\w+\\.py$</div></td></tr><tr><td><div>^default/profile/\\w+\\.py$</div></td></tr></table></div></td></tr><tr><td style="font-weight:bold;vertical-align:top">postprocessing</td><td valign="top">:</td><td><div><table></table></div></td></tr><tr><td style="font-weight:bold;vertical-align:top">session_cookie_expires</td><td valign="top">:</td><td><div>None</div></td></tr><tr><td style="font-weight:bold;vertical-align:top">session_data_name</td><td valign="top">:</td><td><div>session_data_amplify</div></td></tr><tr><td style="font-weight:bold;vertical-align:top">session_file</td><td valign="top">:</td><td><div>&lt;open file &#x27;/Users/josyulakrishna/Documents/web2py_src/web2py/applications/Amplify/sessions/127.0.0.1-6dbe842e-d6c9-4345-851e-5914f55a0026&#x27;, mode &#x27;rb+&#x27; at 0x10aea25d0&gt;</div></td></tr><tr><td style="font-weight:bold;vertical-align:top">session_filename</td><td valign="top">:</td><td><div>/Users/josyulakrishna/Documents/web2py_src/web2py/applications/Amplify/sessions/127.0.0.1-6dbe842e-d6c9-4345-851e-5914f55a0026</div></td></tr><tr><td style="font-weight:bold;vertical-align:top">session_id</td><td valign="top">:</td><td><div>127.0.0.1-6dbe842e-d6c9-4345-851e-5914f55a0026</div></td></tr><tr><td style="font-weight:bold;vertical-align:top">session_id_name</td><td valign="top">:</td><td><div>session_id_amplify</div></td></tr><tr><td style="font-weight:bold;vertical-align:top">session_locked</td><td valign="top">:</td><td><div>True</div></td></tr><tr><td style="font-weight:bold;vertical-align:top">session_new</td><td valign="top">:</td><td><div>False</div></td></tr><tr><td style="font-weight:bold;vertical-align:top">session_storage_type</td><td valign="top">:</td><td><div>file</div></td></tr><tr><td style="font-weight:bold;vertical-align:top">status</td><td valign="top">:</td><td><div>200</div></td></tr><tr><td style="font-weight:bold;vertical-align:top">subtitle</td><td valign="top">:</td><td><div>customize me!</div></td></tr><tr><td style="font-weight:bold;vertical-align:top">title</td><td valign="top">:</td><td><div>Amplify</div></td></tr><tr><td style="font-weight:bold;vertical-align:top">view</td><td valign="top">:</td><td><div>default/profile.html</div></td></tr></table></div>'
tRp124
sS'locals'
p125
(dp126
S'neighbors'
p127
S"<module 'sklearn.neighbors' from '/Users/josyula....7/site-packages/sklearn/neighbors/__init__.pyc'>"
p128
sS'Service'
p129
S"<class 'gluon.tools.Service'>"
p130
sS'STRONG'
p131
S"<class 'gluon.html.STRONG'>"
p132
sS'OBJECT'
p133
S"<class 'gluon.html.OBJECT'>"
p134
sS'LOAD'
p135
S'<function LOAD>'
p136
sS'SQLDB'
p137
S"<class 'gluon.dal.DAL'>"
p138
sg117
S"<Storage {'_formkey[user_interests/create]': '6c...sword]': '9e326095-544a-4064-888c-9855f16d5366'}>"
p139
sS'LINK'
p140
S"<class 'gluon.html.LINK'>"
p141
sS'Auth'
p142
S"<class 'gluon.tools.Auth'>"
p143
sS'BR'
p144
S"<class 'gluon.html.BR'>"
p145
sS'local_import'
p146
S'<function <lambda>>'
p147
sS'OPTGROUP'
p148
S"<class 'gluon.html.OPTGROUP'>"
p149
sS'__package__'
p150
S'None'
p151
sS'PRE'
p152
S"<class 'gluon.html.PRE'>"
p153
sS'IS_INT_IN_RANGE'
p154
S"<class 'gluon.validators.IS_INT_IN_RANGE'>"
p155
sS'IS_LOWER'
p156
S"<class 'gluon.validators.IS_LOWER'>"
p157
sS'IS_STRONG'
p158
S"<class 'gluon.validators.IS_STRONG'>"
p159
sS'cache'
p160
S'<gluon.cache.Cache object>'
p161
sS'IS_IN_DB'
p162
S"<class 'gluon.validators.IS_IN_DB'>"
p163
sS'TAG'
p164
S'<gluon.html.__TAG__ object>'
p165
sS'Scheduler'
p166
S"<class 'gluon.scheduler.Scheduler'>"
p167
sS'SQLField'
p168
S"<class 'gluon.dal.Field'>"
p169
sS'BODY'
p170
S"<class 'gluon.html.BODY'>"
p171
sS'IS_DATE_IN_RANGE'
p172
S"<class 'gluon.validators.IS_DATE_IN_RANGE'>"
p173
sS'random'
p174
S"<module 'random' from '/Users/josyulakrishna/Doc...ythonPackages/anaconda/lib/python2.7/random.pyc'>"
p175
sS'IFRAME'
p176
S"<class 'gluon.html.IFRAME'>"
p177
sS'ON'
p178
S'True'
p179
sS'URL'
p180
S'<function URL>'
p181
sS'__file__'
p182
S"'/Users/josyulakrishna/Documents/web2py_src/web2py/applications/Amplify/views/default/profile.html'"
p183
sS'db'
p184
S'<DAL uri="sqlite://storage.sqlite">'
p185
sS'auth'
p186
S'<gluon.tools.Auth object>'
p187
sS'P'
S"<class 'gluon.html.P'>"
p188
sS'knnSelect'
p189
S'<function knnSelect>'
p190
sS'TFOOT'
p191
S"<class 'gluon.html.TFOOT'>"
p192
sS'scheduler'
p193
S'<Scheduler(Thread-36, initial daemon)>'
p194
sS'XHTML'
p195
S"<class 'gluon.html.XHTML'>"
p196
sS'datetime'
p197
S"<module 'datetime' from '/Users/josyulakrishna/D.../anaconda/lib/python2.7/lib-dynload/datetime.so'>"
p198
sS'make_clusters'
p199
S'<function make_clusters>'
p200
sS'httplib'
p201
S"<module 'httplib' from '/Users/josyulakrishna/Do...thonPackages/anaconda/lib/python2.7/httplib.pyc'>"
p202
sS'OL'
p203
S"<class 'gluon.html.OL'>"
p204
sS'TEXTAREA'
p205
S"<class 'gluon.html.TEXTAREA'>"
p206
sS'MENU'
p207
S"<class 'gluon.html.MENU'>"
p208
sS'STYLE'
p209
S"<class 'gluon.html.STYLE'>"
p210
sS'IS_IMAGE'
p211
S"<class 'gluon.validators.IS_IMAGE'>"
p212
sS'defaultdict'
p213
S"<type 'collections.defaultdict'>"
p214
sS'CODE'
p215
S"<class 'gluon.html.CODE'>"
p216
sS'HTTP'
p217
S"<class 'gluon.http.HTTP'>"
p218
sS'HR'
p219
S"<class 'gluon.html.HR'>"
p220
sS'IS_DATETIME'
p221
S"<class 'gluon.validators.IS_DATETIME'>"
p222
sS'KMeans'
p223
S"<class 'sklearn.cluster.k_means_.KMeans'>"
p224
sS'LABEL'
p225
S"<class 'gluon.html.LABEL'>"
p226
sS'CLEANUP'
p227
S"<class 'gluon.validators.CLEANUP'>"
p228
sS'plugins'
p229
S'<gluon.tools.PluginManager object>'
p230
sS'html5lib'
p231
S"<module 'html5lib' from '/Users/josyulakrishna/D...b/python2.7/site-packages/html5lib/__init__.pyc'>"
p232
sS'SELECT'
p233
S"<class 'gluon.html.SELECT'>"
p234
sS'scale'
p235
S'<function scale>'
p236
sS'CENTER'
p237
S"<class 'gluon.html.CENTER'>"
p238
sS'prettydate'
p239
S'<function prettydate>'
p240
sS'Crud'
p241
S"<class 'gluon.tools.Crud'>"
p242
sS'urllib'
p243
S"<module 'urllib' from '/Users/josyulakrishna/Doc...ythonPackages/anaconda/lib/python2.7/urllib.pyc'>"
p244
sS'DEVELOPMENT_MENU'
p245
g179
sS'treebuilders'
p246
S"<module 'html5lib.treebuilders' from '/Users/jos...ite-packages/html5lib/treebuilders/__init__.pyc'>"
p247
sS'__builtins__'
p248
S"{'ArithmeticError': <type 'exceptions.ArithmeticError'>, 'AssertionError': <type 'exceptions.AssertionError'>, 'AttributeError': <type 'exceptions.AttributeError'>, 'BaseException': <type 'exceptions.BaseException'>, 'BufferError': <type 'exceptions.BufferError'>, 'BytesWarning': <type 'exceptions.BytesWarning'>, 'DeprecationWarning': <type 'exceptions.DeprecationWarning'>, 'EOFError': <type 'exceptions.EOFError'>, 'Ellipsis': Ellipsis, 'EnvironmentError': <type 'exceptions.EnvironmentError'>, ...}"
p249
sS'HTML'
p250
S"<class 'gluon.html.HTML'>"
p251
sS'SQLFORM'
p252
S"<class 'gluon.sqlhtml.SQLFORM'>"
p253
sS'EM'
p254
S"<class 'gluon.html.EM'>"
p255
sS'redirect'
p256
S'<function redirect>'
p257
sS'FIELDSET'
p258
S"<class 'gluon.html.FIELDSET'>"
p259
sS'IS_EQUAL_TO'
p260
S"<class 'gluon.validators.IS_EQUAL_TO'>"
p261
sS'embed64'
p262
S'<function embed64>'
p263
sS'Gravatar'
p264
S"<class 'gluon.contrib.gravatar.Gravatar'>"
p265
sS'IS_LIST_OF'
p266
S"<class 'gluon.validators.IS_LIST_OF'>"
p267
sS'__name__'
p268
S"'__restricted__'"
p269
sS'EMBED'
p270
S"<class 'gluon.html.EMBED'>"
p271
sS'_'
S'<function _>'
p272
sS'H2'
p273
S"<class 'gluon.html.H2'>"
p274
sS'H3'
p275
S"<class 'gluon.html.H3'>"
p276
sS'BUTTON'
p277
S"<class 'gluon.html.BUTTON'>"
p278
sS'H1'
p279
S"<class 'gluon.html.H1'>"
p280
sS'H6'
p281
S"<class 'gluon.html.H6'>"
p282
sS'H4'
p283
S"<class 'gluon.html.H4'>"
p284
sS'H5'
p285
S"<class 'gluon.html.H5'>"
p286
sS'UL'
p287
S"<class 'gluon.html.UL'>"
p288
sS'IS_UPPER'
p289
S"<class 'gluon.validators.IS_UPPER'>"
p290
sS'xmlescape'
p291
S'<function xmlescape>'
p292
sS'IS_TIME'
p293
S"<class 'gluon.validators.IS_TIME'>"
p294
sS'OPTION'
p295
S"<class 'gluon.html.OPTION'>"
p296
sS'TITLE'
p297
S"<class 'gluon.html.TITLE'>"
p298
sS'CRYPT'
p299
S"<class 'gluon.validators.CRYPT'>"
p300
sS'IS_EMPTY_OR'
p301
S"<class 'gluon.validators.IS_EMPTY_OR'>"
p302
sS'MARKMIN'
p303
S"<class 'gluon.html.MARKMIN'>"
p304
sS'INPUT'
p305
S"<class 'gluon.html.INPUT'>"
p306
sS'total'
p307
S'10'
p308
sS'COL'
p309
S"<class 'gluon.html.COL'>"
p310
sS'service'
p311
S'<gluon.tools.Service object>'
p312
sS'SCRIPT'
p313
S"<class 'gluon.html.SCRIPT'>"
p314
sS'BeautifulSoup'
p315
S"<class 'bs4.BeautifulSoup'>"
p316
sS'json'
p317
S"<module 'json' from '/Users/josyulakrishna/Docum...ckages/anaconda/lib/python2.7/json/__init__.pyc'>"
p318
sS'feedparser'
p319
S"<module 'feedparser' from '/Users/josyulakrishna...onda/lib/python2.7/site-packages/feedparser.pyc'>"
p320
sS'print_function'
p321
S"_Feature((2, 6, 0, 'alpha', 2), (3, 0, 0, 'alpha', 0), 65536)"
p322
sS'TABLE'
p323
S"<class 'gluon.html.TABLE'>"
p324
sS'IS_IPV4'
p325
S"<class 'gluon.validators.IS_IPV4'>"
p326
sS'IS_LENGTH'
p327
S"<class 'gluon.validators.IS_LENGTH'>"
p328
sS'IS_IPV6'
p329
S"<class 'gluon.validators.IS_IPV6'>"
p330
sS'XML'
p331
S"<class 'gluon.html.XML'>"
p332
sS'B'
S"<class 'gluon.html.B'>"
p333
sS'knnMake'
p334
S'<function knnMake>'
p335
sS'allCategories'
p336
S"['Science', 'Arts', 'Bussiness and Economy', 'Computers and Techonology', 'Health', 'Home and Domestic Life', 'News', 'Recreation Activities', 'Reference Education', 'Shopping', 'Society', 'Sports']"
p337
sS'IS_MATCH'
p338
S"<class 'gluon.validators.IS_MATCH'>"
p339
sS'IS_ALPHANUMERIC'
p340
S"<class 'gluon.validators.IS_ALPHANUMERIC'>"
p341
sS'SPAN'
p342
S"<class 'gluon.html.SPAN'>"
p343
sS'IS_JSON'
p344
S"<class 'gluon.validators.IS_JSON'>"
p345
sS'IS_IPADDRESS'
p346
S"<class 'gluon.validators.IS_IPADDRESS'>"
p347
sS'IS_SLUG'
p348
S"<class 'gluon.validators.IS_SLUG'>"
p349
sS'BEAUTIFY'
p350
S"<class 'gluon.html.BEAUTIFY'>"
p351
sS'META'
p352
S"<class 'gluon.html.META'>"
p353
sS'IS_DATE'
p354
S"<class 'gluon.validators.IS_DATE'>"
p355
sS'IS_EMAIL'
p356
S"<class 'gluon.validators.IS_EMAIL'>"
p357
sS'IS_NOT_EMPTY'
p358
S"<class 'gluon.validators.IS_NOT_EMPTY'>"
p359
sS'IS_FLOAT_IN_RANGE'
p360
S"<class 'gluon.validators.IS_FLOAT_IN_RANGE'>"
p361
sS'sanitizer'
p362
S"<module 'html5lib.sanitizer' from '/Users/josyul.../python2.7/site-packages/html5lib/sanitizer.pyc'>"
p363
sS'TBODY'
p364
S"<class 'gluon.html.TBODY'>"
p365
sS'CAT'
p366
S"<class 'gluon.html.CAT'>"
p367
sS'Field'
p368
S"<class 'gluon.dal.Field'>"
p369
sS'DIV'
p370
S"<class 'gluon.html.DIV'>"
p371
sS'LEGEND'
p372
S"<class 'gluon.html.LEGEND'>"
p373
sS'IMG'
p374
S"<class 'gluon.html.IMG'>"
p375
sS'COLGROUP'
p376
S"<class 'gluon.html.COLGROUP'>"
p377
sS'DAL'
p378
S"<class 'gluon.dal.DAL'>"
p379
sS'TT'
p380
S"<class 'gluon.html.TT'>"
p381
sS'TR'
p382
S"<class 'gluon.html.TR'>"
p383
sS'LI'
p384
S"<class 'gluon.html.LI'>"
p385
sS'SQLTABLE'
p386
S"<class 'gluon.sqlhtml.SQLTABLE'>"
p387
sS'TH'
p388
S"<class 'gluon.html.TH'>"
p389
sS'np'
p390
S"<module 'numpy' from '/Users/josyulakrishna/Docu.../lib/python2.7/site-packages/numpy/__init__.pyc'>"
p391
sS'TD'
p392
S"<class 'gluon.html.TD'>"
p393
sS'PluginManager'
p394
S"<class 'gluon.tools.PluginManager'>"
p395
sS'IS_URL'
p396
S"<class 'gluon.validators.IS_URL'>"
p397
sS'A'
S"<class 'gluon.html.A'>"
p398
sS'HEAD'
p399
S"<class 'gluon.html.HEAD'>"
p400
sS'IS_DATETIME_IN_RANGE'
p401
S"<class 'gluon.validators.IS_DATETIME_IN_RANGE'>"
p402
sS'FORM'
p403
S"<class 'gluon.html.FORM'>"
p404
sS'I'
S"<class 'gluon.html.I'>"
p405
sS'crud'
p406
S'<gluon.tools.Crud object>'
p407
sS'IS_NOT_IN_DB'
p408
S"<class 'gluon.validators.IS_NOT_IN_DB'>"
p409
sg123
S"<Storage {'body': <cStringIO.StringO object at 0...at 0x10ae86c08>, 'view': 'default/profile.html'}>"
p410
sS'THEAD'
p411
S"<class 'gluon.html.THEAD'>"
p412
sS'ANY_OF'
p413
S"<class 'gluon.validators.ANY_OF'>"
p414
sS'IS_NULL_OR'
p415
S"<class 'gluon.validators.IS_EMPTY_OR'>"
p416
sg56
S"<Storage {'function': 'profile', 'body': <cStrin...plications/Amplify/', 'post_vars': <Storage {}>}>"
p417
sS'IS_EXPR'
p418
S"<class 'gluon.validators.IS_EXPR'>"
p419
sS'T'
S'<gluon.languages.translator object>'
p420
sS'IS_IN_SET'
p421
S"<class 'gluon.validators.IS_IN_SET'>"
p422
sS'IS_UPLOAD_FILENAME'
p423
S"<class 'gluon.validators.IS_UPLOAD_FILENAME'>"
p424
sS'IS_DECIMAL_IN_RANGE'
p425
S"<class 'gluon.validators.IS_DECIMAL_IN_RANGE'>"
p426
sssS'traceback'
p427
S'Traceback (most recent call last):\n  File "/Users/josyulakrishna/Documents/web2py_src/web2py/gluon/restricted.py", line 212, in restricted\n    exec ccode in environment\n  File "/Users/josyulakrishna/Documents/web2py_src/web2py/applications/Amplify/views/default/profile.html", line 63, in <module>\nAttributeError: \'NoneType\' object has no attribute \'first_name\'\n'
p428
s.