(dp1
S'output'
p2
S"<type 'exceptions.SyntaxError'> Set: no tables selected"
p3
sS'layer'
p4
S'/Users/josyulakrishna/Documents/web2py_src/web2py/applications/Amplify/models/scheduler.py'
p5
sS'code'
p6
S'# coding: utf8\n# coding: utf8\n#from __future__ import print_function\nimport datetime, random, feedparser\nfrom collections import defaultdict\nimport numpy as np\nfrom sklearn.cluster import KMeans\nfrom sklearn.preprocessing import scale\nimport json\n\ntotal = len(db(db.auth_user.id>0).select())\nprint total\n\ndef make_clusters():\n    if total<=10:\n        clusters = 2\n    elif total>10 and total<=50:\n        clusters = 5\n    elif total>50 and total<101:\n        clusters = 10\n    else:\n        return 0\n    aggregate = []\n    user_index = []\n    i=0\n    db(db.user_clusters.id>0).delete()\n    for row in db(db.user_interests).select():\n        i+=1\n        user_index.append(int(row.user_id))\n        empty = []\n        for topic in db.user_interests.fields[2:]:\n            empty.append(row[topic])\n        aggregate.append(empty)\n        print "aggregate ",aggregate\n    aggregate = np.array(aggregate)\n    t_aggregate = np.zeros((i,12))\n    t_aggregate[aggregate] = 1\n    print "t_aggregate ",t_aggregate\n    kmeans = KMeans(n_clusters=clusters,init=\'random\',n_jobs=1,n_init=20,max_iter=500)\n    d = kmeans.fit_predict(t_aggregate)\n    d = d.tolist()\n    print user_index\n    print d\n    for j in range(len(d)):\n        pass\n        db.user_clusters.insert(user_id = user_index[j], cluster_id = d[j] )\n    #knnMake()\n    return 0\n\ndef knnMake():\n    clusterId = []\n    userId = []\n    clusterUser={}\n\n    #get the rows for each cluster\n    rows = db(db.user_clusters).select()\n    for row in rows:\n        clusterId.append(row.cluster_id)\n    clusterId = set(clusterId)\n    print clusterId\n    for cluster in clusterId:\n        rows = db(db.user_clusters.cluster_id==cluster).select() #get rows where clusterid=clusterid\n        for row in rows:\n            clusterUser.setdefault(cluster,[]).append(row.user_id)\n    print "finished getting rows"\n\n    #get users interests\n    clusterInterests = {}\n    temp = []\n    for cluster in clusterId:\n        print cluster, datetime.datetime.now()\n        for v in clusterUser[cluster]:\n            for row in db(db.user_interests==v).select():\n               empty = []\n               for topic in db.user_interests.fields[2:]:\n                    empty.append(row[topic])\n               aggregate.append(empty)\n               \n               \n    \n\n    #converting the arrays to numpy format with zeros and ones\n    zeros = np.zeros(len(db.user_interests.fields[2:]))\n    temp = [] #for holding the user interests\n    for k in clusterInterests.keys():\n        pass\n        \n\nknnMake()\n#make_clusters()\n#from gluon.scheduler import Scheduler\n#scheduler = Scheduler(db)\n#scheduler.queue_task(make_clusters, repeats=0, start_time=datetime.datetime.now(), period=86400)\n'
p7
sS'snapshot'
p8
(dp9
S'exception'
p10
(dp11
S'__getslice__'
p12
S"<method-wrapper '__getslice__' of exceptions.SyntaxError object>"
p13
sS'text'
p14
S'None'
p15
sS'__str__'
p16
S"<method-wrapper '__str__' of exceptions.SyntaxError object>"
p17
sS'__reduce__'
p18
S'<built-in method __reduce__ of exceptions.SyntaxError object>'
p19
sS'__dict__'
p20
S'{}'
p21
sS'__sizeof__'
p22
S'<built-in method __sizeof__ of exceptions.SyntaxError object>'
p23
sS'__init__'
p24
S"<method-wrapper '__init__' of exceptions.SyntaxError object>"
p25
sS'__setattr__'
p26
S"<method-wrapper '__setattr__' of exceptions.SyntaxError object>"
p27
sS'__reduce_ex__'
p28
S'<built-in method __reduce_ex__ of exceptions.SyntaxError object>'
p29
sS'__new__'
p30
S'<built-in method __new__ of type object>'
p31
sS'__format__'
p32
S'<built-in method __format__ of exceptions.SyntaxError object>'
p33
sS'__class__'
p34
S"<type 'exceptions.SyntaxError'>"
p35
sS'filename'
p36
S'None'
p37
sS'lineno'
p38
S'None'
p39
sS'msg'
p40
S"'Set: no tables selected'"
p41
sS'__doc__'
p42
S"'Invalid syntax.'"
p43
sS'__getitem__'
p44
S"<method-wrapper '__getitem__' of exceptions.SyntaxError object>"
p45
sS'__setstate__'
p46
S'<built-in method __setstate__ of exceptions.SyntaxError object>'
p47
sS'__getattribute__'
p48
S"<method-wrapper '__getattribute__' of exceptions.SyntaxError object>"
p49
sS'print_file_and_line'
p50
S'None'
p51
sS'args'
p52
S"('Set: no tables selected',)"
p53
sS'__subclasshook__'
p54
S'<built-in method __subclasshook__ of type object>'
p55
sS'offset'
p56
S'None'
p57
sS'__unicode__'
p58
S'<built-in method __unicode__ of exceptions.SyntaxError object>'
p59
sS'__delattr__'
p60
S"<method-wrapper '__delattr__' of exceptions.SyntaxError object>"
p61
sS'__repr__'
p62
S"<method-wrapper '__repr__' of exceptions.SyntaxError object>"
p63
sS'__hash__'
p64
S"<method-wrapper '__hash__' of exceptions.SyntaxError object>"
p65
ssS'evalue'
p66
S'Set: no tables selected'
p67
sS'request'
p68
cgluon.html
XML_unpickle
p69
(S's\xd5l\x00\x00<div><table><tr><td style="font-weight:bold;vertical-align:top">ajax</td><td valign="top">:</td><td><div>False</div></td></tr><tr><td style="font-weight:bold;vertical-align:top">application</td><td valign="top">:</td><td><div>Amplify</div></td></tr><tr><td style="font-weight:bold;vertical-align:top">args</td><td valign="top">:</td><td><div><table><tr><td><div>db</div></td></tr></table></div></td></tr><tr><td style="font-weight:bold;vertical-align:top">body</td><td valign="top">:</td><td><div>&lt;cStringIO.StringO object at 0x10af55d50&gt;</div></td></tr><tr><td style="font-weight:bold;vertical-align:top">cid</td><td valign="top">:</td><td><div>None</div></td></tr><tr><td style="font-weight:bold;vertical-align:top">client</td><td valign="top">:</td><td><div>127.0.0.1</div></td></tr><tr><td style="font-weight:bold;vertical-align:top">controller</td><td valign="top">:</td><td><div>appadmin</div></td></tr><tr><td style="font-weight:bold;vertical-align:top">cookies</td><td valign="top">:</td><td><div><table><tr><td style="font-weight:bold;vertical-align:top">session_id_admin</td><td valign="top">:</td><td><div>127.0.0.1-7db7eefc-9f83-40e3-8599-b6f9393cf31d<table><tr><td style="font-weight:bold;vertical-align:top">comment</td><td valign="top">:</td><td><div></div></td></tr><tr><td style="font-weight:bold;vertical-align:top">domain</td><td valign="top">:</td><td><div></div></td></tr><tr><td style="font-weight:bold;vertical-align:top">expires</td><td valign="top">:</td><td><div></div></td></tr><tr><td style="font-weight:bold;vertical-align:top">httponly</td><td valign="top">:</td><td><div></div></td></tr><tr><td style="font-weight:bold;vertical-align:top">max-age</td><td valign="top">:</td><td><div></div></td></tr><tr><td style="font-weight:bold;vertical-align:top">path</td><td valign="top">:</td><td><div></div></td></tr><tr><td style="font-weight:bold;vertical-align:top">secure</td><td valign="top">:</td><td><div></div></td></tr><tr><td style="font-weight:bold;vertical-align:top">version</td><td valign="top">:</td><td><div></div></td></tr></table></div></td></tr><tr><td style="font-weight:bold;vertical-align:top">session_id_amplify</td><td valign="top">:</td><td><div>127.0.0.1-6dbe842e-d6c9-4345-851e-5914f55a0026<table><tr><td style="font-weight:bold;vertical-align:top">comment</td><td valign="top">:</td><td><div></div></td></tr><tr><td style="font-weight:bold;vertical-align:top">domain</td><td valign="top">:</td><td><div></div></td></tr><tr><td style="font-weight:bold;vertical-align:top">expires</td><td valign="top">:</td><td><div></div></td></tr><tr><td style="font-weight:bold;vertical-align:top">httponly</td><td valign="top">:</td><td><div></div></td></tr><tr><td style="font-weight:bold;vertical-align:top">max-age</td><td valign="top">:</td><td><div></div></td></tr><tr><td style="font-weight:bold;vertical-align:top">path</td><td valign="top">:</td><td><div></div></td></tr><tr><td style="font-weight:bold;vertical-align:top">secure</td><td valign="top">:</td><td><div></div></td></tr><tr><td style="font-weight:bold;vertical-align:top">version</td><td valign="top">:</td><td><div></div></td></tr></table></div></td></tr><tr><td style="font-weight:bold;vertical-align:top">session_id_amplifyprototype</td><td valign="top">:</td><td><div>127.0.0.1-15740f78-a69b-423c-8f9a-98136689fda4<table><tr><td style="font-weight:bold;vertical-align:top">comment</td><td valign="top">:</td><td><div></div></td></tr><tr><td style="font-weight:bold;vertical-align:top">domain</td><td valign="top">:</td><td><div></div></td></tr><tr><td style="font-weight:bold;vertical-align:top">expires</td><td valign="top">:</td><td><div></div></td></tr><tr><td style="font-weight:bold;vertical-align:top">httponly</td><td valign="top">:</td><td><div></div></td></tr><tr><td style="font-weight:bold;vertical-align:top">max-age</td><td valign="top">:</td><td><div></div></td></tr><tr><td style="font-weight:bold;vertical-align:top">path</td><td valign="top">:</td><td><div></div></td></tr><tr><td style="font-weight:bold;vertical-align:top">secure</td><td valign="top">:</td><td><div></div></td></tr><tr><td style="font-weight:bold;vertical-align:top">version</td><td valign="top">:</td><td><div></div></td></tr></table></div></td></tr><tr><td style="font-weight:bold;vertical-align:top">session_id_facebookclone</td><td valign="top">:</td><td><div>127.0.0.1-11c060a6-b0dd-41b0-b301-dfd7cc431b50<table><tr><td style="font-weight:bold;vertical-align:top">comment</td><td valign="top">:</td><td><div></div></td></tr><tr><td style="font-weight:bold;vertical-align:top">domain</td><td valign="top">:</td><td><div></div></td></tr><tr><td style="font-weight:bold;vertical-align:top">expires</td><td valign="top">:</td><td><div></div></td></tr><tr><td style="font-weight:bold;vertical-align:top">httponly</td><td valign="top">:</td><td><div></div></td></tr><tr><td style="font-weight:bold;vertical-align:top">max-age</td><td valign="top">:</td><td><div></div></td></tr><tr><td style="font-weight:bold;vertical-align:top">path</td><td valign="top">:</td><td><div></div></td></tr><tr><td style="font-weight:bold;vertical-align:top">secure</td><td valign="top">:</td><td><div></div></td></tr><tr><td style="font-weight:bold;vertical-align:top">version</td><td valign="top">:</td><td><div></div></td></tr></table></div></td></tr><tr><td style="font-weight:bold;vertical-align:top">session_id_taskscheduler</td><td valign="top">:</td><td><div>127.0.0.1-4244ae84-7294-4b20-bc0c-3050812c06f6<table><tr><td style="font-weight:bold;vertical-align:top">comment</td><td valign="top">:</td><td><div></div></td></tr><tr><td style="font-weight:bold;vertical-align:top">domain</td><td valign="top">:</td><td><div></div></td></tr><tr><td style="font-weight:bold;vertical-align:top">expires</td><td valign="top">:</td><td><div></div></td></tr><tr><td style="font-weight:bold;vertical-align:top">httponly</td><td valign="top">:</td><td><div></div></td></tr><tr><td style="font-weight:bold;vertical-align:top">max-age</td><td valign="top">:</td><td><div></div></td></tr><tr><td style="font-weight:bold;vertical-align:top">path</td><td valign="top">:</td><td><div></div></td></tr><tr><td style="font-weight:bold;vertical-align:top">secure</td><td valign="top">:</td><td><div></div></td></tr><tr><td style="font-weight:bold;vertical-align:top">version</td><td valign="top">:</td><td><div></div></td></tr></table></div></td></tr><tr><td style="font-weight:bold;vertical-align:top">session_id_tryfacebookapi</td><td valign="top">:</td><td><div>127.0.0.1-83db9b5d-75e2-4537-8552-73abfada2711<table><tr><td style="font-weight:bold;vertical-align:top">comment</td><td valign="top">:</td><td><div></div></td></tr><tr><td style="font-weight:bold;vertical-align:top">domain</td><td valign="top">:</td><td><div></div></td></tr><tr><td style="font-weight:bold;vertical-align:top">expires</td><td valign="top">:</td><td><div></div></td></tr><tr><td style="font-weight:bold;vertical-align:top">httponly</td><td valign="top">:</td><td><div></div></td></tr><tr><td style="font-weight:bold;vertical-align:top">max-age</td><td valign="top">:</td><td><div></div></td></tr><tr><td style="font-weight:bold;vertical-align:top">path</td><td valign="top">:</td><td><div></div></td></tr><tr><td style="font-weight:bold;vertical-align:top">secure</td><td valign="top">:</td><td><div></div></td></tr><tr><td style="font-weight:bold;vertical-align:top">version</td><td valign="top">:</td><td><div></div></td></tr></table></div></td></tr><tr><td style="font-weight:bold;vertical-align:top">session_id_welcome</td><td valign="top">:</td><td><div>127.0.0.1-c2214d19-5b00-46c5-85d5-f8a0f736ae3d<table><tr><td style="font-weight:bold;vertical-align:top">comment</td><td valign="top">:</td><td><div></div></td></tr><tr><td style="font-weight:bold;vertical-align:top">domain</td><td valign="top">:</td><td><div></div></td></tr><tr><td style="font-weight:bold;vertical-align:top">expires</td><td valign="top">:</td><td><div></div></td></tr><tr><td style="font-weight:bold;vertical-align:top">httponly</td><td valign="top">:</td><td><div></div></td></tr><tr><td style="font-weight:bold;vertical-align:top">max-age</td><td valign="top">:</td><td><div></div></td></tr><tr><td style="font-weight:bold;vertical-align:top">path</td><td valign="top">:</td><td><div></div></td></tr><tr><td style="font-weight:bold;vertical-align:top">secure</td><td valign="top">:</td><td><div></div></td></tr><tr><td style="font-weight:bold;vertical-align:top">version</td><td valign="top">:</td><td><div></div></td></tr></table></div></td></tr></table></div></td></tr><tr><td style="font-weight:bold;vertical-align:top">env</td><td valign="top">:</td><td><div><table><tr><td style="font-weight:bold;vertical-align:top">app_folders</td><td valign="top">:</td><td><div>set([&#x27;/Users/josyulakrishna/Documents/web2py_src/web2py/applications/welcome/&#x27;, &#x27;/Users/josyulakrishna/Documents/web2py_src/web2py/applications/admin/&#x27;, &#x27;/Users/josyulakrishna/Documents/web2py_src/web2py/applications/Amplify/&#x27;])</div></td></tr><tr><td style="font-weight:bold;vertical-align:top">applications_parent</td><td valign="top">:</td><td><div>/Users/josyulakrishna/Documents/web2py_src/web2py</div></td></tr><tr><td style="font-weight:bold;vertical-align:top">cmd_args</td><td valign="top">:</td><td><div><table></table></div></td></tr><tr><td style="font-weight:bold;vertical-align:top">cmd_options</td><td valign="top">:</td><td><div>&lt;Values at 0x103ae2b90: {&#x27;verbose&#x27;: False, &#x27;ip&#x27;: &#x27;127.0.0.1&#x27;, &#x27;with_scheduler&#x27;: False, &#x27;ips&#x27;: [&#x27;192.168.12.250&#x27;, &#x27;fe80::5ef9:38ff:fe8c:8472%en0&#x27;], &#x27;shutdown_timeout&#x27;: 5, &#x27;taskbar&#x27;: False, &#x27;with_coverage&#x27;: False, &#x27;port&#x27;: 8000, &#x27;maxthreads&#x27;: None, &#x27;softcron&#x27;: False, &#x27;server_name&#x27;: &#x27;Josyulas-MacBook-Air.local&#x27;, &#x27;bpython&#x27;: False, &#x27;nogui&#x27;: False, &#x27;pid_filename&#x27;: &#x27;httpserver.pid&#x27;, &#x27;extcron&#x27;: False, &#x27;runcron&#x27;: False, &#x27;run_system_tests&#x27;: False, &#x27;test&#x27;: None, &#x27;folder&#x27;: &#x27;/Users/josyulakrishna/Documents/web2py_src/web2py&#x27;, &#x27;config&#x27;: &#x27;&#x27;, &#x27;minthreads&#x27;: None, &#x27;winservice&#x27;: &#x27;&#x27;, &#x27;shell&#x27;: None, &#x27;run&#x27;: &#x27;&#x27;, &#x27;log_filename&#x27;: &#x27;httpserver.log&#x27;, &#x27;debuglevel&#x27;: 30, &#x27;args&#x27;: [&#x27;&#x27;], &#x27;socket_timeout&#x27;: 5, &#x27;ssl_ca_certificate&#x27;: None, &#x27;scheduler&#x27;: None, &#x27;profiler_filename&#x27;: None, &#x27;ssl_private_key&#x27;: &#x27;&#x27;, &#x27;scheduler_groups&#x27;: None, &#x27;password&#x27;: &#x27;&lt;ask&gt;&#x27;, &#x27;request_queue_size&#x27;: 5, &#x27;ssl_certificate&#x27;: &#x27;&#x27;, &#x27;cronjob&#x27;: False, &#x27;numthreads&#x27;: None, &#x27;quiet&#x27;: False, &#x27;interfaces&#x27;: None, &#x27;import_models&#x27;: False, &#x27;timeout&#x27;: 10, &#x27;plain&#x27;: False, &#x27;nobanner&#x27;: False}&gt;</div></td></tr><tr><td style="font-weight:bold;vertical-align:top">db_sessions</td><td valign="top">:</td><td><div>set([])</div></td></tr><tr><td style="font-weight:bold;vertical-align:top">debugging</td><td valign="top">:</td><td><div>True</div></td></tr><tr><td style="font-weight:bold;vertical-align:top">gluon_parent</td><td valign="top">:</td><td><div>/Users/josyulakrishna/Documents/web2py_src/web2py</div></td></tr><tr><td style="font-weight:bold;vertical-align:top">http_accept</td><td valign="top">:</td><td><div>text/html,application/xhtml+xml,application/xml;q=0.9,image/webp,*/*;q=0.8</div></td></tr><tr><td style="font-weight:bold;vertical-align:top">http_accept_encoding</td><td valign="top">:</td><td><div>gzip,deflate,sdch</div></td></tr><tr><td style="font-weight:bold;vertical-align:top">http_accept_language</td><td valign="top">:</td><td><div>en-US,en;q=0.8</div></td></tr><tr><td style="font-weight:bold;vertical-align:top">http_cache_control</td><td valign="top">:</td><td><div>max-age=0</div></td></tr><tr><td style="font-weight:bold;vertical-align:top">http_connection</td><td valign="top">:</td><td><div>keep-alive</div></td></tr><tr><td style="font-weight:bold;vertical-align:top">http_cookie</td><td valign="top">:</td><td><div>session_id_facebookclone=127.0.0.1-11c060a6-b0dd-41b0-b301-dfd7cc431b50; session_id_tryfacebookapi=127.0.0.1-83db9b5d-75e2-4537-8552-73abfada2711; session_id_taskscheduler=127.0.0.1-4244ae84-7294-4b20-bc0c-3050812c06f6; session_id_amplifyprototype=127.0.0.1-15740f78-a69b-423c-8f9a-98136689fda4; session_id_welcome=127.0.0.1-c2214d19-5b00-46c5-85d5-f8a0f736ae3d; session_id_amplify=127.0.0.1-6dbe842e-d6c9-4345-851e-5914f55a0026; session_id_admin=127.0.0.1-7db7eefc-9f83-40e3-8599-b6f9393cf31d</div></td></tr><tr><td style="font-weight:bold;vertical-align:top">http_host</td><td valign="top">:</td><td><div>127.0.0.1:8000</div></td></tr><tr><td style="font-weight:bold;vertical-align:top">http_referer</td><td valign="top">:</td><td><div>http://127.0.0.1:8000/Amplify/appadmin/index</div></td></tr><tr><td style="font-weight:bold;vertical-align:top">http_user_agent</td><td valign="top">:</td><td><div>Mozilla/5.0 (Macintosh; Intel Mac OS X 10_9_2) AppleWebKit/537.36 (KHTML, like Gecko) Chrome/34.0.1847.131 Safari/537.36</div></td></tr><tr><td style="font-weight:bold;vertical-align:top">is_jython</td><td valign="top">:</td><td><div>False</div></td></tr><tr><td style="font-weight:bold;vertical-align:top">is_pypy</td><td valign="top">:</td><td><div>False</div></td></tr><tr><td style="font-weight:bold;vertical-align:top">local_hosts</td><td valign="top">:</td><td><div><table><tr><td><div>Josyulas-MacBook-Air.local</div></td></tr><tr><td><div>192.168.12.250</div></td></tr><tr><td><div>::ffff:127.0.0.1</div></td></tr><tr><td><div>::1</div></td></tr><tr><td><div>fe80::5ef9:38ff:fe8c:8472%en0</div></td></tr><tr><td><div>127.0.0.1</div></td></tr></table></div></td></tr><tr><td style="font-weight:bold;vertical-align:top">path_info</td><td valign="top">:</td><td><div>/Amplify/appadmin/select/db</div></td></tr><tr><td style="font-weight:bold;vertical-align:top">query_string</td><td valign="top">:</td><td><div>query=db.user_interests.id%3E0</div></td></tr><tr><td style="font-weight:bold;vertical-align:top">remote_addr</td><td valign="top">:</td><td><div>127.0.0.1</div></td></tr><tr><td style="font-weight:bold;vertical-align:top">remote_port</td><td valign="top">:</td><td><div>58997</div></td></tr><tr><td style="font-weight:bold;vertical-align:top">request_method</td><td valign="top">:</td><td><div>GET</div></td></tr><tr><td style="font-weight:bold;vertical-align:top">request_uri</td><td valign="top">:</td><td><div>/Amplify/appadmin/select/db?query=db.user_interests.id%3E0</div></td></tr><tr><td style="font-weight:bold;vertical-align:top">script_name</td><td valign="top">:</td><td><div></div></td></tr><tr><td style="font-weight:bold;vertical-align:top">server_name</td><td valign="top">:</td><td><div>Josyulas-MacBook-Air.local</div></td></tr><tr><td style="font-weight:bold;vertical-align:top">server_port</td><td valign="top">:</td><td><div>8000</div></td></tr><tr><td style="font-weight:bold;vertical-align:top">server_protocol</td><td valign="top">:</td><td><div>HTTP/1.1</div></td></tr><tr><td style="font-weight:bold;vertical-align:top">server_software</td><td valign="top">:</td><td><div>Rocket 1.2.6</div></td></tr><tr><td style="font-weight:bold;vertical-align:top">web2py_path</td><td valign="top">:</td><td><div>/Users/josyulakrishna/Documents/web2py_src/web2py</div></td></tr><tr><td style="font-weight:bold;vertical-align:top">web2py_version</td><td valign="top">:</td><td><div>2.5.1-stable+timestamp.2013.06.06.15.39.19</div></td></tr><tr><td style="font-weight:bold;vertical-align:top">wsgi_errors</td><td valign="top">:</td><td><div>&lt;open file &#x27;&lt;stderr&gt;&#x27;, mode &#x27;w&#x27; at 0x10028e1e0&gt;</div></td></tr><tr><td style="font-weight:bold;vertical-align:top">wsgi_file_wrapper</td><td valign="top">:</td><td><div>&lt;class wsgiref.util.FileWrapper at 0x10369f4c8&gt;</div></td></tr><tr><td style="font-weight:bold;vertical-align:top">wsgi_input</td><td valign="top">:</td><td><div>&lt;socket._fileobject object at 0x10b20f450&gt;</div></td></tr><tr><td style="font-weight:bold;vertical-align:top">wsgi_multiprocess</td><td valign="top">:</td><td><div>False</div></td></tr><tr><td style="font-weight:bold;vertical-align:top">wsgi_multithread</td><td valign="top">:</td><td><div>True</div></td></tr><tr><td style="font-weight:bold;vertical-align:top">wsgi_run_once</td><td valign="top">:</td><td><div>False</div></td></tr><tr><td style="font-weight:bold;vertical-align:top">wsgi_url_scheme</td><td valign="top">:</td><td><div>http</div></td></tr><tr><td style="font-weight:bold;vertical-align:top">wsgi_version</td><td valign="top">:</td><td><div><table><tr><td><div>1</div></td></tr><tr><td><div>0</div></td></tr></table></div></td></tr></table></div></td></tr><tr><td style="font-weight:bold;vertical-align:top">extension</td><td valign="top">:</td><td><div>html</div></td></tr><tr><td style="font-weight:bold;vertical-align:top">folder</td><td valign="top">:</td><td><div>/Users/josyulakrishna/Documents/web2py_src/web2py/applications/Amplify/</div></td></tr><tr><td style="font-weight:bold;vertical-align:top">function</td><td valign="top">:</td><td><div>select</div></td></tr><tr><td style="font-weight:bold;vertical-align:top">get_vars</td><td valign="top">:</td><td><div><table><tr><td style="font-weight:bold;vertical-align:top">query</td><td valign="top">:</td><td><div>db.user_interests.id&gt;0</div></td></tr></table></div></td></tr><tr><td style="font-weight:bold;vertical-align:top">global_settings</td><td valign="top">:</td><td><div><table><tr><td style="font-weight:bold;vertical-align:top">app_folders</td><td valign="top">:</td><td><div>set([&#x27;/Users/josyulakrishna/Documents/web2py_src/web2py/applications/welcome/&#x27;, &#x27;/Users/josyulakrishna/Documents/web2py_src/web2py/applications/admin/&#x27;, &#x27;/Users/josyulakrishna/Documents/web2py_src/web2py/applications/Amplify/&#x27;])</div></td></tr><tr><td style="font-weight:bold;vertical-align:top">applications_parent</td><td valign="top">:</td><td><div>/Users/josyulakrishna/Documents/web2py_src/web2py</div></td></tr><tr><td style="font-weight:bold;vertical-align:top">cmd_args</td><td valign="top">:</td><td><div><table></table></div></td></tr><tr><td style="font-weight:bold;vertical-align:top">cmd_options</td><td valign="top">:</td><td><div>&lt;Values at 0x103ae2b90: {&#x27;verbose&#x27;: False, &#x27;ip&#x27;: &#x27;127.0.0.1&#x27;, &#x27;with_scheduler&#x27;: False, &#x27;ips&#x27;: [&#x27;192.168.12.250&#x27;, &#x27;fe80::5ef9:38ff:fe8c:8472%en0&#x27;], &#x27;shutdown_timeout&#x27;: 5, &#x27;taskbar&#x27;: False, &#x27;with_coverage&#x27;: False, &#x27;port&#x27;: 8000, &#x27;maxthreads&#x27;: None, &#x27;softcron&#x27;: False, &#x27;server_name&#x27;: &#x27;Josyulas-MacBook-Air.local&#x27;, &#x27;bpython&#x27;: False, &#x27;nogui&#x27;: False, &#x27;pid_filename&#x27;: &#x27;httpserver.pid&#x27;, &#x27;extcron&#x27;: False, &#x27;runcron&#x27;: False, &#x27;run_system_tests&#x27;: False, &#x27;test&#x27;: None, &#x27;folder&#x27;: &#x27;/Users/josyulakrishna/Documents/web2py_src/web2py&#x27;, &#x27;config&#x27;: &#x27;&#x27;, &#x27;minthreads&#x27;: None, &#x27;winservice&#x27;: &#x27;&#x27;, &#x27;shell&#x27;: None, &#x27;run&#x27;: &#x27;&#x27;, &#x27;log_filename&#x27;: &#x27;httpserver.log&#x27;, &#x27;debuglevel&#x27;: 30, &#x27;args&#x27;: [&#x27;&#x27;], &#x27;socket_timeout&#x27;: 5, &#x27;ssl_ca_certificate&#x27;: None, &#x27;scheduler&#x27;: None, &#x27;profiler_filename&#x27;: None, &#x27;ssl_private_key&#x27;: &#x27;&#x27;, &#x27;scheduler_groups&#x27;: None, &#x27;password&#x27;: &#x27;&lt;ask&gt;&#x27;, &#x27;request_queue_size&#x27;: 5, &#x27;ssl_certificate&#x27;: &#x27;&#x27;, &#x27;cronjob&#x27;: False, &#x27;numthreads&#x27;: None, &#x27;quiet&#x27;: False, &#x27;interfaces&#x27;: None, &#x27;import_models&#x27;: False, &#x27;timeout&#x27;: 10, &#x27;plain&#x27;: False, &#x27;nobanner&#x27;: False}&gt;</div></td></tr><tr><td style="font-weight:bold;vertical-align:top">db_sessions</td><td valign="top">:</td><td><div>set([])</div></td></tr><tr><td style="font-weight:bold;vertical-align:top">debugging</td><td valign="top">:</td><td><div>True</div></td></tr><tr><td style="font-weight:bold;vertical-align:top">gluon_parent</td><td valign="top">:</td><td><div>/Users/josyulakrishna/Documents/web2py_src/web2py</div></td></tr><tr><td style="font-weight:bold;vertical-align:top">is_jython</td><td valign="top">:</td><td><div>False</div></td></tr><tr><td style="font-weight:bold;vertical-align:top">is_pypy</td><td valign="top">:</td><td><div>False</div></td></tr><tr><td style="font-weight:bold;vertical-align:top">local_hosts</td><td valign="top">:</td><td><div><table><tr><td><div>Josyulas-MacBook-Air.local</div></td></tr><tr><td><div>192.168.12.250</div></td></tr><tr><td><div>::ffff:127.0.0.1</div></td></tr><tr><td><div>::1</div></td></tr><tr><td><div>fe80::5ef9:38ff:fe8c:8472%en0</div></td></tr><tr><td><div>127.0.0.1</div></td></tr></table></div></td></tr><tr><td style="font-weight:bold;vertical-align:top">web2py_version</td><td valign="top">:</td><td><div>2.5.1-stable+timestamp.2013.06.06.15.39.19</div></td></tr></table></div></td></tr><tr><td style="font-weight:bold;vertical-align:top">is_https</td><td valign="top">:</td><td><div>False</div></td></tr><tr><td style="font-weight:bold;vertical-align:top">is_local</td><td valign="top">:</td><td><div>True</div></td></tr><tr><td style="font-weight:bold;vertical-align:top">is_restful</td><td valign="top">:</td><td><div>False</div></td></tr><tr><td style="font-weight:bold;vertical-align:top">now</td><td valign="top">:</td><td><div>datetime.datetime(2014, 4, 28, 14, 59, 43, 680348)</div></td></tr><tr><td style="font-weight:bold;vertical-align:top">post_vars</td><td valign="top">:</td><td><div><table></table></div></td></tr><tr><td style="font-weight:bold;vertical-align:top">raw_args</td><td valign="top">:</td><td><div>db</div></td></tr><tr><td style="font-weight:bold;vertical-align:top">raw_extension</td><td valign="top">:</td><td><div>None</div></td></tr><tr><td style="font-weight:bold;vertical-align:top">url</td><td valign="top">:</td><td><div>/Amplify/appadmin/select/db</div></td></tr><tr><td style="font-weight:bold;vertical-align:top">utcnow</td><td valign="top">:</td><td><div>datetime.datetime(2014, 4, 28, 9, 29, 43, 680358)</div></td></tr><tr><td style="font-weight:bold;vertical-align:top">uuid</td><td valign="top">:</td><td><div>Amplify/127.0.0.1.2014-04-28.14-59-43.0355b28b-3da1-4026-b227-98e19d1da4c5</div></td></tr><tr><td style="font-weight:bold;vertical-align:top">vars</td><td valign="top">:</td><td><div><table><tr><td style="font-weight:bold;vertical-align:top">query</td><td valign="top">:</td><td><div>db.user_interests.id&gt;0</div></td></tr></table></div></td></tr><tr><td style="font-weight:bold;vertical-align:top">wsgi</td><td valign="top">:</td><td><div><table><tr><td style="font-weight:bold;vertical-align:top">environ</td><td valign="top">:</td><td><div><table><tr><td style="font-weight:bold;vertical-align:top">HTTP_ACCEPT</td><td valign="top">:</td><td><div>text/html,application/xhtml+xml,application/xml;q=0.9,image/webp,*/*;q=0.8</div></td></tr><tr><td style="font-weight:bold;vertical-align:top">HTTP_ACCEPT_ENCODING</td><td valign="top">:</td><td><div>gzip,deflate,sdch</div></td></tr><tr><td style="font-weight:bold;vertical-align:top">HTTP_ACCEPT_LANGUAGE</td><td valign="top">:</td><td><div>en-US,en;q=0.8</div></td></tr><tr><td style="font-weight:bold;vertical-align:top">HTTP_CACHE_CONTROL</td><td valign="top">:</td><td><div>max-age=0</div></td></tr><tr><td style="font-weight:bold;vertical-align:top">HTTP_CONNECTION</td><td valign="top">:</td><td><div>keep-alive</div></td></tr><tr><td style="font-weight:bold;vertical-align:top">HTTP_COOKIE</td><td valign="top">:</td><td><div>session_id_facebookclone=127.0.0.1-11c060a6-b0dd-41b0-b301-dfd7cc431b50; session_id_tryfacebookapi=127.0.0.1-83db9b5d-75e2-4537-8552-73abfada2711; session_id_taskscheduler=127.0.0.1-4244ae84-7294-4b20-bc0c-3050812c06f6; session_id_amplifyprototype=127.0.0.1-15740f78-a69b-423c-8f9a-98136689fda4; session_id_welcome=127.0.0.1-c2214d19-5b00-46c5-85d5-f8a0f736ae3d; session_id_amplify=127.0.0.1-6dbe842e-d6c9-4345-851e-5914f55a0026; session_id_admin=127.0.0.1-7db7eefc-9f83-40e3-8599-b6f9393cf31d</div></td></tr><tr><td style="font-weight:bold;vertical-align:top">HTTP_HOST</td><td valign="top">:</td><td><div>127.0.0.1:8000</div></td></tr><tr><td style="font-weight:bold;vertical-align:top">HTTP_REFERER</td><td valign="top">:</td><td><div>http://127.0.0.1:8000/Amplify/appadmin/index</div></td></tr><tr><td style="font-weight:bold;vertical-align:top">HTTP_USER_AGENT</td><td valign="top">:</td><td><div>Mozilla/5.0 (Macintosh; Intel Mac OS X 10_9_2) AppleWebKit/537.36 (KHTML, like Gecko) Chrome/34.0.1847.131 Safari/537.36</div></td></tr><tr><td style="font-weight:bold;vertical-align:top">PATH_INFO</td><td valign="top">:</td><td><div>/Amplify/appadmin/select/db</div></td></tr><tr><td style="font-weight:bold;vertical-align:top">QUERY_STRING</td><td valign="top">:</td><td><div>query=db.user_interests.id%3E0</div></td></tr><tr><td style="font-weight:bold;vertical-align:top">REMOTE_ADDR</td><td valign="top">:</td><td><div>127.0.0.1</div></td></tr><tr><td style="font-weight:bold;vertical-align:top">REMOTE_PORT</td><td valign="top">:</td><td><div>58997</div></td></tr><tr><td style="font-weight:bold;vertical-align:top">REQUEST_METHOD</td><td valign="top">:</td><td><div>GET</div></td></tr><tr><td style="font-weight:bold;vertical-align:top">REQUEST_URI</td><td valign="top">:</td><td><div>/Amplify/appadmin/select/db?query=db.user_interests.id%3E0</div></td></tr><tr><td style="font-weight:bold;vertical-align:top">SCRIPT_NAME</td><td valign="top">:</td><td><div></div></td></tr><tr><td style="font-weight:bold;vertical-align:top">SERVER_NAME</td><td valign="top">:</td><td><div>Josyulas-MacBook-Air.local</div></td></tr><tr><td style="font-weight:bold;vertical-align:top">SERVER_PORT</td><td valign="top">:</td><td><div>8000</div></td></tr><tr><td style="font-weight:bold;vertical-align:top">SERVER_PROTOCOL</td><td valign="top">:</td><td><div>HTTP/1.1</div></td></tr><tr><td style="font-weight:bold;vertical-align:top">SERVER_SOFTWARE</td><td valign="top">:</td><td><div>Rocket 1.2.6</div></td></tr><tr><td style="font-weight:bold;vertical-align:top">wsgi.errors</td><td valign="top">:</td><td><div>&lt;open file &#x27;&lt;stderr&gt;&#x27;, mode &#x27;w&#x27; at 0x10028e1e0&gt;</div></td></tr><tr><td style="font-weight:bold;vertical-align:top">wsgi.file_wrapper</td><td valign="top">:</td><td><div>&lt;class wsgiref.util.FileWrapper at 0x10369f4c8&gt;</div></td></tr><tr><td style="font-weight:bold;vertical-align:top">wsgi.input</td><td valign="top">:</td><td><div>&lt;cStringIO.StringO object at 0x10af55d50&gt;</div></td></tr><tr><td style="font-weight:bold;vertical-align:top">wsgi.multiprocess</td><td valign="top">:</td><td><div>False</div></td></tr><tr><td style="font-weight:bold;vertical-align:top">wsgi.multithread</td><td valign="top">:</td><td><div>True</div></td></tr><tr><td style="font-weight:bold;vertical-align:top">wsgi.run_once</td><td valign="top">:</td><td><div>False</div></td></tr><tr><td style="font-weight:bold;vertical-align:top">wsgi.url_scheme</td><td valign="top">:</td><td><div>http</div></td></tr><tr><td style="font-weight:bold;vertical-align:top">wsgi.version</td><td valign="top">:</td><td><div>1</div></td></tr></table></div></td></tr></table></div></td></tr></table></div>'
tRp70
sS'frames'
p71
(lp72
(dp73
S'file'
p74
S'/Users/josyulakrishna/Documents/web2py_src/web2py/gluon/restricted.py'
p75
sS'dump'
p76
(dp77
S'environment'
p78
S"{'A': <class 'gluon.html.A'>, 'ANY_OF': <class 'gluon.validators.ANY_OF'>, 'Auth': <class 'gluon.tools.Auth'>, 'B': <class 'gluon.html.B'>, 'BEAUTIFY': <class 'gluon.html.BEAUTIFY'>, 'BODY': <class 'gluon.html.BODY'>, 'BR': <class 'gluon.html.BR'>, 'BUTTON': <class 'gluon.html.BUTTON'>, 'BeautifulSoup': <class 'bs4.BeautifulSoup'>, 'CAT': <class 'gluon.html.CAT'>, ...}"
p79
sS'ccode'
p80
S'<code object <module> at 0x10b2d1630, file "/Use...pplications/Amplify/models/scheduler.py", line 4>'
p81
ssS'lnum'
p82
I212
sS'lines'
p83
(dp84
I207
S'    try:'
p85
sI208
S'        if isinstance(code, types.CodeType):'
p86
sI209
S'            ccode = code'
p87
sI210
S'        else:'
p88
sI211
S'            ccode = compile2(code, layer)'
p89
sI212
S'        exec ccode in environment'
p90
sI213
S'    except HTTP:'
p91
sI214
S'        raise'
p92
sI215
S'    except RestrictedError:'
p93
sI216
S'        # do not encapsulate (obfuscate) the original RestrictedError'
p94
ssS'call'
p95
S"(code='# coding: utf8\\n# coding: utf8\\n#from __future__ i...tart_time=datetime.datetime.now(), period=86400)\\n', environment={'A': <class 'gluon.html.A'>, 'ANY_OF': <class 'gluon.validators.ANY_OF'>, 'Auth': <class 'gluon.tools.Auth'>, 'B': <class 'gluon.html.B'>, 'BEAUTIFY': <class 'gluon.html.BEAUTIFY'>, 'BODY': <class 'gluon.html.BODY'>, 'BR': <class 'gluon.html.BR'>, 'BUTTON': <class 'gluon.html.BUTTON'>, 'BeautifulSoup': <class 'bs4.BeautifulSoup'>, 'CAT': <class 'gluon.html.CAT'>, ...}, layer='/Users/josyulakrishna/Documents/web2py_src/web2py/applications/Amplify/models/scheduler.py')"
p96
sS'func'
p97
S'restricted'
p98
sa(dp99
g74
S'/Users/josyulakrishna/Documents/web2py_src/web2py/applications/Amplify/models/scheduler.py'
p100
sg76
(dp101
S'knnMake'
p102
S'<function knnMake>'
p103
ssg82
I89
sg83
(dp104
I84
S'    temp = [] #for holding the user interests'
p105
sI85
S'    for k in clusterInterests.keys():'
p106
sI86
S'        pass'
p107
sI87
S''
sI88
S''
sI89
S'knnMake()'
p108
sI90
S'#make_clusters()'
p109
sI91
S'#from gluon.scheduler import Scheduler'
p110
sI92
S'#scheduler = Scheduler(db)'
p111
sI93
S'#scheduler.queue_task(make_clusters, repeats=0, start_time=datetime.datetime.now(), period=86400)'
p112
ssg95
S'()'
p113
sg97
S'<module>'
p114
sa(dp115
g74
S'/Users/josyulakrishna/Documents/web2py_src/web2py/applications/Amplify/models/scheduler.py'
p116
sg76
(dp117
S'global db'
p118
S'<DAL uri="sqlite://storage.sqlite">'
p119
sS'db.user_interests'
p120
S'<Table user_interests (id,user_id,Science,Arts,B...ties,ReferenceEducation,Shopping,Society,Sports)>'
p121
sS'v'
S'4L'
p122
sS').select'
p123
S'None'
p124
sS'row'
p125
S"<Row {'user_id': 3L, 'cluster_id': '0', 'id': 19L}>"
p126
ssg82
I73
sg83
(dp127
I68
S'    clusterInterests = {}'
p128
sI69
S'    temp = []'
p129
sI70
S'    for cluster in clusterId:'
p130
sI71
S'        print cluster, datetime.datetime.now()'
p131
sI72
S'        for v in clusterUser[cluster]:'
p132
sI73
S'            for row in db(db.user_interests==v).select():'
p133
sI74
S'               empty = []'
p134
sI75
S'               for topic in db.user_interests.fields[2:]:'
p135
sI76
S'                    empty.append(row[topic])'
p136
sI77
S'               aggregate.append(empty)'
p137
ssg95
S'()'
p138
sg97
S'knnMake'
p139
sa(dp140
g74
S'/Users/josyulakrishna/Documents/web2py_src/web2py/gluon/dal.py'
p141
sg76
(dp142
S'self.query'
p143
S'False'
p144
sS'adapter.select'
p145
S'<bound method SQLiteAdapter.select of <gluon.dal.SQLiteAdapter object>>'
p146
sS'fields'
p147
S'[]'
p148
sS'adapter'
p149
S'<gluon.dal.SQLiteAdapter object>'
p150
sS'attributes'
p151
g21
sS'self'
p152
S'<Set 0>'
p153
ssg82
I9958
sg83
(dp154
I9953
S"                                    attributes.get('join',None),"
p155
sI9954
S"                                    attributes.get('left',None),"
p156
sI9955
S"                                    attributes.get('orderby',None),"
p157
sI9956
S"                                    attributes.get('groupby',None))"
p158
sI9957
S'        fields = adapter.expand_all(fields, tablenames)'
p159
sI9958
S'        return adapter.select(self.query,fields,attributes)'
p160
sI9959
S''
sI9960
S'    def nested_select(self,*fields,**attributes):'
p161
sI9961
S'        return Expression(self.db,self._select(*fields,**attributes))'
p162
sI9962
S''
ssg95
S'(self=<Set 0>, *fields=[], **attributes={})'
p163
sg97
S'select'
p164
sa(dp165
g74
S'/Users/josyulakrishna/Documents/web2py_src/web2py/gluon/dal.py'
p166
sg76
(dp167
S'fields'
p168
S'[]'
p169
sS'self'
p170
S'<gluon.dal.SQLiteAdapter object>'
p171
sS').select'
p172
S'<bound method SQLiteAdapter.select of <gluon.dal.SQLiteAdapter object>>'
p173
sS'attributes'
p174
g21
sS'global SQLiteAdapter'
p175
S"<class 'gluon.dal.SQLiteAdapter'>"
p176
sS'query'
p177
g144
sS'builtinsuper'
p178
S"<type 'super'>"
p179
ssg82
I2245
sg83
(dp180
I2240
S'        Note that the entire database, rather than one record, is locked'
p181
sI2241
S'        (it will be locked eventually anyway by the following UPDATE).'
p182
sI2242
S'        """'
p183
sI2243
S"        if attributes.get('for_update', False) and not 'cache' in attributes:"
p184
sI2244
S"            self.execute('BEGIN IMMEDIATE TRANSACTION;')"
p185
sI2245
S'        return super(SQLiteAdapter, self).select(query, fields, attributes)'
p186
sI2246
S''
sI2247
S'class SpatiaLiteAdapter(SQLiteAdapter):'
p187
sI2248
S"    drivers = ('sqlite3','sqlite2')"
p188
sI2249
S''
ssg95
S'(self=<gluon.dal.SQLiteAdapter object>, query=False, fields=[], attributes={})'
p189
sg97
g164
sa(dp190
g74
S'/Users/josyulakrishna/Documents/web2py_src/web2py/gluon/dal.py'
p191
sg76
(dp192
S'self._select'
p193
S'<bound method SQLiteAdapter._select of <gluon.dal.SQLiteAdapter object>>'
p194
sS'fields'
p195
S'[]'
p196
sS'self'
p197
S'<gluon.dal.SQLiteAdapter object>'
p198
sS'sql'
p199
S'undefined'
p200
sS'query'
p201
g144
sS'attributes'
p202
g21
ssg82
I1691
sg83
(dp203
I1686
S''
sI1687
S'    def select(self, query, fields, attributes):'
p204
sI1688
S'        """'
p205
sI1689
S'        Always returns a Rows object, possibly empty.'
p206
sI1690
S'        """'
p207
sI1691
S'        sql = self._select(query, fields, attributes)'
p208
sI1692
S"        cache = attributes.get('cache', None)"
p209
sI1693
S"        if cache and attributes.get('cacheable',False):"
p210
sI1694
S"            del attributes['cache']"
p211
sI1695
S'            (cache_model, time_expire) = cache'
p212
ssg95
S'(self=<gluon.dal.SQLiteAdapter object>, query=False, fields=[], attributes={})'
p213
sg97
g164
sa(dp214
g74
S'/Users/josyulakrishna/Documents/web2py_src/web2py/gluon/dal.py'
p215
sg76
(dp216
S'builtinSyntaxError'
p217
S"<type 'exceptions.SyntaxError'>"
p218
ssg82
I1537
sg83
(dp219
I1536
S'        if len(tablenames) < 1:'
p220
sI1537
S"            raise SyntaxError('Set: no tables selected')"
p221
sI1538
S'        self._colnames = map(self.expand, fields)'
p222
sI1539
S'        def geoexpand(field):'
p223
sI1540
S"            if isinstance(field.type,str) and field.type.startswith('geometry'):"
p224
sI1541
S'                field = field.st_astext()'
p225
sI1532
S'            for tablename in tables(field):'
p226
sI1533
S'                if not tablename in tablenames:'
p227
sI1534
S'                    tablenames.append(tablename)'
p228
sI1535
S''
ssg95
S'(self=<gluon.dal.SQLiteAdapter object>, query=False, fields=[], attributes={})'
p229
sg97
S'_select'
p230
sasS'pyver'
p231
S'Python 2.7.5: /Users/josyulakrishna/Documents/PythonPackages/anaconda/bin/python (prefix: /Users/josyulakrishna/Documents/PythonPackages/anaconda)'
p232
sS'session'
p233
g69
(S'so\t\x00\x00<div><table><tr><td style="font-weight:bold;vertical-align:top">auth</td><td valign="top">:</td><td><div><table><tr><td style="font-weight:bold;vertical-align:top">expiration</td><td valign="top">:</td><td><div>2592000</div></td></tr><tr><td style="font-weight:bold;vertical-align:top">hmac_key</td><td valign="top">:</td><td><div>bbcede29-52f1-49b8-977a-859d08b1e4da</div></td></tr><tr><td style="font-weight:bold;vertical-align:top">last_visit</td><td valign="top">:</td><td><div>datetime.datetime(2014, 4, 26, 16, 46, 1, 957857)</div></td></tr><tr><td style="font-weight:bold;vertical-align:top">remember</td><td valign="top">:</td><td><div>True</div></td></tr><tr><td style="font-weight:bold;vertical-align:top">user</td><td valign="top">:</td><td><div><table><tr><td style="font-weight:bold;vertical-align:top">email</td><td valign="top">:</td><td><div>michealloren@gmail.com</div></td></tr><tr><td style="font-weight:bold;vertical-align:top">first_name</td><td valign="top">:</td><td><div>Micheal</div></td></tr><tr><td style="font-weight:bold;vertical-align:top">id</td><td valign="top">:</td><td><div>4L</div></td></tr><tr><td style="font-weight:bold;vertical-align:top">last_name</td><td valign="top">:</td><td><div>Lorenstein</div></td></tr><tr><td style="font-weight:bold;vertical-align:top">registration_id</td><td valign="top">:</td><td><div></div></td></tr><tr><td style="font-weight:bold;vertical-align:top">registration_key</td><td valign="top">:</td><td><div></div></td></tr><tr><td style="font-weight:bold;vertical-align:top">reset_password_key</td><td valign="top">:</td><td><div></div></td></tr><tr><td style="font-weight:bold;vertical-align:top">username</td><td valign="top">:</td><td><div>micheal</div></td></tr></table></div></td></tr><tr><td style="font-weight:bold;vertical-align:top">user_groups</td><td valign="top">:</td><td><div><table><tr><td style="font-weight:bold;vertical-align:top">4</td><td valign="top">:</td><td><div>user_4</div></td></tr></table></div></td></tr></table></div></td></tr><tr><td style="font-weight:bold;vertical-align:top">flash</td><td valign="top">:</td><td><div>None</div></td></tr><tr><td style="font-weight:bold;vertical-align:top">last_orderby</td><td valign="top">:</td><td><div>None</div></td></tr><tr><td style="font-weight:bold;vertical-align:top">last_query</td><td valign="top">:</td><td><div>db.user_interests.id&gt;0</div></td></tr></table></div>'
tRp234
sS'etype'
p235
S"<type 'exceptions.SyntaxError'>"
p236
sS'date'
p237
S'Mon Apr 28 14:59:43 2014'
p238
sS'response'
p239
g69
(S's\xde,\x00\x00<div><table><tr><td style="font-weight:bold;vertical-align:top">body</td><td valign="top">:</td><td><div>&lt;cStringIO.StringO object at 0x10acff618&gt;</div></td></tr><tr><td style="font-weight:bold;vertical-align:top">cookies</td><td valign="top">:</td><td><div><table><tr><td style="font-weight:bold;vertical-align:top">session_id_amplify</td><td valign="top">:</td><td><div>127.0.0.1-6dbe842e-d6c9-4345-851e-5914f55a0026<table><tr><td style="font-weight:bold;vertical-align:top">comment</td><td valign="top">:</td><td><div></div></td></tr><tr><td style="font-weight:bold;vertical-align:top">domain</td><td valign="top">:</td><td><div></div></td></tr><tr><td style="font-weight:bold;vertical-align:top">expires</td><td valign="top">:</td><td><div>2592000</div></td></tr><tr><td style="font-weight:bold;vertical-align:top">httponly</td><td valign="top">:</td><td><div></div></td></tr><tr><td style="font-weight:bold;vertical-align:top">max-age</td><td valign="top">:</td><td><div></div></td></tr><tr><td style="font-weight:bold;vertical-align:top">path</td><td valign="top">:</td><td><div>/</div></td></tr><tr><td style="font-weight:bold;vertical-align:top">secure</td><td valign="top">:</td><td><div></div></td></tr><tr><td style="font-weight:bold;vertical-align:top">version</td><td valign="top">:</td><td><div></div></td></tr></table></div></td></tr></table></div></td></tr><tr><td style="font-weight:bold;vertical-align:top">delimiters</td><td valign="top">:</td><td><div><table><tr><td><div>{{</div></td></tr><tr><td><div>}}</div></td></tr></table></div></td></tr><tr><td style="font-weight:bold;vertical-align:top">files</td><td valign="top">:</td><td><div><table></table></div></td></tr><tr><td style="font-weight:bold;vertical-align:top">flash</td><td valign="top">:</td><td><div></div></td></tr><tr><td style="font-weight:bold;vertical-align:top">generic_patterns</td><td valign="top">:</td><td><div><table><tr><td><div>*</div></td></tr></table></div></td></tr><tr><td style="font-weight:bold;vertical-align:top">google_analytics_id</td><td valign="top">:</td><td><div>None</div></td></tr><tr><td style="font-weight:bold;vertical-align:top">headers</td><td valign="top">:</td><td><div><table><tr><td style="font-weight:bold;vertical-align:top">X-Powered-By</td><td valign="top">:</td><td><div>web2py</div></td></tr></table></div></td></tr><tr><td style="font-weight:bold;vertical-align:top">logo</td><td valign="top">:</td><td><div><a class="brand" href="http://www.web2py.com/"><b>web<span>2</span>py</b>&trade;&nbsp;</a></div></td></tr><tr><td style="font-weight:bold;vertical-align:top">menu</td><td valign="top">:</td><td><div><table><tr><td><div><table><tr><td><div>Home</div></td></tr><tr><td><div>False</div></td></tr><tr><td><div>/Amplify/default/index</div></td></tr><tr><td><div><table></table></div></td></tr></table></div></td></tr><tr><td><div><table><tr><td><div><span class="highlighted">web2py</span></div></td></tr><tr><td><div>False</div></td></tr><tr><td><div>http://web2py.com</div></td></tr><tr><td><div><table><tr><td><div><table><tr><td><div>My Sites</div></td></tr><tr><td><div>False</div></td></tr><tr><td><div>/admin/default/site</div></td></tr></table></div></td></tr><tr><td><div><table><tr><td><div>This App</div></td></tr><tr><td><div>False</div></td></tr><tr><td><div>/admin/default/design/Amplify</div></td></tr><tr><td><div>[(&lt;lazyT &#x27;Controller&#x27;&gt;, False, &#x27;/admin/default/edit/Amplify/controllers/appadmin.py&#x27;), (&lt;lazyT &#x27;View&#x27;&gt;, False, &#x27;/admin/default/edit/Amplify/views/appadmin/select.html&#x27;), (&lt;lazyT &#x27;Layout&#x27;&gt;, False, &#x27;/admin/default/edit/Amplify/views/layout.html&#x27;), (&lt;lazyT &#x27;Stylesheet&#x27;&gt;, False, &#x27;/admin/default/edit/Amplify/static/css/web2py.css&#x27;), (&lt;lazyT &#x27;DB Model&#x27;&gt;, False, &#x27;/admin/default/edit/Amplify/models/db.py&#x27;), (&lt;lazyT &#x27;Menu Model&#x27;&gt;, False, &#x27;/admin/default/edit/Amplify/models/menu.py&#x27;), (&lt;lazyT &#x27;Database&#x27;&gt;, False, &#x27;/Amplify/appadmin/index&#x27;), (&lt;lazyT &#x27;Errors&#x27;&gt;, False, &#x27;/admin/default/errors/Amplify&#x27;), (&lt;lazyT &#x27;About&#x27;&gt;, False, &#x27;/admin/default/about/Amplify&#x27;)]</div></td></tr></table></div></td></tr><tr><td><div><table><tr><td><div>web2py.com</div></td></tr><tr><td><div>False</div></td></tr><tr><td><div>http://www.web2py.com</div></td></tr><tr><td><div>[(&lt;lazyT &#x27;Download&#x27;&gt;, False, &#x27;http://www.web2py.com/examples/default/download&#x27;), (&lt;lazyT &#x27;Support&#x27;&gt;, False, &#x27;http://www.web2py.com/examples/default/support&#x27;), (&lt;lazyT &#x27;Demo&#x27;&gt;, False, &#x27;http://web2py.com/demo_admin&#x27;), (&lt;lazyT &#x27;Quick Examples&#x27;&gt;, False, &#x27;http://web2py.com/examples/default/examples&#x27;), (&lt;lazyT &#x27;FAQ&#x27;&gt;, False, &#x27;http://web2py.com/AlterEgo&#x27;), (&lt;lazyT &#x27;Videos&#x27;&gt;, False, &#x27;http://www.web2py.com/examples/default/videos/&#x27;), (&lt;lazyT &#x27;Free Applications&#x27;&gt;, False, &#x27;http://web2py.com/appliances&#x27;), (&lt;lazyT &#x27;Plugins&#x27;&gt;, False, &#x27;http://web2py.com/plugins&#x27;), (&lt;lazyT &#x27;Layouts&#x27;&gt;, False, &#x27;http://web2py.com/layouts&#x27;), (&lt;lazyT &#x27;Recipes&#x27;&gt;, False, &#x27;http://web2pyslices.com/&#x27;), (&lt;lazyT &#x27;Semantic&#x27;&gt;, False, &#x27;http://web2py.com/semantic&#x27;)]</div></td></tr></table></div></td></tr><tr><td><div><table><tr><td><div>Documentation</div></td></tr><tr><td><div>False</div></td></tr><tr><td><div>http://www.web2py.com/book</div></td></tr><tr><td><div>[(&lt;lazyT &#x27;Preface&#x27;&gt;, False, &#x27;http://www.web2py.com/book/default/chapter/00&#x27;), (&lt;lazyT &#x27;Introduction&#x27;&gt;, False, &#x27;http://www.web2py.com/book/default/chapter/01&#x27;), (&lt;lazyT &#x27;Python&#x27;&gt;, False, &#x27;http://www.web2py.com/book/default/chapter/02&#x27;), (&lt;lazyT &#x27;Overview&#x27;&gt;, False, &#x27;http://www.web2py.com/book/default/chapter/03&#x27;), (&lt;lazyT &#x27;The Core&#x27;&gt;, False, &#x27;http://www.web2py.com/book/default/chapter/04&#x27;), (&lt;lazyT &#x27;The Views&#x27;&gt;, False, &#x27;http://www.web2py.com/book/default/chapter/05&#x27;), (&lt;lazyT &#x27;Database&#x27;&gt;, False, &#x27;http://www.web2py.com/book/default/chapter/06&#x27;), (&lt;lazyT &#x27;Forms and Validators&#x27;&gt;, False, &#x27;http://www.web2py.com/book/default/chapter/07&#x27;), (&lt;lazyT &#x27;Email and SMS&#x27;&gt;, False, &#x27;http://www.web2py.com/book/default/chapter/08&#x27;), (&lt;lazyT &#x27;Access Control&#x27;&gt;, False, &#x27;http://www.web2py.com/book/default/chapter/09&#x27;), (&lt;lazyT &#x27;Services&#x27;&gt;, False, &#x27;http://www.web2py.com/book/default/chapter/10&#x27;), (&lt;lazyT &#x27;Ajax Recipes&#x27;&gt;, False, &#x27;http://www.web2py.com/book/default/chapter/11&#x27;), (&lt;lazyT &#x27;Components and Plugins&#x27;&gt;, False, &#x27;http://www.web2py.com/book/default/chapter/12&#x27;), (&lt;lazyT &#x27;Deployment Recipes&#x27;&gt;, False, &#x27;http://www.web2py.com/book/default/chapter/13&#x27;), (&lt;lazyT &#x27;Other Recipes&#x27;&gt;, False, &#x27;http://www.web2py.com/book/default/chapter/14&#x27;), (&lt;lazyT &#x27;Buy this book&#x27;&gt;, False, &#x27;http://stores.lulu.com/web2py&#x27;)]</div></td></tr></table></div></td></tr><tr><td><div><table><tr><td><div>Community</div></td></tr><tr><td><div>False</div></td></tr><tr><td><div>None</div></td></tr><tr><td><div>[(&lt;lazyT &#x27;Groups&#x27;&gt;, False, &#x27;http://www.web2py.com/examples/default/usergroups&#x27;), (&lt;lazyT &#x27;Twitter&#x27;&gt;, False, &#x27;http://twitter.com/web2py&#x27;), (&lt;lazyT &#x27;Live Chat&#x27;&gt;, False, &#x27;http://webchat.freenode.net/?channels=web2py&#x27;)]</div></td></tr></table></div></td></tr><tr><td><div><table><tr><td><div>Plugins</div></td></tr><tr><td><div>False</div></td></tr><tr><td><div>None</div></td></tr><tr><td><div>[(&#x27;plugin_wiki&#x27;, False, &#x27;http://web2py.com/examples/default/download&#x27;), (&lt;lazyT &#x27;Other Plugins&#x27;&gt;, False, &#x27;http://web2py.com/plugins&#x27;), (&lt;lazyT &#x27;Layout Plugins&#x27;&gt;, False, &#x27;http://web2py.com/layouts&#x27;)]</div></td></tr></table></div></td></tr></table></div></td></tr></table></div></td></tr></table></div></td></tr><tr><td style="font-weight:bold;vertical-align:top">meta</td><td valign="top">:</td><td><div><table><tr><td style="font-weight:bold;vertical-align:top">author</td><td valign="top">:</td><td><div>Your Name &lt;you@example.com&gt;</div></td></tr><tr><td style="font-weight:bold;vertical-align:top">description</td><td valign="top">:</td><td><div>a cool new app</div></td></tr><tr><td style="font-weight:bold;vertical-align:top">generator</td><td valign="top">:</td><td><div>Web2py Web Framework</div></td></tr><tr><td style="font-weight:bold;vertical-align:top">keywords</td><td valign="top">:</td><td><div>web2py, python, framework</div></td></tr></table></div></td></tr><tr><td style="font-weight:bold;vertical-align:top">models_to_run</td><td valign="top">:</td><td><div><table><tr><td><div>^\\w+\\.py$</div></td></tr><tr><td><div>^appadmin/\\w+\\.py$</div></td></tr><tr><td><div>^appadmin/select/\\w+\\.py$</div></td></tr></table></div></td></tr><tr><td style="font-weight:bold;vertical-align:top">postprocessing</td><td valign="top">:</td><td><div><table></table></div></td></tr><tr><td style="font-weight:bold;vertical-align:top">session_cookie_expires</td><td valign="top">:</td><td><div>None</div></td></tr><tr><td style="font-weight:bold;vertical-align:top">session_data_name</td><td valign="top">:</td><td><div>session_data_amplify</div></td></tr><tr><td style="font-weight:bold;vertical-align:top">session_file</td><td valign="top">:</td><td><div>&lt;open file &#x27;/Users/josyulakrishna/Documents/web2py_src/web2py/applications/Amplify/sessions/127.0.0.1-6dbe842e-d6c9-4345-851e-5914f55a0026&#x27;, mode &#x27;rb+&#x27; at 0x10ac79c90&gt;</div></td></tr><tr><td style="font-weight:bold;vertical-align:top">session_filename</td><td valign="top">:</td><td><div>/Users/josyulakrishna/Documents/web2py_src/web2py/applications/Amplify/sessions/127.0.0.1-6dbe842e-d6c9-4345-851e-5914f55a0026</div></td></tr><tr><td style="font-weight:bold;vertical-align:top">session_id</td><td valign="top">:</td><td><div>127.0.0.1-6dbe842e-d6c9-4345-851e-5914f55a0026</div></td></tr><tr><td style="font-weight:bold;vertical-align:top">session_id_name</td><td valign="top">:</td><td><div>session_id_amplify</div></td></tr><tr><td style="font-weight:bold;vertical-align:top">session_locked</td><td valign="top">:</td><td><div>True</div></td></tr><tr><td style="font-weight:bold;vertical-align:top">session_new</td><td valign="top">:</td><td><div>False</div></td></tr><tr><td style="font-weight:bold;vertical-align:top">session_storage_type</td><td valign="top">:</td><td><div>file</div></td></tr><tr><td style="font-weight:bold;vertical-align:top">status</td><td valign="top">:</td><td><div>200</div></td></tr><tr><td style="font-weight:bold;vertical-align:top">subtitle</td><td valign="top">:</td><td><div>customize me!</div></td></tr><tr><td style="font-weight:bold;vertical-align:top">title</td><td valign="top">:</td><td><div>Amplify</div></td></tr><tr><td style="font-weight:bold;vertical-align:top">view</td><td valign="top">:</td><td><div>appadmin/select.html</div></td></tr></table></div>'
tRp240
sS'locals'
p241
(dp242
S'tables'
p243
S'<bound method SQLiteAdapter.tables of <gluon.dal.SQLiteAdapter object>>'
p244
sS'fields'
p245
S'[]'
p246
sS'self'
p247
S'<gluon.dal.SQLiteAdapter object>'
p248
sS'tablenames'
p249
S'[]'
p250
sS'tablenames_for_common_filters'
p251
S'[]'
p252
sS'query'
p253
g144
sS'attributes'
p254
g21
sS'args_get'
p255
S'<built-in method get of dict object>'
p256
sssS'traceback'
p257
S'Traceback (most recent call last):\n  File "/Users/josyulakrishna/Documents/web2py_src/web2py/gluon/restricted.py", line 212, in restricted\n    exec ccode in environment\n  File "/Users/josyulakrishna/Documents/web2py_src/web2py/applications/Amplify/models/scheduler.py", line 89, in <module>\n    knnMake()\n  File "/Users/josyulakrishna/Documents/web2py_src/web2py/applications/Amplify/models/scheduler.py", line 73, in knnMake\n    for row in db(db.user_interests==v).select():\n  File "/Users/josyulakrishna/Documents/web2py_src/web2py/gluon/dal.py", line 9958, in select\n    return adapter.select(self.query,fields,attributes)\n  File "/Users/josyulakrishna/Documents/web2py_src/web2py/gluon/dal.py", line 2245, in select\n    return super(SQLiteAdapter, self).select(query, fields, attributes)\n  File "/Users/josyulakrishna/Documents/web2py_src/web2py/gluon/dal.py", line 1691, in select\n    sql = self._select(query, fields, attributes)\n  File "/Users/josyulakrishna/Documents/web2py_src/web2py/gluon/dal.py", line 1537, in _select\n    raise SyntaxError(\'Set: no tables selected\')\nSyntaxError: Set: no tables selected\n'
p258
s.