(dp1
S'output'
p2
S'Unable to open included view file: E:\\web2py_src\\web2py\\applications\\Amplify\\views\\faltLayout.html'
p3
sS'layer'
p4
S'ParserContainer'
p5
sS'code'
p6
S'{{left_sidebar_enabled,right_sidebar_enabled=False,(\'message\' in globals())}}\r\n{{#extend \'actualLayout.html\'}}\r\n{{#extend \'layout.html\'}}\r\n{{extend \'faltLayout.html\'}}\r\n\r\n{{if \'message\' in globals():}}\r\n<h3>{{=message}}</h3>\r\n\r\n<h4>{{=T(\'How did you get here?\')}}</h4>\r\n<ol>\r\n  <li>{{=T(\'You are successfully running web2py\')}}</li>\r\n  <li>{{=XML(T(\'You visited the url %s\', A(request.env.path_info,_href=request.env.path_info)))}}</li>\r\n  <li>{{=XML(T(\'Which called the function %s located in the file %s\',\r\n             (A(request.function+\'()\',_href=\'#\'),\r\n              A(\'web2py/applications/%(application)s/controllers/%(controller)s.py\'%request,\r\n               _href=URL(\'admin\',\'default\',\'peek\', args=(request.application,\'controllers\',request.controller+\'.py\'))))))}}</li>\r\n  <li>{{=XML(T(\'The output of the file is a dictionary that was rendered by the view %s\',\r\n           A(\'web2py/applications/%(application)s/views/%(controller)s/index.html\'%request,\r\n           _href=URL(\'admin\',\'default\',\'peek\',args=(request.application,\'views\',request.controller,\'index.html\')))))}}</li>\r\n  <li>{{=T(\'You can modify this application and adapt it to your needs\')}}</li>\r\n</ol>\r\n{{elif \'content\' in globals():}}\r\n{{=content}}\r\n{{else:}}\r\n{{=BEAUTIFY(response._vars)}}\r\n{{pass}}\r\n\r\n{{block right_sidebar}}\r\n{{=A(T("Administrative Interface"), _href=URL(\'admin\',\'default\',\'index\'), _class=\'btn\',\r\n     _style=\'margin-top: 1em;\')}}\r\n<h6>{{=T("Don\'t know what to do?")}}</h6>\r\n<ul>\r\n  <li>{{=A(T("Online examples"), _href=URL(\'examples\',\'default\',\'index\'))}}</li>\r\n  <li><a href="http://web2py.com">web2py.com</a></li>\r\n  <li><a href="http://web2py.com/book">{{=T(\'Documentation\')}}</a></li>\r\n</ul>\r\n{{end}}\r\n'
p7
sS'snapshot'
p8
(dp9
S'exception'
p10
(dp11
S'__getslice__'
p12
S"<method-wrapper '__getslice__' of exceptions.IOError object>"
p13
sS'__str__'
p14
S"<method-wrapper '__str__' of exceptions.IOError object>"
p15
sS'__reduce__'
p16
S'<built-in method __reduce__ of exceptions.IOError object>'
p17
sS'__dict__'
p18
S'{}'
p19
sS'__sizeof__'
p20
S'<built-in method __sizeof__ of exceptions.IOError object>'
p21
sS'__init__'
p22
S"<method-wrapper '__init__' of exceptions.IOError object>"
p23
sS'__setattr__'
p24
S"<method-wrapper '__setattr__' of exceptions.IOError object>"
p25
sS'__reduce_ex__'
p26
S'<built-in method __reduce_ex__ of exceptions.IOError object>'
p27
sS'__new__'
p28
S'<built-in method __new__ of type object>'
p29
sS'errno'
p30
S'2'
sS'__format__'
p31
S'<built-in method __format__ of exceptions.IOError object>'
p32
sS'__class__'
p33
S"<type 'exceptions.IOError'>"
p34
sS'filename'
p35
S"r'E:\\web2py_src\\web2py\\applications\\Amplify\\views\\faltLayout.html'"
p36
sS'__doc__'
p37
S"'I/O operation failed.'"
p38
sS'__getitem__'
p39
S"<method-wrapper '__getitem__' of exceptions.IOError object>"
p40
sS'__setstate__'
p41
S'<built-in method __setstate__ of exceptions.IOError object>'
p42
sS'__getattribute__'
p43
S"<method-wrapper '__getattribute__' of exceptions.IOError object>"
p44
sS'args'
p45
S"(2, 'No such file or directory')"
p46
sS'__subclasshook__'
p47
S'<built-in method __subclasshook__ of type object>'
p48
sS'__unicode__'
p49
S'<built-in method __unicode__ of exceptions.IOError object>'
p50
sS'strerror'
p51
S"'No such file or directory'"
p52
sS'__delattr__'
p53
S"<method-wrapper '__delattr__' of exceptions.IOError object>"
p54
sS'__repr__'
p55
S"<method-wrapper '__repr__' of exceptions.IOError object>"
p56
sS'__hash__'
p57
S"<method-wrapper '__hash__' of exceptions.IOError object>"
p58
ssS'evalue'
p59
S"[Errno 2] No such file or directory: 'E:\\\\web2py_src\\\\web2py\\\\applications\\\\Amplify\\\\views\\\\faltLayout.html'"
p60
sS'frames'
p61
(lp62
(dp63
S'file'
p64
S'E:\\web2py_src\\web2py\\gluon\\template.py'
p65
sS'dump'
p66
(dp67
S'builtinopen'
p68
S'<built-in function open>'
p69
sS'fileobj'
p70
S'undefined'
p71
sS'filepath'
p72
S"r'E:\\web2py_src\\web2py\\applications\\Amplify\\views\\faltLayout.html'"
p73
ssS'lnum'
p74
I443
sS'lines'
p75
(dp76
I438
S'        # Get the path of the file on the system.'
p77
sI439
S'        filepath = self.path and os.path.join(self.path, filename) or filename'
p78
sI440
S''
sI441
S'        # try to read the text.'
p79
sI442
S'        try:'
p80
sI443
S"            fileobj = open(filepath, 'rb')"
p81
sI444
S'            text = fileobj.read()'
p82
sI445
S'            fileobj.close()'
p83
sI446
S'        except IOError:'
p84
sI447
S"            self._raise_error('Unable to open included view file: ' + filepath)"
p85
ssS'call'
p86
S"(self=<gluon.template.TemplateParser object>, filename='faltLayout.html')"
p87
sS'func'
p88
S'_get_file_text'
p89
sasS'pyver'
p90
S'Python 2.7.2: C:\\Python27\\python.exe (prefix: C:\\Python27)'
p91
sS'etype'
p92
S"<type 'exceptions.IOError'>"
p93
sS'date'
p94
S'Wed Sep 25 15:15:11 2013'
p95
sS'locals'
p96
(dp97
S'self'
p98
S'<gluon.template.TemplateParser object>'
p99
sg35
S"'faltLayout.html'"
p100
sS'context'
p101
S"{'A': <class 'gluon.html.A'>, 'ANY_OF': <class 'gluon.validators.ANY_OF'>, 'Auth': <class 'gluon.tools.Auth'>, 'B': <class 'gluon.html.B'>, 'BEAUTIFY': <class 'gluon.html.BEAUTIFY'>, 'BODY': <class 'gluon.html.BODY'>, 'BR': <class 'gluon.html.BR'>, 'BUTTON': <class 'gluon.html.BUTTON'>, 'CAT': <class 'gluon.html.CAT'>, 'CENTER': <class 'gluon.html.CENTER'>, ...}"
p102
sS'filepath'
p103
S"r'E:\\web2py_src\\web2py\\applications\\Amplify\\views\\faltLayout.html'"
p104
sssS'traceback'
p105
S'Traceback (most recent call last):\n  File "E:\\web2py_src\\web2py\\gluon\\template.py", line 443, in _get_file_text\n    fileobj = open(filepath, \'rb\')\nIOError: [Errno 2] No such file or directory: \'E:\\\\web2py_src\\\\web2py\\\\applications\\\\Amplify\\\\views\\\\faltLayout.html\'\n'
p106
s.